
Cygnini.elf:     file format elf32-littlearm

Sections:
Idx Name          Size      VMA       LMA       File off  Algn
  0 .isr_vector   00000190  08000000  08000000  00010000  2**0
                  CONTENTS, ALLOC, LOAD, READONLY, DATA
  1 .text         00007d18  08000190  08000190  00010190  2**3
                  CONTENTS, ALLOC, LOAD, READONLY, CODE
  2 .rodata       000004f0  08007ea8  08007ea8  00017ea8  2**2
                  CONTENTS, ALLOC, LOAD, READONLY, DATA
  3 .ARM.extab    00000000  08008398  08008398  00020048  2**0
                  CONTENTS
  4 .ARM          00000008  08008398  08008398  00018398  2**2
                  CONTENTS, ALLOC, LOAD, READONLY, DATA
  5 .preinit_array 00000000  080083a0  080083a0  00020048  2**0
                  CONTENTS, ALLOC, LOAD, DATA
  6 .init_array   00000008  080083a0  080083a0  000183a0  2**2
                  CONTENTS, ALLOC, LOAD, DATA
  7 .fini_array   00000008  080083a8  080083a8  000183a8  2**2
                  CONTENTS, ALLOC, LOAD, DATA
  8 .data         00000048  20000000  080083b0  00020000  2**2
                  CONTENTS, ALLOC, LOAD, DATA
  9 .bss          00008230  20000048  080083f8  00020048  2**3
                  ALLOC
 10 ._user_heap_stack 00000600  20008278  080083f8  00028278  2**0
                  ALLOC
 11 .ARM.attributes 00000030  00000000  00000000  00020048  2**0
                  CONTENTS, READONLY
 12 .debug_info   000256e6  00000000  00000000  00020078  2**0
                  CONTENTS, READONLY, DEBUGGING
 13 .debug_abbrev 000049ae  00000000  00000000  0004575e  2**0
                  CONTENTS, READONLY, DEBUGGING
 14 .debug_aranges 000017d8  00000000  00000000  0004a110  2**3
                  CONTENTS, READONLY, DEBUGGING
 15 .debug_ranges 00001610  00000000  00000000  0004b8e8  2**3
                  CONTENTS, READONLY, DEBUGGING
 16 .debug_line   0000bc82  00000000  00000000  0004cef8  2**0
                  CONTENTS, READONLY, DEBUGGING
 17 .debug_str    00007d01  00000000  00000000  00058b7a  2**0
                  CONTENTS, READONLY, DEBUGGING
 18 .comment      0000007c  00000000  00000000  0006087b  2**0
                  CONTENTS, READONLY
 19 .debug_frame  000060f4  00000000  00000000  000608f8  2**2
                  CONTENTS, READONLY, DEBUGGING

Disassembly of section .text:

08000190 <__do_global_dtors_aux>:
 8000190:	b510      	push	{r4, lr}
 8000192:	4c05      	ldr	r4, [pc, #20]	; (80001a8 <__do_global_dtors_aux+0x18>)
 8000194:	7823      	ldrb	r3, [r4, #0]
 8000196:	b933      	cbnz	r3, 80001a6 <__do_global_dtors_aux+0x16>
 8000198:	4b04      	ldr	r3, [pc, #16]	; (80001ac <__do_global_dtors_aux+0x1c>)
 800019a:	b113      	cbz	r3, 80001a2 <__do_global_dtors_aux+0x12>
 800019c:	4804      	ldr	r0, [pc, #16]	; (80001b0 <__do_global_dtors_aux+0x20>)
 800019e:	f3af 8000 	nop.w
 80001a2:	2301      	movs	r3, #1
 80001a4:	7023      	strb	r3, [r4, #0]
 80001a6:	bd10      	pop	{r4, pc}
 80001a8:	20000048 	.word	0x20000048
 80001ac:	00000000 	.word	0x00000000
 80001b0:	08007e90 	.word	0x08007e90

080001b4 <frame_dummy>:
 80001b4:	b508      	push	{r3, lr}
 80001b6:	4b03      	ldr	r3, [pc, #12]	; (80001c4 <frame_dummy+0x10>)
 80001b8:	b11b      	cbz	r3, 80001c2 <frame_dummy+0xe>
 80001ba:	4903      	ldr	r1, [pc, #12]	; (80001c8 <frame_dummy+0x14>)
 80001bc:	4803      	ldr	r0, [pc, #12]	; (80001cc <frame_dummy+0x18>)
 80001be:	f3af 8000 	nop.w
 80001c2:	bd08      	pop	{r3, pc}
 80001c4:	00000000 	.word	0x00000000
 80001c8:	2000004c 	.word	0x2000004c
 80001cc:	08007e90 	.word	0x08007e90

080001d0 <strlen>:
 80001d0:	4603      	mov	r3, r0
 80001d2:	f813 2b01 	ldrb.w	r2, [r3], #1
 80001d6:	2a00      	cmp	r2, #0
 80001d8:	d1fb      	bne.n	80001d2 <strlen+0x2>
 80001da:	1a18      	subs	r0, r3, r0
 80001dc:	3801      	subs	r0, #1
 80001de:	4770      	bx	lr

080001e0 <__aeabi_uldivmod>:
 80001e0:	b953      	cbnz	r3, 80001f8 <__aeabi_uldivmod+0x18>
 80001e2:	b94a      	cbnz	r2, 80001f8 <__aeabi_uldivmod+0x18>
 80001e4:	2900      	cmp	r1, #0
 80001e6:	bf08      	it	eq
 80001e8:	2800      	cmpeq	r0, #0
 80001ea:	bf1c      	itt	ne
 80001ec:	f04f 31ff 	movne.w	r1, #4294967295
 80001f0:	f04f 30ff 	movne.w	r0, #4294967295
 80001f4:	f000 b97a 	b.w	80004ec <__aeabi_idiv0>
 80001f8:	f1ad 0c08 	sub.w	ip, sp, #8
 80001fc:	e96d ce04 	strd	ip, lr, [sp, #-16]!
 8000200:	f000 f806 	bl	8000210 <__udivmoddi4>
 8000204:	f8dd e004 	ldr.w	lr, [sp, #4]
 8000208:	e9dd 2302 	ldrd	r2, r3, [sp, #8]
 800020c:	b004      	add	sp, #16
 800020e:	4770      	bx	lr

08000210 <__udivmoddi4>:
 8000210:	e92d 47f0 	stmdb	sp!, {r4, r5, r6, r7, r8, r9, sl, lr}
 8000214:	468c      	mov	ip, r1
 8000216:	460d      	mov	r5, r1
 8000218:	4604      	mov	r4, r0
 800021a:	9e08      	ldr	r6, [sp, #32]
 800021c:	2b00      	cmp	r3, #0
 800021e:	d151      	bne.n	80002c4 <__udivmoddi4+0xb4>
 8000220:	428a      	cmp	r2, r1
 8000222:	4617      	mov	r7, r2
 8000224:	d96d      	bls.n	8000302 <__udivmoddi4+0xf2>
 8000226:	fab2 fe82 	clz	lr, r2
 800022a:	f1be 0f00 	cmp.w	lr, #0
 800022e:	d00b      	beq.n	8000248 <__udivmoddi4+0x38>
 8000230:	f1ce 0c20 	rsb	ip, lr, #32
 8000234:	fa01 f50e 	lsl.w	r5, r1, lr
 8000238:	fa20 fc0c 	lsr.w	ip, r0, ip
 800023c:	fa02 f70e 	lsl.w	r7, r2, lr
 8000240:	ea4c 0c05 	orr.w	ip, ip, r5
 8000244:	fa00 f40e 	lsl.w	r4, r0, lr
 8000248:	ea4f 4a17 	mov.w	sl, r7, lsr #16
 800024c:	0c25      	lsrs	r5, r4, #16
 800024e:	fbbc f8fa 	udiv	r8, ip, sl
 8000252:	fa1f f987 	uxth.w	r9, r7
 8000256:	fb0a cc18 	mls	ip, sl, r8, ip
 800025a:	ea45 450c 	orr.w	r5, r5, ip, lsl #16
 800025e:	fb08 f309 	mul.w	r3, r8, r9
 8000262:	42ab      	cmp	r3, r5
 8000264:	d90a      	bls.n	800027c <__udivmoddi4+0x6c>
 8000266:	19ed      	adds	r5, r5, r7
 8000268:	f108 32ff 	add.w	r2, r8, #4294967295
 800026c:	f080 8123 	bcs.w	80004b6 <__udivmoddi4+0x2a6>
 8000270:	42ab      	cmp	r3, r5
 8000272:	f240 8120 	bls.w	80004b6 <__udivmoddi4+0x2a6>
 8000276:	f1a8 0802 	sub.w	r8, r8, #2
 800027a:	443d      	add	r5, r7
 800027c:	1aed      	subs	r5, r5, r3
 800027e:	b2a4      	uxth	r4, r4
 8000280:	fbb5 f0fa 	udiv	r0, r5, sl
 8000284:	fb0a 5510 	mls	r5, sl, r0, r5
 8000288:	ea44 4405 	orr.w	r4, r4, r5, lsl #16
 800028c:	fb00 f909 	mul.w	r9, r0, r9
 8000290:	45a1      	cmp	r9, r4
 8000292:	d909      	bls.n	80002a8 <__udivmoddi4+0x98>
 8000294:	19e4      	adds	r4, r4, r7
 8000296:	f100 33ff 	add.w	r3, r0, #4294967295
 800029a:	f080 810a 	bcs.w	80004b2 <__udivmoddi4+0x2a2>
 800029e:	45a1      	cmp	r9, r4
 80002a0:	f240 8107 	bls.w	80004b2 <__udivmoddi4+0x2a2>
 80002a4:	3802      	subs	r0, #2
 80002a6:	443c      	add	r4, r7
 80002a8:	eba4 0409 	sub.w	r4, r4, r9
 80002ac:	ea40 4008 	orr.w	r0, r0, r8, lsl #16
 80002b0:	2100      	movs	r1, #0
 80002b2:	2e00      	cmp	r6, #0
 80002b4:	d061      	beq.n	800037a <__udivmoddi4+0x16a>
 80002b6:	fa24 f40e 	lsr.w	r4, r4, lr
 80002ba:	2300      	movs	r3, #0
 80002bc:	6034      	str	r4, [r6, #0]
 80002be:	6073      	str	r3, [r6, #4]
 80002c0:	e8bd 87f0 	ldmia.w	sp!, {r4, r5, r6, r7, r8, r9, sl, pc}
 80002c4:	428b      	cmp	r3, r1
 80002c6:	d907      	bls.n	80002d8 <__udivmoddi4+0xc8>
 80002c8:	2e00      	cmp	r6, #0
 80002ca:	d054      	beq.n	8000376 <__udivmoddi4+0x166>
 80002cc:	2100      	movs	r1, #0
 80002ce:	e886 0021 	stmia.w	r6, {r0, r5}
 80002d2:	4608      	mov	r0, r1
 80002d4:	e8bd 87f0 	ldmia.w	sp!, {r4, r5, r6, r7, r8, r9, sl, pc}
 80002d8:	fab3 f183 	clz	r1, r3
 80002dc:	2900      	cmp	r1, #0
 80002de:	f040 808e 	bne.w	80003fe <__udivmoddi4+0x1ee>
 80002e2:	42ab      	cmp	r3, r5
 80002e4:	d302      	bcc.n	80002ec <__udivmoddi4+0xdc>
 80002e6:	4282      	cmp	r2, r0
 80002e8:	f200 80fa 	bhi.w	80004e0 <__udivmoddi4+0x2d0>
 80002ec:	1a84      	subs	r4, r0, r2
 80002ee:	eb65 0503 	sbc.w	r5, r5, r3
 80002f2:	2001      	movs	r0, #1
 80002f4:	46ac      	mov	ip, r5
 80002f6:	2e00      	cmp	r6, #0
 80002f8:	d03f      	beq.n	800037a <__udivmoddi4+0x16a>
 80002fa:	e886 1010 	stmia.w	r6, {r4, ip}
 80002fe:	e8bd 87f0 	ldmia.w	sp!, {r4, r5, r6, r7, r8, r9, sl, pc}
 8000302:	b912      	cbnz	r2, 800030a <__udivmoddi4+0xfa>
 8000304:	2701      	movs	r7, #1
 8000306:	fbb7 f7f2 	udiv	r7, r7, r2
 800030a:	fab7 fe87 	clz	lr, r7
 800030e:	f1be 0f00 	cmp.w	lr, #0
 8000312:	d134      	bne.n	800037e <__udivmoddi4+0x16e>
 8000314:	1beb      	subs	r3, r5, r7
 8000316:	0c3a      	lsrs	r2, r7, #16
 8000318:	fa1f fc87 	uxth.w	ip, r7
 800031c:	2101      	movs	r1, #1
 800031e:	fbb3 f8f2 	udiv	r8, r3, r2
 8000322:	0c25      	lsrs	r5, r4, #16
 8000324:	fb02 3318 	mls	r3, r2, r8, r3
 8000328:	ea45 4503 	orr.w	r5, r5, r3, lsl #16
 800032c:	fb0c f308 	mul.w	r3, ip, r8
 8000330:	42ab      	cmp	r3, r5
 8000332:	d907      	bls.n	8000344 <__udivmoddi4+0x134>
 8000334:	19ed      	adds	r5, r5, r7
 8000336:	f108 30ff 	add.w	r0, r8, #4294967295
 800033a:	d202      	bcs.n	8000342 <__udivmoddi4+0x132>
 800033c:	42ab      	cmp	r3, r5
 800033e:	f200 80d1 	bhi.w	80004e4 <__udivmoddi4+0x2d4>
 8000342:	4680      	mov	r8, r0
 8000344:	1aed      	subs	r5, r5, r3
 8000346:	b2a3      	uxth	r3, r4
 8000348:	fbb5 f0f2 	udiv	r0, r5, r2
 800034c:	fb02 5510 	mls	r5, r2, r0, r5
 8000350:	ea43 4405 	orr.w	r4, r3, r5, lsl #16
 8000354:	fb0c fc00 	mul.w	ip, ip, r0
 8000358:	45a4      	cmp	ip, r4
 800035a:	d907      	bls.n	800036c <__udivmoddi4+0x15c>
 800035c:	19e4      	adds	r4, r4, r7
 800035e:	f100 33ff 	add.w	r3, r0, #4294967295
 8000362:	d202      	bcs.n	800036a <__udivmoddi4+0x15a>
 8000364:	45a4      	cmp	ip, r4
 8000366:	f200 80b8 	bhi.w	80004da <__udivmoddi4+0x2ca>
 800036a:	4618      	mov	r0, r3
 800036c:	eba4 040c 	sub.w	r4, r4, ip
 8000370:	ea40 4008 	orr.w	r0, r0, r8, lsl #16
 8000374:	e79d      	b.n	80002b2 <__udivmoddi4+0xa2>
 8000376:	4631      	mov	r1, r6
 8000378:	4630      	mov	r0, r6
 800037a:	e8bd 87f0 	ldmia.w	sp!, {r4, r5, r6, r7, r8, r9, sl, pc}
 800037e:	f1ce 0420 	rsb	r4, lr, #32
 8000382:	fa05 f30e 	lsl.w	r3, r5, lr
 8000386:	fa07 f70e 	lsl.w	r7, r7, lr
 800038a:	fa20 f804 	lsr.w	r8, r0, r4
 800038e:	0c3a      	lsrs	r2, r7, #16
 8000390:	fa25 f404 	lsr.w	r4, r5, r4
 8000394:	ea48 0803 	orr.w	r8, r8, r3
 8000398:	fbb4 f1f2 	udiv	r1, r4, r2
 800039c:	ea4f 4518 	mov.w	r5, r8, lsr #16
 80003a0:	fb02 4411 	mls	r4, r2, r1, r4
 80003a4:	fa1f fc87 	uxth.w	ip, r7
 80003a8:	ea45 4504 	orr.w	r5, r5, r4, lsl #16
 80003ac:	fb01 f30c 	mul.w	r3, r1, ip
 80003b0:	42ab      	cmp	r3, r5
 80003b2:	fa00 f40e 	lsl.w	r4, r0, lr
 80003b6:	d909      	bls.n	80003cc <__udivmoddi4+0x1bc>
 80003b8:	19ed      	adds	r5, r5, r7
 80003ba:	f101 30ff 	add.w	r0, r1, #4294967295
 80003be:	f080 808a 	bcs.w	80004d6 <__udivmoddi4+0x2c6>
 80003c2:	42ab      	cmp	r3, r5
 80003c4:	f240 8087 	bls.w	80004d6 <__udivmoddi4+0x2c6>
 80003c8:	3902      	subs	r1, #2
 80003ca:	443d      	add	r5, r7
 80003cc:	1aeb      	subs	r3, r5, r3
 80003ce:	fa1f f588 	uxth.w	r5, r8
 80003d2:	fbb3 f0f2 	udiv	r0, r3, r2
 80003d6:	fb02 3310 	mls	r3, r2, r0, r3
 80003da:	ea45 4503 	orr.w	r5, r5, r3, lsl #16
 80003de:	fb00 f30c 	mul.w	r3, r0, ip
 80003e2:	42ab      	cmp	r3, r5
 80003e4:	d907      	bls.n	80003f6 <__udivmoddi4+0x1e6>
 80003e6:	19ed      	adds	r5, r5, r7
 80003e8:	f100 38ff 	add.w	r8, r0, #4294967295
 80003ec:	d26f      	bcs.n	80004ce <__udivmoddi4+0x2be>
 80003ee:	42ab      	cmp	r3, r5
 80003f0:	d96d      	bls.n	80004ce <__udivmoddi4+0x2be>
 80003f2:	3802      	subs	r0, #2
 80003f4:	443d      	add	r5, r7
 80003f6:	1aeb      	subs	r3, r5, r3
 80003f8:	ea40 4101 	orr.w	r1, r0, r1, lsl #16
 80003fc:	e78f      	b.n	800031e <__udivmoddi4+0x10e>
 80003fe:	f1c1 0720 	rsb	r7, r1, #32
 8000402:	fa22 f807 	lsr.w	r8, r2, r7
 8000406:	408b      	lsls	r3, r1
 8000408:	fa05 f401 	lsl.w	r4, r5, r1
 800040c:	ea48 0303 	orr.w	r3, r8, r3
 8000410:	fa20 fe07 	lsr.w	lr, r0, r7
 8000414:	ea4f 4c13 	mov.w	ip, r3, lsr #16
 8000418:	40fd      	lsrs	r5, r7
 800041a:	ea4e 0e04 	orr.w	lr, lr, r4
 800041e:	fbb5 f9fc 	udiv	r9, r5, ip
 8000422:	ea4f 441e 	mov.w	r4, lr, lsr #16
 8000426:	fb0c 5519 	mls	r5, ip, r9, r5
 800042a:	fa1f f883 	uxth.w	r8, r3
 800042e:	ea44 4505 	orr.w	r5, r4, r5, lsl #16
 8000432:	fb09 f408 	mul.w	r4, r9, r8
 8000436:	42ac      	cmp	r4, r5
 8000438:	fa02 f201 	lsl.w	r2, r2, r1
 800043c:	fa00 fa01 	lsl.w	sl, r0, r1
 8000440:	d908      	bls.n	8000454 <__udivmoddi4+0x244>
 8000442:	18ed      	adds	r5, r5, r3
 8000444:	f109 30ff 	add.w	r0, r9, #4294967295
 8000448:	d243      	bcs.n	80004d2 <__udivmoddi4+0x2c2>
 800044a:	42ac      	cmp	r4, r5
 800044c:	d941      	bls.n	80004d2 <__udivmoddi4+0x2c2>
 800044e:	f1a9 0902 	sub.w	r9, r9, #2
 8000452:	441d      	add	r5, r3
 8000454:	1b2d      	subs	r5, r5, r4
 8000456:	fa1f fe8e 	uxth.w	lr, lr
 800045a:	fbb5 f0fc 	udiv	r0, r5, ip
 800045e:	fb0c 5510 	mls	r5, ip, r0, r5
 8000462:	ea4e 4405 	orr.w	r4, lr, r5, lsl #16
 8000466:	fb00 f808 	mul.w	r8, r0, r8
 800046a:	45a0      	cmp	r8, r4
 800046c:	d907      	bls.n	800047e <__udivmoddi4+0x26e>
 800046e:	18e4      	adds	r4, r4, r3
 8000470:	f100 35ff 	add.w	r5, r0, #4294967295
 8000474:	d229      	bcs.n	80004ca <__udivmoddi4+0x2ba>
 8000476:	45a0      	cmp	r8, r4
 8000478:	d927      	bls.n	80004ca <__udivmoddi4+0x2ba>
 800047a:	3802      	subs	r0, #2
 800047c:	441c      	add	r4, r3
 800047e:	ea40 4009 	orr.w	r0, r0, r9, lsl #16
 8000482:	eba4 0408 	sub.w	r4, r4, r8
 8000486:	fba0 8902 	umull	r8, r9, r0, r2
 800048a:	454c      	cmp	r4, r9
 800048c:	46c6      	mov	lr, r8
 800048e:	464d      	mov	r5, r9
 8000490:	d315      	bcc.n	80004be <__udivmoddi4+0x2ae>
 8000492:	d012      	beq.n	80004ba <__udivmoddi4+0x2aa>
 8000494:	b156      	cbz	r6, 80004ac <__udivmoddi4+0x29c>
 8000496:	ebba 030e 	subs.w	r3, sl, lr
 800049a:	eb64 0405 	sbc.w	r4, r4, r5
 800049e:	fa04 f707 	lsl.w	r7, r4, r7
 80004a2:	40cb      	lsrs	r3, r1
 80004a4:	431f      	orrs	r7, r3
 80004a6:	40cc      	lsrs	r4, r1
 80004a8:	6037      	str	r7, [r6, #0]
 80004aa:	6074      	str	r4, [r6, #4]
 80004ac:	2100      	movs	r1, #0
 80004ae:	e8bd 87f0 	ldmia.w	sp!, {r4, r5, r6, r7, r8, r9, sl, pc}
 80004b2:	4618      	mov	r0, r3
 80004b4:	e6f8      	b.n	80002a8 <__udivmoddi4+0x98>
 80004b6:	4690      	mov	r8, r2
 80004b8:	e6e0      	b.n	800027c <__udivmoddi4+0x6c>
 80004ba:	45c2      	cmp	sl, r8
 80004bc:	d2ea      	bcs.n	8000494 <__udivmoddi4+0x284>
 80004be:	ebb8 0e02 	subs.w	lr, r8, r2
 80004c2:	eb69 0503 	sbc.w	r5, r9, r3
 80004c6:	3801      	subs	r0, #1
 80004c8:	e7e4      	b.n	8000494 <__udivmoddi4+0x284>
 80004ca:	4628      	mov	r0, r5
 80004cc:	e7d7      	b.n	800047e <__udivmoddi4+0x26e>
 80004ce:	4640      	mov	r0, r8
 80004d0:	e791      	b.n	80003f6 <__udivmoddi4+0x1e6>
 80004d2:	4681      	mov	r9, r0
 80004d4:	e7be      	b.n	8000454 <__udivmoddi4+0x244>
 80004d6:	4601      	mov	r1, r0
 80004d8:	e778      	b.n	80003cc <__udivmoddi4+0x1bc>
 80004da:	3802      	subs	r0, #2
 80004dc:	443c      	add	r4, r7
 80004de:	e745      	b.n	800036c <__udivmoddi4+0x15c>
 80004e0:	4608      	mov	r0, r1
 80004e2:	e708      	b.n	80002f6 <__udivmoddi4+0xe6>
 80004e4:	f1a8 0802 	sub.w	r8, r8, #2
 80004e8:	443d      	add	r5, r7
 80004ea:	e72b      	b.n	8000344 <__udivmoddi4+0x134>

080004ec <__aeabi_idiv0>:
 80004ec:	4770      	bx	lr
 80004ee:	bf00      	nop

080004f0 <c12832_hal_spi_init>:

SPI_HandleTypeDef hspi2;



void c12832_hal_spi_init(){
 80004f0:	b580      	push	{r7, lr}
 80004f2:	b088      	sub	sp, #32
 80004f4:	af00      	add	r7, sp, #0

	GPIO_InitTypeDef GPIO_InitStruct = {0};
 80004f6:	f107 030c 	add.w	r3, r7, #12
 80004fa:	2200      	movs	r2, #0
 80004fc:	601a      	str	r2, [r3, #0]
 80004fe:	605a      	str	r2, [r3, #4]
 8000500:	609a      	str	r2, [r3, #8]
 8000502:	60da      	str	r2, [r3, #12]
 8000504:	611a      	str	r2, [r3, #16]


    /* USER CODE END SPI2_MspInit 0 */
	/* Peripheral clock enable */
	__HAL_RCC_SPI2_CLK_ENABLE();
 8000506:	4a31      	ldr	r2, [pc, #196]	; (80005cc <c12832_hal_spi_init+0xdc>)
 8000508:	4b30      	ldr	r3, [pc, #192]	; (80005cc <c12832_hal_spi_init+0xdc>)
 800050a:	6d9b      	ldr	r3, [r3, #88]	; 0x58
 800050c:	f443 4380 	orr.w	r3, r3, #16384	; 0x4000
 8000510:	6593      	str	r3, [r2, #88]	; 0x58
 8000512:	4b2e      	ldr	r3, [pc, #184]	; (80005cc <c12832_hal_spi_init+0xdc>)
 8000514:	6d9b      	ldr	r3, [r3, #88]	; 0x58
 8000516:	f403 4380 	and.w	r3, r3, #16384	; 0x4000
 800051a:	60bb      	str	r3, [r7, #8]
 800051c:	68bb      	ldr	r3, [r7, #8]

	__HAL_RCC_GPIOB_CLK_ENABLE();
 800051e:	4a2b      	ldr	r2, [pc, #172]	; (80005cc <c12832_hal_spi_init+0xdc>)
 8000520:	4b2a      	ldr	r3, [pc, #168]	; (80005cc <c12832_hal_spi_init+0xdc>)
 8000522:	6cdb      	ldr	r3, [r3, #76]	; 0x4c
 8000524:	f043 0302 	orr.w	r3, r3, #2
 8000528:	64d3      	str	r3, [r2, #76]	; 0x4c
 800052a:	4b28      	ldr	r3, [pc, #160]	; (80005cc <c12832_hal_spi_init+0xdc>)
 800052c:	6cdb      	ldr	r3, [r3, #76]	; 0x4c
 800052e:	f003 0302 	and.w	r3, r3, #2
 8000532:	607b      	str	r3, [r7, #4]
 8000534:	687b      	ldr	r3, [r7, #4]
	/**SPI2 GPIO Configuration
	PB13     ------> SPI2_SCK
	PB14     ------> SPI2_MISO
	PB15     ------> SPI2_MOSI
	*/
	GPIO_InitStruct.Pin = GPIO_PIN_13|GPIO_PIN_14|GPIO_PIN_15;
 8000536:	f44f 4360 	mov.w	r3, #57344	; 0xe000
 800053a:	60fb      	str	r3, [r7, #12]
	GPIO_InitStruct.Mode = GPIO_MODE_AF_PP;
 800053c:	2302      	movs	r3, #2
 800053e:	613b      	str	r3, [r7, #16]
	GPIO_InitStruct.Pull = GPIO_NOPULL;
 8000540:	2300      	movs	r3, #0
 8000542:	617b      	str	r3, [r7, #20]
	GPIO_InitStruct.Speed = GPIO_SPEED_FREQ_VERY_HIGH;
 8000544:	2303      	movs	r3, #3
 8000546:	61bb      	str	r3, [r7, #24]
	GPIO_InitStruct.Alternate = GPIO_AF5_SPI2;
 8000548:	2305      	movs	r3, #5
 800054a:	61fb      	str	r3, [r7, #28]
	HAL_GPIO_Init(GPIOB, &GPIO_InitStruct);
 800054c:	f107 030c 	add.w	r3, r7, #12
 8000550:	4619      	mov	r1, r3
 8000552:	481f      	ldr	r0, [pc, #124]	; (80005d0 <c12832_hal_spi_init+0xe0>)
 8000554:	f001 fb64 	bl	8001c20 <HAL_GPIO_Init>
    /* USER CODE BEGIN SPI2_MspInit 1 */

    /* USER CODE END SPI2_MspInit 1 */


	  hspi2.Instance = SPI2;
 8000558:	4b1e      	ldr	r3, [pc, #120]	; (80005d4 <c12832_hal_spi_init+0xe4>)
 800055a:	4a1f      	ldr	r2, [pc, #124]	; (80005d8 <c12832_hal_spi_init+0xe8>)
 800055c:	601a      	str	r2, [r3, #0]
	  hspi2.Init.Mode = SPI_MODE_MASTER;
 800055e:	4b1d      	ldr	r3, [pc, #116]	; (80005d4 <c12832_hal_spi_init+0xe4>)
 8000560:	f44f 7282 	mov.w	r2, #260	; 0x104
 8000564:	605a      	str	r2, [r3, #4]
	  hspi2.Init.Direction = SPI_DIRECTION_2LINES;
 8000566:	4b1b      	ldr	r3, [pc, #108]	; (80005d4 <c12832_hal_spi_init+0xe4>)
 8000568:	2200      	movs	r2, #0
 800056a:	609a      	str	r2, [r3, #8]
	  hspi2.Init.DataSize = SPI_DATASIZE_8BIT;
 800056c:	4b19      	ldr	r3, [pc, #100]	; (80005d4 <c12832_hal_spi_init+0xe4>)
 800056e:	f44f 62e0 	mov.w	r2, #1792	; 0x700
 8000572:	60da      	str	r2, [r3, #12]
	  hspi2.Init.CLKPolarity = SPI_POLARITY_LOW;
 8000574:	4b17      	ldr	r3, [pc, #92]	; (80005d4 <c12832_hal_spi_init+0xe4>)
 8000576:	2200      	movs	r2, #0
 8000578:	611a      	str	r2, [r3, #16]
	  hspi2.Init.CLKPhase = SPI_PHASE_1EDGE;
 800057a:	4b16      	ldr	r3, [pc, #88]	; (80005d4 <c12832_hal_spi_init+0xe4>)
 800057c:	2200      	movs	r2, #0
 800057e:	615a      	str	r2, [r3, #20]
	  hspi2.Init.NSS = SPI_NSS_SOFT;
 8000580:	4b14      	ldr	r3, [pc, #80]	; (80005d4 <c12832_hal_spi_init+0xe4>)
 8000582:	f44f 7200 	mov.w	r2, #512	; 0x200
 8000586:	619a      	str	r2, [r3, #24]
	  hspi2.Init.BaudRatePrescaler = SPI_BAUDRATEPRESCALER_64;
 8000588:	4b12      	ldr	r3, [pc, #72]	; (80005d4 <c12832_hal_spi_init+0xe4>)
 800058a:	2228      	movs	r2, #40	; 0x28
 800058c:	61da      	str	r2, [r3, #28]
	  hspi2.Init.FirstBit = SPI_FIRSTBIT_MSB;
 800058e:	4b11      	ldr	r3, [pc, #68]	; (80005d4 <c12832_hal_spi_init+0xe4>)
 8000590:	2200      	movs	r2, #0
 8000592:	621a      	str	r2, [r3, #32]
	  hspi2.Init.TIMode = SPI_TIMODE_DISABLE;
 8000594:	4b0f      	ldr	r3, [pc, #60]	; (80005d4 <c12832_hal_spi_init+0xe4>)
 8000596:	2200      	movs	r2, #0
 8000598:	625a      	str	r2, [r3, #36]	; 0x24
	  hspi2.Init.CRCCalculation = SPI_CRCCALCULATION_DISABLE;
 800059a:	4b0e      	ldr	r3, [pc, #56]	; (80005d4 <c12832_hal_spi_init+0xe4>)
 800059c:	2200      	movs	r2, #0
 800059e:	629a      	str	r2, [r3, #40]	; 0x28
	  hspi2.Init.CRCPolynomial = 7;
 80005a0:	4b0c      	ldr	r3, [pc, #48]	; (80005d4 <c12832_hal_spi_init+0xe4>)
 80005a2:	2207      	movs	r2, #7
 80005a4:	62da      	str	r2, [r3, #44]	; 0x2c
	  hspi2.Init.CRCLength = SPI_CRC_LENGTH_DATASIZE;
 80005a6:	4b0b      	ldr	r3, [pc, #44]	; (80005d4 <c12832_hal_spi_init+0xe4>)
 80005a8:	2200      	movs	r2, #0
 80005aa:	631a      	str	r2, [r3, #48]	; 0x30
	  hspi2.Init.NSSPMode = SPI_NSS_PULSE_DISABLE;
 80005ac:	4b09      	ldr	r3, [pc, #36]	; (80005d4 <c12832_hal_spi_init+0xe4>)
 80005ae:	2200      	movs	r2, #0
 80005b0:	635a      	str	r2, [r3, #52]	; 0x34
	  if (HAL_SPI_Init(&hspi2) != HAL_OK)
 80005b2:	4808      	ldr	r0, [pc, #32]	; (80005d4 <c12832_hal_spi_init+0xe4>)
 80005b4:	f003 fd5c 	bl	8004070 <HAL_SPI_Init>
 80005b8:	4603      	mov	r3, r0
 80005ba:	2b00      	cmp	r3, #0
 80005bc:	d001      	beq.n	80005c2 <c12832_hal_spi_init+0xd2>
	  {
	    Error_Handler();
 80005be:	f007 f8f3 	bl	80077a8 <Error_Handler>
	  }

}
 80005c2:	bf00      	nop
 80005c4:	3720      	adds	r7, #32
 80005c6:	46bd      	mov	sp, r7
 80005c8:	bd80      	pop	{r7, pc}
 80005ca:	bf00      	nop
 80005cc:	40021000 	.word	0x40021000
 80005d0:	48000400 	.word	0x48000400
 80005d4:	20007f20 	.word	0x20007f20
 80005d8:	40003800 	.word	0x40003800

080005dc <c12832_hal_gpio_init>:


void c12832_hal_gpio_init(){
 80005dc:	b580      	push	{r7, lr}
 80005de:	b08a      	sub	sp, #40	; 0x28
 80005e0:	af00      	add	r7, sp, #0
	  __HAL_RCC_GPIOC_CLK_ENABLE();
 80005e2:	4a43      	ldr	r2, [pc, #268]	; (80006f0 <c12832_hal_gpio_init+0x114>)
 80005e4:	4b42      	ldr	r3, [pc, #264]	; (80006f0 <c12832_hal_gpio_init+0x114>)
 80005e6:	6cdb      	ldr	r3, [r3, #76]	; 0x4c
 80005e8:	f043 0304 	orr.w	r3, r3, #4
 80005ec:	64d3      	str	r3, [r2, #76]	; 0x4c
 80005ee:	4b40      	ldr	r3, [pc, #256]	; (80006f0 <c12832_hal_gpio_init+0x114>)
 80005f0:	6cdb      	ldr	r3, [r3, #76]	; 0x4c
 80005f2:	f003 0304 	and.w	r3, r3, #4
 80005f6:	613b      	str	r3, [r7, #16]
 80005f8:	693b      	ldr	r3, [r7, #16]
	  __HAL_RCC_GPIOH_CLK_ENABLE();
 80005fa:	4a3d      	ldr	r2, [pc, #244]	; (80006f0 <c12832_hal_gpio_init+0x114>)
 80005fc:	4b3c      	ldr	r3, [pc, #240]	; (80006f0 <c12832_hal_gpio_init+0x114>)
 80005fe:	6cdb      	ldr	r3, [r3, #76]	; 0x4c
 8000600:	f043 0380 	orr.w	r3, r3, #128	; 0x80
 8000604:	64d3      	str	r3, [r2, #76]	; 0x4c
 8000606:	4b3a      	ldr	r3, [pc, #232]	; (80006f0 <c12832_hal_gpio_init+0x114>)
 8000608:	6cdb      	ldr	r3, [r3, #76]	; 0x4c
 800060a:	f003 0380 	and.w	r3, r3, #128	; 0x80
 800060e:	60fb      	str	r3, [r7, #12]
 8000610:	68fb      	ldr	r3, [r7, #12]
	  __HAL_RCC_GPIOA_CLK_ENABLE();
 8000612:	4a37      	ldr	r2, [pc, #220]	; (80006f0 <c12832_hal_gpio_init+0x114>)
 8000614:	4b36      	ldr	r3, [pc, #216]	; (80006f0 <c12832_hal_gpio_init+0x114>)
 8000616:	6cdb      	ldr	r3, [r3, #76]	; 0x4c
 8000618:	f043 0301 	orr.w	r3, r3, #1
 800061c:	64d3      	str	r3, [r2, #76]	; 0x4c
 800061e:	4b34      	ldr	r3, [pc, #208]	; (80006f0 <c12832_hal_gpio_init+0x114>)
 8000620:	6cdb      	ldr	r3, [r3, #76]	; 0x4c
 8000622:	f003 0301 	and.w	r3, r3, #1
 8000626:	60bb      	str	r3, [r7, #8]
 8000628:	68bb      	ldr	r3, [r7, #8]
	  __HAL_RCC_GPIOB_CLK_ENABLE();
 800062a:	4a31      	ldr	r2, [pc, #196]	; (80006f0 <c12832_hal_gpio_init+0x114>)
 800062c:	4b30      	ldr	r3, [pc, #192]	; (80006f0 <c12832_hal_gpio_init+0x114>)
 800062e:	6cdb      	ldr	r3, [r3, #76]	; 0x4c
 8000630:	f043 0302 	orr.w	r3, r3, #2
 8000634:	64d3      	str	r3, [r2, #76]	; 0x4c
 8000636:	4b2e      	ldr	r3, [pc, #184]	; (80006f0 <c12832_hal_gpio_init+0x114>)
 8000638:	6cdb      	ldr	r3, [r3, #76]	; 0x4c
 800063a:	f003 0302 	and.w	r3, r3, #2
 800063e:	607b      	str	r3, [r7, #4]
 8000640:	687b      	ldr	r3, [r7, #4]
	  __HAL_RCC_GPIOD_CLK_ENABLE();
 8000642:	4a2b      	ldr	r2, [pc, #172]	; (80006f0 <c12832_hal_gpio_init+0x114>)
 8000644:	4b2a      	ldr	r3, [pc, #168]	; (80006f0 <c12832_hal_gpio_init+0x114>)
 8000646:	6cdb      	ldr	r3, [r3, #76]	; 0x4c
 8000648:	f043 0308 	orr.w	r3, r3, #8
 800064c:	64d3      	str	r3, [r2, #76]	; 0x4c
 800064e:	4b28      	ldr	r3, [pc, #160]	; (80006f0 <c12832_hal_gpio_init+0x114>)
 8000650:	6cdb      	ldr	r3, [r3, #76]	; 0x4c
 8000652:	f003 0308 	and.w	r3, r3, #8
 8000656:	603b      	str	r3, [r7, #0]
 8000658:	683b      	ldr	r3, [r7, #0]


	  GPIO_InitTypeDef GPIO_InitStruct = {0};
 800065a:	f107 0314 	add.w	r3, r7, #20
 800065e:	2200      	movs	r2, #0
 8000660:	601a      	str	r2, [r3, #0]
 8000662:	605a      	str	r2, [r3, #4]
 8000664:	609a      	str	r2, [r3, #8]
 8000666:	60da      	str	r2, [r3, #12]
 8000668:	611a      	str	r2, [r3, #16]

	  /*Configure GPIO pin Output Level */
	  HAL_GPIO_WritePin(GPIOC, DISPLAY_NRESET_Pin|DISPLAY_A0_Pin, GPIO_PIN_RESET);
 800066a:	2200      	movs	r2, #0
 800066c:	2160      	movs	r1, #96	; 0x60
 800066e:	4821      	ldr	r0, [pc, #132]	; (80006f4 <c12832_hal_gpio_init+0x118>)
 8000670:	f001 fc6c 	bl	8001f4c <HAL_GPIO_WritePin>

	  /*Configure GPIO pin Output Level */
	  HAL_GPIO_WritePin(DISPLAY_NSEL_GPIO_Port, DISPLAY_NSEL_Pin, GPIO_PIN_RESET);
 8000674:	2200      	movs	r2, #0
 8000676:	f44f 5180 	mov.w	r1, #4096	; 0x1000
 800067a:	481f      	ldr	r0, [pc, #124]	; (80006f8 <c12832_hal_gpio_init+0x11c>)
 800067c:	f001 fc66 	bl	8001f4c <HAL_GPIO_WritePin>

	  /*Configure GPIO pin Output Level */
	  HAL_GPIO_WritePin(DISPLAY_BACKLIGHT_GPIO_Port, DISPLAY_BACKLIGHT_Pin, GPIO_PIN_RESET);
 8000680:	2200      	movs	r2, #0
 8000682:	f44f 7180 	mov.w	r1, #256	; 0x100
 8000686:	f04f 4090 	mov.w	r0, #1207959552	; 0x48000000
 800068a:	f001 fc5f 	bl	8001f4c <HAL_GPIO_WritePin>


	  /*Configure GPIO pins : DISPLAY_NRESET_Pin DISPLAY_A0_Pin */
	  GPIO_InitStruct.Pin = DISPLAY_NRESET_Pin|DISPLAY_A0_Pin;
 800068e:	2360      	movs	r3, #96	; 0x60
 8000690:	617b      	str	r3, [r7, #20]
	  GPIO_InitStruct.Mode = GPIO_MODE_OUTPUT_PP;
 8000692:	2301      	movs	r3, #1
 8000694:	61bb      	str	r3, [r7, #24]
	  GPIO_InitStruct.Pull = GPIO_NOPULL;
 8000696:	2300      	movs	r3, #0
 8000698:	61fb      	str	r3, [r7, #28]
	  GPIO_InitStruct.Speed = GPIO_SPEED_FREQ_LOW;
 800069a:	2300      	movs	r3, #0
 800069c:	623b      	str	r3, [r7, #32]
	  HAL_GPIO_Init(GPIOC, &GPIO_InitStruct);
 800069e:	f107 0314 	add.w	r3, r7, #20
 80006a2:	4619      	mov	r1, r3
 80006a4:	4813      	ldr	r0, [pc, #76]	; (80006f4 <c12832_hal_gpio_init+0x118>)
 80006a6:	f001 fabb 	bl	8001c20 <HAL_GPIO_Init>

	  /*Configure GPIO pin : DISPLAY_NSEL_Pin */
	  GPIO_InitStruct.Pin = DISPLAY_NSEL_Pin;
 80006aa:	f44f 5380 	mov.w	r3, #4096	; 0x1000
 80006ae:	617b      	str	r3, [r7, #20]
	  GPIO_InitStruct.Mode = GPIO_MODE_OUTPUT_PP;
 80006b0:	2301      	movs	r3, #1
 80006b2:	61bb      	str	r3, [r7, #24]
	  GPIO_InitStruct.Pull = GPIO_NOPULL;
 80006b4:	2300      	movs	r3, #0
 80006b6:	61fb      	str	r3, [r7, #28]
	  GPIO_InitStruct.Speed = GPIO_SPEED_FREQ_LOW;
 80006b8:	2300      	movs	r3, #0
 80006ba:	623b      	str	r3, [r7, #32]
	  HAL_GPIO_Init(DISPLAY_NSEL_GPIO_Port, &GPIO_InitStruct);
 80006bc:	f107 0314 	add.w	r3, r7, #20
 80006c0:	4619      	mov	r1, r3
 80006c2:	480d      	ldr	r0, [pc, #52]	; (80006f8 <c12832_hal_gpio_init+0x11c>)
 80006c4:	f001 faac 	bl	8001c20 <HAL_GPIO_Init>

	  /*Configure GPIO pin : DISPLAY_BACKLIGHT_Pin */
	  GPIO_InitStruct.Pin = DISPLAY_BACKLIGHT_Pin;
 80006c8:	f44f 7380 	mov.w	r3, #256	; 0x100
 80006cc:	617b      	str	r3, [r7, #20]
	  GPIO_InitStruct.Mode = GPIO_MODE_OUTPUT_PP;
 80006ce:	2301      	movs	r3, #1
 80006d0:	61bb      	str	r3, [r7, #24]
	  GPIO_InitStruct.Pull = GPIO_NOPULL;
 80006d2:	2300      	movs	r3, #0
 80006d4:	61fb      	str	r3, [r7, #28]
	  GPIO_InitStruct.Speed = GPIO_SPEED_FREQ_LOW;
 80006d6:	2300      	movs	r3, #0
 80006d8:	623b      	str	r3, [r7, #32]
	  HAL_GPIO_Init(DISPLAY_BACKLIGHT_GPIO_Port, &GPIO_InitStruct);
 80006da:	f107 0314 	add.w	r3, r7, #20
 80006de:	4619      	mov	r1, r3
 80006e0:	f04f 4090 	mov.w	r0, #1207959552	; 0x48000000
 80006e4:	f001 fa9c 	bl	8001c20 <HAL_GPIO_Init>



}
 80006e8:	bf00      	nop
 80006ea:	3728      	adds	r7, #40	; 0x28
 80006ec:	46bd      	mov	sp, r7
 80006ee:	bd80      	pop	{r7, pc}
 80006f0:	40021000 	.word	0x40021000
 80006f4:	48000800 	.word	0x48000800
 80006f8:	48000400 	.word	0x48000400

080006fc <c12832_hal_spi_write_read>:


int c12832_hal_spi_write_read (uint8_t *tx_data, uint8_t *rx_data, uint16_t lenght) {
 80006fc:	b580      	push	{r7, lr}
 80006fe:	b084      	sub	sp, #16
 8000700:	af00      	add	r7, sp, #0
 8000702:	60f8      	str	r0, [r7, #12]
 8000704:	60b9      	str	r1, [r7, #8]
 8000706:	4613      	mov	r3, r2
 8000708:	80fb      	strh	r3, [r7, #6]

	HAL_SPI_Transmit (&hspi2, tx_data, 1, 200);
 800070a:	23c8      	movs	r3, #200	; 0xc8
 800070c:	2201      	movs	r2, #1
 800070e:	68f9      	ldr	r1, [r7, #12]
 8000710:	4803      	ldr	r0, [pc, #12]	; (8000720 <c12832_hal_spi_write_read+0x24>)
 8000712:	f003 fd35 	bl	8004180 <HAL_SPI_Transmit>
		//DEBUG_MESSAGE_AND_EXIT_FAILURE

	return EXIT_SUCCESS;
 8000716:	2300      	movs	r3, #0

}
 8000718:	4618      	mov	r0, r3
 800071a:	3710      	adds	r7, #16
 800071c:	46bd      	mov	sp, r7
 800071e:	bd80      	pop	{r7, pc}
 8000720:	20007f20 	.word	0x20007f20

08000724 <graphic_lcd_clear_screen>:

#include "graphic_lcd.h"
#include "st7565r.h"
#include "font.h"

int graphic_lcd_clear_screen(void) {
 8000724:	b580      	push	{r7, lr}
 8000726:	b082      	sub	sp, #8
 8000728:	af00      	add	r7, sp, #0
	
	int i, j;
	
	for (i=0; i<LINE_COUNT; i++) {
 800072a:	2300      	movs	r3, #0
 800072c:	607b      	str	r3, [r7, #4]
 800072e:	e019      	b.n	8000764 <graphic_lcd_clear_screen+0x40>
		st7565r_set_page_address(i);
 8000730:	687b      	ldr	r3, [r7, #4]
 8000732:	b2db      	uxtb	r3, r3
 8000734:	4618      	mov	r0, r3
 8000736:	f000 f8ed 	bl	8000914 <st7565r_set_page_address>
		st7565r_set_column_address(0);
 800073a:	2000      	movs	r0, #0
 800073c:	f000 f8fe 	bl	800093c <st7565r_set_column_address>
		st7565r_set_display_start_line_address(0);
 8000740:	2000      	movs	r0, #0
 8000742:	f000 f918 	bl	8000976 <st7565r_set_display_start_line_address>
		for (j=0; j<LINE_PIXEL_LENGHT + FONT_SIZE; j++)
 8000746:	2300      	movs	r3, #0
 8000748:	603b      	str	r3, [r7, #0]
 800074a:	e005      	b.n	8000758 <graphic_lcd_clear_screen+0x34>
			st7565r_write_data(0);
 800074c:	2000      	movs	r0, #0
 800074e:	f000 f8a1 	bl	8000894 <st7565r_write_data>
		for (j=0; j<LINE_PIXEL_LENGHT + FONT_SIZE; j++)
 8000752:	683b      	ldr	r3, [r7, #0]
 8000754:	3301      	adds	r3, #1
 8000756:	603b      	str	r3, [r7, #0]
 8000758:	683b      	ldr	r3, [r7, #0]
 800075a:	2b84      	cmp	r3, #132	; 0x84
 800075c:	ddf6      	ble.n	800074c <graphic_lcd_clear_screen+0x28>
	for (i=0; i<LINE_COUNT; i++) {
 800075e:	687b      	ldr	r3, [r7, #4]
 8000760:	3301      	adds	r3, #1
 8000762:	607b      	str	r3, [r7, #4]
 8000764:	687b      	ldr	r3, [r7, #4]
 8000766:	2b03      	cmp	r3, #3
 8000768:	dde2      	ble.n	8000730 <graphic_lcd_clear_screen+0xc>
	}
	
	return EXIT_SUCCESS;
 800076a:	2300      	movs	r3, #0
}
 800076c:	4618      	mov	r0, r3
 800076e:	3708      	adds	r7, #8
 8000770:	46bd      	mov	sp, r7
 8000772:	bd80      	pop	{r7, pc}

08000774 <graphic_lcd_write>:

int graphic_lcd_write(int line, int offset, char *text) {
 8000774:	b580      	push	{r7, lr}
 8000776:	b086      	sub	sp, #24
 8000778:	af00      	add	r7, sp, #0
 800077a:	60f8      	str	r0, [r7, #12]
 800077c:	60b9      	str	r1, [r7, #8]
 800077e:	607a      	str	r2, [r7, #4]

	int i, j;
	
	st7565r_set_page_address(line);
 8000780:	68fb      	ldr	r3, [r7, #12]
 8000782:	b2db      	uxtb	r3, r3
 8000784:	4618      	mov	r0, r3
 8000786:	f000 f8c5 	bl	8000914 <st7565r_set_page_address>
	st7565r_set_column_address(offset + FONT_SIZE);
 800078a:	68bb      	ldr	r3, [r7, #8]
 800078c:	b2db      	uxtb	r3, r3
 800078e:	3305      	adds	r3, #5
 8000790:	b2db      	uxtb	r3, r3
 8000792:	4618      	mov	r0, r3
 8000794:	f000 f8d2 	bl	800093c <st7565r_set_column_address>
	
	for (i=0; i<strlen(text); i++) {
 8000798:	2300      	movs	r3, #0
 800079a:	617b      	str	r3, [r7, #20]
 800079c:	e01e      	b.n	80007dc <graphic_lcd_write+0x68>
	
		for (j=0; j<FONT_SIZE; j++) {
 800079e:	2300      	movs	r3, #0
 80007a0:	613b      	str	r3, [r7, #16]
 80007a2:	e012      	b.n	80007ca <graphic_lcd_write+0x56>
			st7565r_write_data(font_5x8_table[(((text[i] - ASCII_FONT_FIRST) * FONT_SIZE) + j)]);
 80007a4:	697b      	ldr	r3, [r7, #20]
 80007a6:	687a      	ldr	r2, [r7, #4]
 80007a8:	4413      	add	r3, r2
 80007aa:	781b      	ldrb	r3, [r3, #0]
 80007ac:	f1a3 0220 	sub.w	r2, r3, #32
 80007b0:	4613      	mov	r3, r2
 80007b2:	009b      	lsls	r3, r3, #2
 80007b4:	441a      	add	r2, r3
 80007b6:	693b      	ldr	r3, [r7, #16]
 80007b8:	4413      	add	r3, r2
 80007ba:	4a0e      	ldr	r2, [pc, #56]	; (80007f4 <graphic_lcd_write+0x80>)
 80007bc:	5cd3      	ldrb	r3, [r2, r3]
 80007be:	4618      	mov	r0, r3
 80007c0:	f000 f868 	bl	8000894 <st7565r_write_data>
		for (j=0; j<FONT_SIZE; j++) {
 80007c4:	693b      	ldr	r3, [r7, #16]
 80007c6:	3301      	adds	r3, #1
 80007c8:	613b      	str	r3, [r7, #16]
 80007ca:	693b      	ldr	r3, [r7, #16]
 80007cc:	2b04      	cmp	r3, #4
 80007ce:	dde9      	ble.n	80007a4 <graphic_lcd_write+0x30>
		}
		st7565r_write_data(0);
 80007d0:	2000      	movs	r0, #0
 80007d2:	f000 f85f 	bl	8000894 <st7565r_write_data>
	for (i=0; i<strlen(text); i++) {
 80007d6:	697b      	ldr	r3, [r7, #20]
 80007d8:	3301      	adds	r3, #1
 80007da:	617b      	str	r3, [r7, #20]
 80007dc:	6878      	ldr	r0, [r7, #4]
 80007de:	f7ff fcf7 	bl	80001d0 <strlen>
 80007e2:	4602      	mov	r2, r0
 80007e4:	697b      	ldr	r3, [r7, #20]
 80007e6:	429a      	cmp	r2, r3
 80007e8:	d8d9      	bhi.n	800079e <graphic_lcd_write+0x2a>
	}
		
	return EXIT_SUCCESS;
 80007ea:	2300      	movs	r3, #0
}
 80007ec:	4618      	mov	r0, r3
 80007ee:	3718      	adds	r7, #24
 80007f0:	46bd      	mov	sp, r7
 80007f2:	bd80      	pop	{r7, pc}
 80007f4:	08008184 	.word	0x08008184

080007f8 <graphic_lcd_initialize>:

int graphic_lcd_initialize (void) {
 80007f8:	b580      	push	{r7, lr}
 80007fa:	af00      	add	r7, sp, #0
	
	return st7565r_init ();
 80007fc:	f000 f8fe 	bl	80009fc <st7565r_init>
 8000800:	4603      	mov	r3, r0
	
}
 8000802:	4618      	mov	r0, r3
 8000804:	bd80      	pop	{r7, pc}

08000806 <graphics_lcd_clear_line>:

	return EXIT_SUCCESS;
}
	

int graphics_lcd_clear_line(int line) {
 8000806:	b580      	push	{r7, lr}
 8000808:	b084      	sub	sp, #16
 800080a:	af00      	add	r7, sp, #0
 800080c:	6078      	str	r0, [r7, #4]

	int i, j;

	//for (i=0; i<LINE_COUNT; i++) {
	st7565r_set_page_address(line);
 800080e:	687b      	ldr	r3, [r7, #4]
 8000810:	b2db      	uxtb	r3, r3
 8000812:	4618      	mov	r0, r3
 8000814:	f000 f87e 	bl	8000914 <st7565r_set_page_address>
	st7565r_set_column_address(0);
 8000818:	2000      	movs	r0, #0
 800081a:	f000 f88f 	bl	800093c <st7565r_set_column_address>
	st7565r_set_display_start_line_address(0);
 800081e:	2000      	movs	r0, #0
 8000820:	f000 f8a9 	bl	8000976 <st7565r_set_display_start_line_address>
	for (j=0; j<LINE_PIXEL_LENGHT + FONT_SIZE; j++){
 8000824:	2300      	movs	r3, #0
 8000826:	60fb      	str	r3, [r7, #12]
 8000828:	e005      	b.n	8000836 <graphics_lcd_clear_line+0x30>
		st7565r_write_data(0);
 800082a:	2000      	movs	r0, #0
 800082c:	f000 f832 	bl	8000894 <st7565r_write_data>
	for (j=0; j<LINE_PIXEL_LENGHT + FONT_SIZE; j++){
 8000830:	68fb      	ldr	r3, [r7, #12]
 8000832:	3301      	adds	r3, #1
 8000834:	60fb      	str	r3, [r7, #12]
 8000836:	68fb      	ldr	r3, [r7, #12]
 8000838:	2b84      	cmp	r3, #132	; 0x84
 800083a:	ddf6      	ble.n	800082a <graphics_lcd_clear_line+0x24>
		}
	//}



	return EXIT_SUCCESS;
 800083c:	2300      	movs	r3, #0
}
 800083e:	4618      	mov	r0, r3
 8000840:	3710      	adds	r7, #16
 8000842:	46bd      	mov	sp, r7
 8000844:	bd80      	pop	{r7, pc}
	...

08000848 <st7565r_write_command>:
#include "C12832Port.h"


#define HUNDRED_MILLISECONDS  	(10 / portTICK_PERIOD_MS)

void st7565r_write_command(uint8_t command) {
 8000848:	b580      	push	{r7, lr}
 800084a:	b084      	sub	sp, #16
 800084c:	af00      	add	r7, sp, #0
 800084e:	4603      	mov	r3, r0
 8000850:	71fb      	strb	r3, [r7, #7]
	
		uint8_t tmp;

        DISPLAY_CHIP_SELECT_LOW;
 8000852:	2200      	movs	r2, #0
 8000854:	f44f 5180 	mov.w	r1, #4096	; 0x1000
 8000858:	480c      	ldr	r0, [pc, #48]	; (800088c <st7565r_write_command+0x44>)
 800085a:	f001 fb77 	bl	8001f4c <HAL_GPIO_WritePin>
        DISPLAY_A0_LOW;
 800085e:	2200      	movs	r2, #0
 8000860:	2140      	movs	r1, #64	; 0x40
 8000862:	480b      	ldr	r0, [pc, #44]	; (8000890 <st7565r_write_command+0x48>)
 8000864:	f001 fb72 	bl	8001f4c <HAL_GPIO_WritePin>
        c12832_hal_spi_write_read (&command, &tmp, 1);
 8000868:	f107 010f 	add.w	r1, r7, #15
 800086c:	1dfb      	adds	r3, r7, #7
 800086e:	2201      	movs	r2, #1
 8000870:	4618      	mov	r0, r3
 8000872:	f7ff ff43 	bl	80006fc <c12832_hal_spi_write_read>
        DISPLAY_CHIP_SELECT_HIGH;
 8000876:	2201      	movs	r2, #1
 8000878:	f44f 5180 	mov.w	r1, #4096	; 0x1000
 800087c:	4803      	ldr	r0, [pc, #12]	; (800088c <st7565r_write_command+0x44>)
 800087e:	f001 fb65 	bl	8001f4c <HAL_GPIO_WritePin>
}
 8000882:	bf00      	nop
 8000884:	3710      	adds	r7, #16
 8000886:	46bd      	mov	sp, r7
 8000888:	bd80      	pop	{r7, pc}
 800088a:	bf00      	nop
 800088c:	48000400 	.word	0x48000400
 8000890:	48000800 	.word	0x48000800

08000894 <st7565r_write_data>:

void st7565r_write_data(uint8_t data) {
 8000894:	b580      	push	{r7, lr}
 8000896:	b084      	sub	sp, #16
 8000898:	af00      	add	r7, sp, #0
 800089a:	4603      	mov	r3, r0
 800089c:	71fb      	strb	r3, [r7, #7]
	
		uint8_t tmp;

        DISPLAY_CHIP_SELECT_LOW;
 800089e:	2200      	movs	r2, #0
 80008a0:	f44f 5180 	mov.w	r1, #4096	; 0x1000
 80008a4:	480e      	ldr	r0, [pc, #56]	; (80008e0 <st7565r_write_data+0x4c>)
 80008a6:	f001 fb51 	bl	8001f4c <HAL_GPIO_WritePin>
        DISPLAY_A0_HIGH;
 80008aa:	2201      	movs	r2, #1
 80008ac:	2140      	movs	r1, #64	; 0x40
 80008ae:	480d      	ldr	r0, [pc, #52]	; (80008e4 <st7565r_write_data+0x50>)
 80008b0:	f001 fb4c 	bl	8001f4c <HAL_GPIO_WritePin>
        c12832_hal_spi_write_read (&data, &tmp, 1);
 80008b4:	f107 010f 	add.w	r1, r7, #15
 80008b8:	1dfb      	adds	r3, r7, #7
 80008ba:	2201      	movs	r2, #1
 80008bc:	4618      	mov	r0, r3
 80008be:	f7ff ff1d 	bl	80006fc <c12832_hal_spi_write_read>
        DISPLAY_A0_LOW;
 80008c2:	2200      	movs	r2, #0
 80008c4:	2140      	movs	r1, #64	; 0x40
 80008c6:	4807      	ldr	r0, [pc, #28]	; (80008e4 <st7565r_write_data+0x50>)
 80008c8:	f001 fb40 	bl	8001f4c <HAL_GPIO_WritePin>
        DISPLAY_CHIP_SELECT_HIGH;
 80008cc:	2201      	movs	r2, #1
 80008ce:	f44f 5180 	mov.w	r1, #4096	; 0x1000
 80008d2:	4803      	ldr	r0, [pc, #12]	; (80008e0 <st7565r_write_data+0x4c>)
 80008d4:	f001 fb3a 	bl	8001f4c <HAL_GPIO_WritePin>
}
 80008d8:	bf00      	nop
 80008da:	3710      	adds	r7, #16
 80008dc:	46bd      	mov	sp, r7
 80008de:	bd80      	pop	{r7, pc}
 80008e0:	48000400 	.word	0x48000400
 80008e4:	48000800 	.word	0x48000800

080008e8 <st7565r_hard_reset>:
 *
 * This functions will reset the LCD controller by setting the reset pin low.
 * \note this funtions should not be confused with the \ref st7565r_soft_reset()
 * function, this command will control the RST pin.
 */
void st7565r_hard_reset(void) {
 80008e8:	b580      	push	{r7, lr}
 80008ea:	af00      	add	r7, sp, #0
	
        DISPLAY_RESET_LOW;
 80008ec:	2200      	movs	r2, #0
 80008ee:	2120      	movs	r1, #32
 80008f0:	4807      	ldr	r0, [pc, #28]	; (8000910 <st7565r_hard_reset+0x28>)
 80008f2:	f001 fb2b 	bl	8001f4c <HAL_GPIO_WritePin>
        vTaskDelay (HUNDRED_MILLISECONDS);
 80008f6:	200a      	movs	r0, #10
 80008f8:	f005 fb7c 	bl	8005ff4 <vTaskDelay>
        DISPLAY_RESET_HIGH;
 80008fc:	2201      	movs	r2, #1
 80008fe:	2120      	movs	r1, #32
 8000900:	4803      	ldr	r0, [pc, #12]	; (8000910 <st7565r_hard_reset+0x28>)
 8000902:	f001 fb23 	bl	8001f4c <HAL_GPIO_WritePin>
        vTaskDelay (HUNDRED_MILLISECONDS);
 8000906:	200a      	movs	r0, #10
 8000908:	f005 fb74 	bl	8005ff4 <vTaskDelay>
}
 800090c:	bf00      	nop
 800090e:	bd80      	pop	{r7, pc}
 8000910:	48000800 	.word	0x48000800

08000914 <st7565r_set_page_address>:
 * RAM.
 *
 * \param address the page address
 */
void st7565r_set_page_address(uint8_t address)
{
 8000914:	b580      	push	{r7, lr}
 8000916:	b082      	sub	sp, #8
 8000918:	af00      	add	r7, sp, #0
 800091a:	4603      	mov	r3, r0
 800091c:	71fb      	strb	r3, [r7, #7]
        // Make sure that the address is 4 bits (only 8 pages)
        address &= 0x0F;
 800091e:	79fb      	ldrb	r3, [r7, #7]
 8000920:	f003 030f 	and.w	r3, r3, #15
 8000924:	71fb      	strb	r3, [r7, #7]
        st7565r_write_command(ST7565R_CMD_PAGE_ADDRESS_SET(address));
 8000926:	79fb      	ldrb	r3, [r7, #7]
 8000928:	f063 034f 	orn	r3, r3, #79	; 0x4f
 800092c:	b2db      	uxtb	r3, r3
 800092e:	4618      	mov	r0, r3
 8000930:	f7ff ff8a 	bl	8000848 <st7565r_write_command>
}
 8000934:	bf00      	nop
 8000936:	3708      	adds	r7, #8
 8000938:	46bd      	mov	sp, r7
 800093a:	bd80      	pop	{r7, pc}

0800093c <st7565r_set_column_address>:
 * \brief Set current column in display RAM
 *
 * \param address the column address
 */
void st7565r_set_column_address(uint8_t address)
{
 800093c:	b580      	push	{r7, lr}
 800093e:	b082      	sub	sp, #8
 8000940:	af00      	add	r7, sp, #0
 8000942:	4603      	mov	r3, r0
 8000944:	71fb      	strb	r3, [r7, #7]
        // Make sure the address is 7 bits
        address &= 0x7F;
 8000946:	79fb      	ldrb	r3, [r7, #7]
 8000948:	f003 037f 	and.w	r3, r3, #127	; 0x7f
 800094c:	71fb      	strb	r3, [r7, #7]
        st7565r_write_command(ST7565R_CMD_COLUMN_ADDRESS_SET_MSB(address >> 4));
 800094e:	79fb      	ldrb	r3, [r7, #7]
 8000950:	091b      	lsrs	r3, r3, #4
 8000952:	b2db      	uxtb	r3, r3
 8000954:	f043 0310 	orr.w	r3, r3, #16
 8000958:	b2db      	uxtb	r3, r3
 800095a:	4618      	mov	r0, r3
 800095c:	f7ff ff74 	bl	8000848 <st7565r_write_command>
        st7565r_write_command(ST7565R_CMD_COLUMN_ADDRESS_SET_LSB(address & 0x0F));
 8000960:	79fb      	ldrb	r3, [r7, #7]
 8000962:	f003 030f 	and.w	r3, r3, #15
 8000966:	b2db      	uxtb	r3, r3
 8000968:	4618      	mov	r0, r3
 800096a:	f7ff ff6d 	bl	8000848 <st7565r_write_command>
}
 800096e:	bf00      	nop
 8000970:	3708      	adds	r7, #8
 8000972:	46bd      	mov	sp, r7
 8000974:	bd80      	pop	{r7, pc}

08000976 <st7565r_set_display_start_line_address>:
 * \brief Set the display start draw line address
 *
 * This function will set which line should be the start draw line for the LCD.
 */
void st7565r_set_display_start_line_address(uint8_t address)
{
 8000976:	b580      	push	{r7, lr}
 8000978:	b082      	sub	sp, #8
 800097a:	af00      	add	r7, sp, #0
 800097c:	4603      	mov	r3, r0
 800097e:	71fb      	strb	r3, [r7, #7]
        // Make sure address is 6 bits
        address &= 0x3F;
 8000980:	79fb      	ldrb	r3, [r7, #7]
 8000982:	f003 033f 	and.w	r3, r3, #63	; 0x3f
 8000986:	71fb      	strb	r3, [r7, #7]
        st7565r_write_command(ST7565R_CMD_START_LINE_SET(address));
 8000988:	79fb      	ldrb	r3, [r7, #7]
 800098a:	f043 0340 	orr.w	r3, r3, #64	; 0x40
 800098e:	b2db      	uxtb	r3, r3
 8000990:	4618      	mov	r0, r3
 8000992:	f7ff ff59 	bl	8000848 <st7565r_write_command>
}
 8000996:	bf00      	nop
 8000998:	3708      	adds	r7, #8
 800099a:	46bd      	mov	sp, r7
 800099c:	bd80      	pop	{r7, pc}

0800099e <st7565r_display_on>:
 * \brief Turn the LCD display on
 *
 * This function will turn on the LCD.
 */
void st7565r_display_on(void)
{
 800099e:	b580      	push	{r7, lr}
 80009a0:	af00      	add	r7, sp, #0
        st7565r_write_command(ST7565R_CMD_DISPLAY_ON);
 80009a2:	20af      	movs	r0, #175	; 0xaf
 80009a4:	f7ff ff50 	bl	8000848 <st7565r_write_command>
}
 80009a8:	bf00      	nop
 80009aa:	bd80      	pop	{r7, pc}

080009ac <st7565r_set_contrast>:
 *                 the LCD.
 *
 * \retval contrast the contrast value written to the LCD controller
 */
uint8_t st7565r_set_contrast(uint8_t contrast)
{
 80009ac:	b580      	push	{r7, lr}
 80009ae:	b082      	sub	sp, #8
 80009b0:	af00      	add	r7, sp, #0
 80009b2:	4603      	mov	r3, r0
 80009b4:	71fb      	strb	r3, [r7, #7]
        if (contrast < ST7565R_DISPLAY_CONTRAST_MIN) {
 80009b6:	79fb      	ldrb	r3, [r7, #7]
 80009b8:	2b1d      	cmp	r3, #29
 80009ba:	d801      	bhi.n	80009c0 <st7565r_set_contrast+0x14>
                contrast = ST7565R_DISPLAY_CONTRAST_MIN;
 80009bc:	231e      	movs	r3, #30
 80009be:	71fb      	strb	r3, [r7, #7]
        }
        if (contrast > ST7565R_DISPLAY_CONTRAST_MAX) {
 80009c0:	79fb      	ldrb	r3, [r7, #7]
 80009c2:	2b28      	cmp	r3, #40	; 0x28
 80009c4:	d901      	bls.n	80009ca <st7565r_set_contrast+0x1e>
                contrast = ST7565R_DISPLAY_CONTRAST_MAX;
 80009c6:	2328      	movs	r3, #40	; 0x28
 80009c8:	71fb      	strb	r3, [r7, #7]
        }
        st7565r_write_command(ST7565R_CMD_ELECTRONIC_VOLUME_MODE_SET);
 80009ca:	2081      	movs	r0, #129	; 0x81
 80009cc:	f7ff ff3c 	bl	8000848 <st7565r_write_command>
        st7565r_write_command(ST7565R_CMD_ELECTRONIC_VOLUME(contrast));
 80009d0:	79fb      	ldrb	r3, [r7, #7]
 80009d2:	43db      	mvns	r3, r3
 80009d4:	b2db      	uxtb	r3, r3
 80009d6:	f003 033f 	and.w	r3, r3, #63	; 0x3f
 80009da:	b2db      	uxtb	r3, r3
 80009dc:	4618      	mov	r0, r3
 80009de:	f7ff ff33 	bl	8000848 <st7565r_write_command>
        return contrast;
 80009e2:	79fb      	ldrb	r3, [r7, #7]
}
 80009e4:	4618      	mov	r0, r3
 80009e6:	3708      	adds	r7, #8
 80009e8:	46bd      	mov	sp, r7
 80009ea:	bd80      	pop	{r7, pc}

080009ec <st7565r_display_invert_disable>:
 *
 * This function will disable invert on all pixels on the LCD
 *
 */
void st7565r_display_invert_disable(void)
{
 80009ec:	b580      	push	{r7, lr}
 80009ee:	af00      	add	r7, sp, #0
        st7565r_write_command(ST7565R_CMD_DISPLAY_NORMAL);
 80009f0:	20a6      	movs	r0, #166	; 0xa6
 80009f2:	f7ff ff29 	bl	8000848 <st7565r_write_command>
}
 80009f6:	bf00      	nop
 80009f8:	bd80      	pop	{r7, pc}
	...

080009fc <st7565r_init>:

int st7565r_init(void) {
 80009fc:	b580      	push	{r7, lr}
 80009fe:	af00      	add	r7, sp, #0
	
        // Do a hard reset of the LCD display controller
        st7565r_hard_reset();
 8000a00:	f7ff ff72 	bl	80008e8 <st7565r_hard_reset>

        // Set the A0 pin to the default state (command)
        DISPLAY_A0_LOW;
 8000a04:	2200      	movs	r2, #0
 8000a06:	2140      	movs	r1, #64	; 0x40
 8000a08:	4810      	ldr	r0, [pc, #64]	; (8000a4c <st7565r_init+0x50>)
 8000a0a:	f001 fa9f 	bl	8001f4c <HAL_GPIO_WritePin>

        // The column address
        st7565r_write_command(ST7565R_CMD_ADC_NORMAL);
 8000a0e:	20a0      	movs	r0, #160	; 0xa0
 8000a10:	f7ff ff1a 	bl	8000848 <st7565r_write_command>

        // Non-inverted display
        st7565r_display_invert_disable();
 8000a14:	f7ff ffea 	bl	80009ec <st7565r_display_invert_disable>

        // The common mode scan direction
        st7565r_write_command(ST7565R_CMD_REVERSE_SCAN_DIRECTION);
 8000a18:	20c8      	movs	r0, #200	; 0xc8
 8000a1a:	f7ff ff15 	bl	8000848 <st7565r_write_command>

        // Set the voltage bias ratio to 1/6
        st7565r_write_command(ST7565R_CMD_LCD_BIAS_1_DIV_6_DUTY33);
 8000a1e:	20a2      	movs	r0, #162	; 0xa2
 8000a20:	f7ff ff12 	bl	8000848 <st7565r_write_command>

        // Set booster circuit, voltage regulator and voltage follower all to on
        st7565r_write_command(ST7565R_CMD_POWER_CTRL_ALL_ON);
 8000a24:	202f      	movs	r0, #47	; 0x2f
 8000a26:	f7ff ff0f 	bl	8000848 <st7565r_write_command>

        // Set the booster ratio to 2X,3X,4X
        st7565r_write_command(ST7565R_CMD_BOOSTER_RATIO_SET);
 8000a2a:	20f8      	movs	r0, #248	; 0xf8
 8000a2c:	f7ff ff0c 	bl	8000848 <st7565r_write_command>
        st7565r_write_command(ST7565R_CMD_BOOSTER_RATIO_2X_3X_4X);
 8000a30:	2000      	movs	r0, #0
 8000a32:	f7ff ff09 	bl	8000848 <st7565r_write_command>

        // Set voltage resistor ratio to 1
        st7565r_write_command(ST7565R_CMD_VOLTAGE_RESISTOR_RATIO_1);
 8000a36:	2021      	movs	r0, #33	; 0x21
 8000a38:	f7ff ff06 	bl	8000848 <st7565r_write_command>

        /* Set contrast to min value, no need to check return value as the contrast
        is set to the defined min*/
        st7565r_set_contrast(ST7565R_DISPLAY_CONTRAST_MIN);
 8000a3c:	201e      	movs	r0, #30
 8000a3e:	f7ff ffb5 	bl	80009ac <st7565r_set_contrast>

        // Turn on the display
        st7565r_display_on();
 8000a42:	f7ff ffac 	bl	800099e <st7565r_display_on>
		
		return EXIT_SUCCESS;
 8000a46:	2300      	movs	r3, #0
}
 8000a48:	4618      	mov	r0, r3
 8000a4a:	bd80      	pop	{r7, pc}
 8000a4c:	48000800 	.word	0x48000800

08000a50 <NRF24L01p_ResetConfigValues>:

bool NRF24L01p_drFlag, NRF24L01p_dsFlag, NRF24L01p_mrFlag;



void NRF24L01p_ResetConfigValues(NRF24L01p_RadioConfig_t *_RadioConfig, NRF24L01p_RxPipeConfig_t *_RxPipeConfig){
 8000a50:	b5b0      	push	{r4, r5, r7, lr}
 8000a52:	b084      	sub	sp, #16
 8000a54:	af00      	add	r7, sp, #0
 8000a56:	6078      	str	r0, [r7, #4]
 8000a58:	6039      	str	r1, [r7, #0]
    NRF24L01p_port_Initialize();
 8000a5a:	f000 fe49 	bl	80016f0 <NRF24L01p_port_Initialize>
    //ResetConfigValues(_RadioConfig, _RxPipeConfig);


    NRF24L01p_port_write_Pin_CE(0);
 8000a5e:	2000      	movs	r0, #0
 8000a60:	f000 fe8c 	bl	800177c <NRF24L01p_port_write_Pin_CE>
    NRF24L01p_port_write_Pin_CSN(0);
 8000a64:	2000      	movs	r0, #0
 8000a66:	f000 fe9b 	bl	80017a0 <NRF24L01p_port_write_Pin_CSN>

    NRF24L01p_port_DelayMs(_NRF24L01P_TIMING_PowerOnReset_ms);
 8000a6a:	2064      	movs	r0, #100	; 0x64
 8000a6c:	f000 ff50 	bl	8001910 <NRF24L01p_port_DelayMs>

    NRF24L01p_RadioMode(NRF24L01P_MODE_POWER_DOWN);
 8000a70:	2001      	movs	r0, #1
 8000a72:	f000 f8db 	bl	8000c2c <NRF24L01p_RadioMode>
    NRF24L01p_RadioMode(NRF24L01P_MODE_RX);
 8000a76:	2003      	movs	r0, #3
 8000a78:	f000 f8d8 	bl	8000c2c <NRF24L01p_RadioMode>

    NRF24L01p_clear_data_ready_flag();
 8000a7c:	f000 fce2 	bl	8001444 <NRF24L01p_clear_data_ready_flag>
    NRF24L01p_flush_rx();
 8000a80:	f000 fb49 	bl	8001116 <NRF24L01p_flush_rx>
    NRF24L01p_flush_tx();
 8000a84:	f000 fb32 	bl	80010ec <NRF24L01p_flush_tx>

    uint8_t status_rst_val = 0x70;//reset status
 8000a88:	2370      	movs	r3, #112	; 0x70
 8000a8a:	72fb      	strb	r3, [r7, #11]
    NRF24L01p_write_register_buffer(_NRF24L01P_REG_STATUS, &status_rst_val,1);
 8000a8c:	f107 030b 	add.w	r3, r7, #11
 8000a90:	2201      	movs	r2, #1
 8000a92:	4619      	mov	r1, r3
 8000a94:	2007      	movs	r0, #7
 8000a96:	f000 fac2 	bl	800101e <NRF24L01p_write_register_buffer>
    uint8_t config_rst_val = 0x0b;//reset config
 8000a9a:	230b      	movs	r3, #11
 8000a9c:	72bb      	strb	r3, [r7, #10]
    NRF24L01p_write_register_buffer(_NRF24L01P_REG_CONFIG, &config_rst_val,1);
 8000a9e:	f107 030a 	add.w	r3, r7, #10
 8000aa2:	2201      	movs	r2, #1
 8000aa4:	4619      	mov	r1, r3
 8000aa6:	2000      	movs	r0, #0
 8000aa8:	f000 fab9 	bl	800101e <NRF24L01p_write_register_buffer>


    RadioConfig.DataReadyInterruptEnabled = _RadioConfig->DataReadyInterruptEnabled;
 8000aac:	687b      	ldr	r3, [r7, #4]
 8000aae:	781a      	ldrb	r2, [r3, #0]
 8000ab0:	4b5c      	ldr	r3, [pc, #368]	; (8000c24 <NRF24L01p_ResetConfigValues+0x1d4>)
 8000ab2:	701a      	strb	r2, [r3, #0]
    RadioConfig.DataSentInterruptFlagEnabled = _RadioConfig->DataSentInterruptFlagEnabled;
 8000ab4:	687b      	ldr	r3, [r7, #4]
 8000ab6:	785a      	ldrb	r2, [r3, #1]
 8000ab8:	4b5a      	ldr	r3, [pc, #360]	; (8000c24 <NRF24L01p_ResetConfigValues+0x1d4>)
 8000aba:	705a      	strb	r2, [r3, #1]
    RadioConfig.MaxRetryInterruptFlagEnabled = _RadioConfig->MaxRetryInterruptFlagEnabled;
 8000abc:	687b      	ldr	r3, [r7, #4]
 8000abe:	789a      	ldrb	r2, [r3, #2]
 8000ac0:	4b58      	ldr	r3, [pc, #352]	; (8000c24 <NRF24L01p_ResetConfigValues+0x1d4>)
 8000ac2:	709a      	strb	r2, [r3, #2]
    RadioConfig.Crc = _RadioConfig->Crc;
 8000ac4:	687b      	ldr	r3, [r7, #4]
 8000ac6:	78da      	ldrb	r2, [r3, #3]
 8000ac8:	4b56      	ldr	r3, [pc, #344]	; (8000c24 <NRF24L01p_ResetConfigValues+0x1d4>)
 8000aca:	70da      	strb	r2, [r3, #3]
    RadioConfig.AutoReTransmissionCount = _RadioConfig->AutoReTransmissionCount;
 8000acc:	687b      	ldr	r3, [r7, #4]
 8000ace:	791a      	ldrb	r2, [r3, #4]
 8000ad0:	4b54      	ldr	r3, [pc, #336]	; (8000c24 <NRF24L01p_ResetConfigValues+0x1d4>)
 8000ad2:	711a      	strb	r2, [r3, #4]
    RadioConfig.AutoReTransmitDelayX250us = _RadioConfig->AutoReTransmitDelayX250us;
 8000ad4:	687b      	ldr	r3, [r7, #4]
 8000ad6:	795a      	ldrb	r2, [r3, #5]
 8000ad8:	4b52      	ldr	r3, [pc, #328]	; (8000c24 <NRF24L01p_ResetConfigValues+0x1d4>)
 8000ada:	715a      	strb	r2, [r3, #5]
    RadioConfig.frequencyOffset = _RadioConfig->frequencyOffset;
 8000adc:	687b      	ldr	r3, [r7, #4]
 8000ade:	799a      	ldrb	r2, [r3, #6]
 8000ae0:	4b50      	ldr	r3, [pc, #320]	; (8000c24 <NRF24L01p_ResetConfigValues+0x1d4>)
 8000ae2:	719a      	strb	r2, [r3, #6]
    RadioConfig.datarate = _RadioConfig->datarate;
 8000ae4:	687b      	ldr	r3, [r7, #4]
 8000ae6:	79da      	ldrb	r2, [r3, #7]
 8000ae8:	4b4e      	ldr	r3, [pc, #312]	; (8000c24 <NRF24L01p_ResetConfigValues+0x1d4>)
 8000aea:	71da      	strb	r2, [r3, #7]
    RadioConfig.RfPower = _RadioConfig->RfPower;
 8000aec:	687b      	ldr	r3, [r7, #4]
 8000aee:	7a1a      	ldrb	r2, [r3, #8]
 8000af0:	4b4c      	ldr	r3, [pc, #304]	; (8000c24 <NRF24L01p_ResetConfigValues+0x1d4>)
 8000af2:	721a      	strb	r2, [r3, #8]
    RadioConfig.PllLock = _RadioConfig->PllLock;
 8000af4:	687b      	ldr	r3, [r7, #4]
 8000af6:	7a5a      	ldrb	r2, [r3, #9]
 8000af8:	4b4a      	ldr	r3, [pc, #296]	; (8000c24 <NRF24L01p_ResetConfigValues+0x1d4>)
 8000afa:	725a      	strb	r2, [r3, #9]
    RadioConfig.ContWaveEnabled = _RadioConfig->ContWaveEnabled;
 8000afc:	687b      	ldr	r3, [r7, #4]
 8000afe:	7a9a      	ldrb	r2, [r3, #10]
 8000b00:	4b48      	ldr	r3, [pc, #288]	; (8000c24 <NRF24L01p_ResetConfigValues+0x1d4>)
 8000b02:	729a      	strb	r2, [r3, #10]
    RadioConfig.FeatureDynamicPayloadEnabled = _RadioConfig->FeatureDynamicPayloadEnabled;
 8000b04:	687b      	ldr	r3, [r7, #4]
 8000b06:	7ada      	ldrb	r2, [r3, #11]
 8000b08:	4b46      	ldr	r3, [pc, #280]	; (8000c24 <NRF24L01p_ResetConfigValues+0x1d4>)
 8000b0a:	72da      	strb	r2, [r3, #11]
    RadioConfig.FeaturePayloadWithAckEnabled = _RadioConfig->FeaturePayloadWithAckEnabled;
 8000b0c:	687b      	ldr	r3, [r7, #4]
 8000b0e:	7b1a      	ldrb	r2, [r3, #12]
 8000b10:	4b44      	ldr	r3, [pc, #272]	; (8000c24 <NRF24L01p_ResetConfigValues+0x1d4>)
 8000b12:	731a      	strb	r2, [r3, #12]
    RadioConfig.FeatureDynamicPayloadWithNoAckEnabled = _RadioConfig->FeatureDynamicPayloadWithNoAckEnabled;
 8000b14:	687b      	ldr	r3, [r7, #4]
 8000b16:	7b5a      	ldrb	r2, [r3, #13]
 8000b18:	4b42      	ldr	r3, [pc, #264]	; (8000c24 <NRF24L01p_ResetConfigValues+0x1d4>)
 8000b1a:	735a      	strb	r2, [r3, #13]

	int i;
    for(i=0;i<6;i++){
 8000b1c:	2300      	movs	r3, #0
 8000b1e:	60fb      	str	r3, [r7, #12]
 8000b20:	e019      	b.n	8000b56 <NRF24L01p_ResetConfigValues+0x106>
        RxPipeConfig[i] = _RxPipeConfig[i];
 8000b22:	68fa      	ldr	r2, [r7, #12]
 8000b24:	4613      	mov	r3, r2
 8000b26:	005b      	lsls	r3, r3, #1
 8000b28:	4413      	add	r3, r2
 8000b2a:	00db      	lsls	r3, r3, #3
 8000b2c:	461a      	mov	r2, r3
 8000b2e:	683b      	ldr	r3, [r7, #0]
 8000b30:	1898      	adds	r0, r3, r2
 8000b32:	493d      	ldr	r1, [pc, #244]	; (8000c28 <NRF24L01p_ResetConfigValues+0x1d8>)
 8000b34:	68fa      	ldr	r2, [r7, #12]
 8000b36:	4613      	mov	r3, r2
 8000b38:	005b      	lsls	r3, r3, #1
 8000b3a:	4413      	add	r3, r2
 8000b3c:	00db      	lsls	r3, r3, #3
 8000b3e:	440b      	add	r3, r1
 8000b40:	461c      	mov	r4, r3
 8000b42:	4605      	mov	r5, r0
 8000b44:	cd0f      	ldmia	r5!, {r0, r1, r2, r3}
 8000b46:	c40f      	stmia	r4!, {r0, r1, r2, r3}
 8000b48:	e895 0003 	ldmia.w	r5, {r0, r1}
 8000b4c:	e884 0003 	stmia.w	r4, {r0, r1}
    for(i=0;i<6;i++){
 8000b50:	68fb      	ldr	r3, [r7, #12]
 8000b52:	3301      	adds	r3, #1
 8000b54:	60fb      	str	r3, [r7, #12]
 8000b56:	68fb      	ldr	r3, [r7, #12]
 8000b58:	2b05      	cmp	r3, #5
 8000b5a:	dde2      	ble.n	8000b22 <NRF24L01p_ResetConfigValues+0xd2>
    }


    NRF24L01p_enable_dynamic_payload(RadioConfig.FeatureDynamicPayloadEnabled);
 8000b5c:	4b31      	ldr	r3, [pc, #196]	; (8000c24 <NRF24L01p_ResetConfigValues+0x1d4>)
 8000b5e:	7adb      	ldrb	r3, [r3, #11]
 8000b60:	4618      	mov	r0, r3
 8000b62:	f000 fd5c 	bl	800161e <NRF24L01p_enable_dynamic_payload>
    NRF24L01p_enable_payload_with_ack(RadioConfig.FeaturePayloadWithAckEnabled);
 8000b66:	4b2f      	ldr	r3, [pc, #188]	; (8000c24 <NRF24L01p_ResetConfigValues+0x1d4>)
 8000b68:	7b1b      	ldrb	r3, [r3, #12]
 8000b6a:	4618      	mov	r0, r3
 8000b6c:	f000 fd7a 	bl	8001664 <NRF24L01p_enable_payload_with_ack>
    NRF24L01p_enable_dynamic_payload_with_no_ack(RadioConfig.FeatureDynamicPayloadWithNoAckEnabled);
 8000b70:	4b2c      	ldr	r3, [pc, #176]	; (8000c24 <NRF24L01p_ResetConfigValues+0x1d4>)
 8000b72:	7b5b      	ldrb	r3, [r3, #13]
 8000b74:	4618      	mov	r0, r3
 8000b76:	f000 fd98 	bl	80016aa <NRF24L01p_enable_dynamic_payload_with_no_ack>
    NRF24L01p_set_auto_retransmission_count(RadioConfig.AutoReTransmissionCount);
 8000b7a:	4b2a      	ldr	r3, [pc, #168]	; (8000c24 <NRF24L01p_ResetConfigValues+0x1d4>)
 8000b7c:	791b      	ldrb	r3, [r3, #4]
 8000b7e:	4618      	mov	r0, r3
 8000b80:	f000 fbdf 	bl	8001342 <NRF24L01p_set_auto_retransmission_count>
    NRF24L01p_set_auto_retransmission_delay(RadioConfig.AutoReTransmitDelayX250us);
 8000b84:	4b27      	ldr	r3, [pc, #156]	; (8000c24 <NRF24L01p_ResetConfigValues+0x1d4>)
 8000b86:	795b      	ldrb	r3, [r3, #5]
 8000b88:	4618      	mov	r0, r3
 8000b8a:	f000 fbf5 	bl	8001378 <NRF24L01p_set_auto_retransmission_delay>
    NRF24L01p_set_DataRate(RadioConfig.datarate);
 8000b8e:	4b25      	ldr	r3, [pc, #148]	; (8000c24 <NRF24L01p_ResetConfigValues+0x1d4>)
 8000b90:	79db      	ldrb	r3, [r3, #7]
 8000b92:	4618      	mov	r0, r3
 8000b94:	f000 fc0f 	bl	80013b6 <NRF24L01p_set_DataRate>

    for(i=0;i<6;i++){
 8000b98:	2300      	movs	r3, #0
 8000b9a:	60fb      	str	r3, [r7, #12]
 8000b9c:	e03a      	b.n	8000c14 <NRF24L01p_ResetConfigValues+0x1c4>
    	NRF24L01p_enable_rx_on_pipe((NRF24L01p_pipe_t)i,RxPipeConfig[i].PipeEnabled );
 8000b9e:	68fb      	ldr	r3, [r7, #12]
 8000ba0:	b2d8      	uxtb	r0, r3
 8000ba2:	4921      	ldr	r1, [pc, #132]	; (8000c28 <NRF24L01p_ResetConfigValues+0x1d8>)
 8000ba4:	68fa      	ldr	r2, [r7, #12]
 8000ba6:	4613      	mov	r3, r2
 8000ba8:	005b      	lsls	r3, r3, #1
 8000baa:	4413      	add	r3, r2
 8000bac:	00db      	lsls	r3, r3, #3
 8000bae:	440b      	add	r3, r1
 8000bb0:	781b      	ldrb	r3, [r3, #0]
 8000bb2:	4619      	mov	r1, r3
 8000bb4:	f000 fb8b 	bl	80012ce <NRF24L01p_enable_rx_on_pipe>
    	NRF24L01p_enable_auto_ack((NRF24L01p_pipe_t)i,RxPipeConfig[i].autoAckEnabled );
 8000bb8:	68fb      	ldr	r3, [r7, #12]
 8000bba:	b2d8      	uxtb	r0, r3
 8000bbc:	491a      	ldr	r1, [pc, #104]	; (8000c28 <NRF24L01p_ResetConfigValues+0x1d8>)
 8000bbe:	68fa      	ldr	r2, [r7, #12]
 8000bc0:	4613      	mov	r3, r2
 8000bc2:	005b      	lsls	r3, r3, #1
 8000bc4:	4413      	add	r3, r2
 8000bc6:	00db      	lsls	r3, r3, #3
 8000bc8:	440b      	add	r3, r1
 8000bca:	3301      	adds	r3, #1
 8000bcc:	781b      	ldrb	r3, [r3, #0]
 8000bce:	4619      	mov	r1, r3
 8000bd0:	f000 fb43 	bl	800125a <NRF24L01p_enable_auto_ack>
    	NRF24L01p_enable_dynamic_payload_pipe((NRF24L01p_pipe_t)i,RxPipeConfig[i].dynamicPayloadEnabled);
 8000bd4:	68fb      	ldr	r3, [r7, #12]
 8000bd6:	b2d8      	uxtb	r0, r3
 8000bd8:	4913      	ldr	r1, [pc, #76]	; (8000c28 <NRF24L01p_ResetConfigValues+0x1d8>)
 8000bda:	68fa      	ldr	r2, [r7, #12]
 8000bdc:	4613      	mov	r3, r2
 8000bde:	005b      	lsls	r3, r3, #1
 8000be0:	4413      	add	r3, r2
 8000be2:	00db      	lsls	r3, r3, #3
 8000be4:	440b      	add	r3, r1
 8000be6:	3311      	adds	r3, #17
 8000be8:	781b      	ldrb	r3, [r3, #0]
 8000bea:	4619      	mov	r1, r3
 8000bec:	f000 fce3 	bl	80015b6 <NRF24L01p_enable_dynamic_payload_pipe>
    	NRF24L01p_set_RX_pipe_address((NRF24L01p_pipe_t)i,RxPipeConfig[i].address);
 8000bf0:	68fb      	ldr	r3, [r7, #12]
 8000bf2:	b2d8      	uxtb	r0, r3
 8000bf4:	490c      	ldr	r1, [pc, #48]	; (8000c28 <NRF24L01p_ResetConfigValues+0x1d8>)
 8000bf6:	68fa      	ldr	r2, [r7, #12]
 8000bf8:	4613      	mov	r3, r2
 8000bfa:	005b      	lsls	r3, r3, #1
 8000bfc:	4413      	add	r3, r2
 8000bfe:	00db      	lsls	r3, r3, #3
 8000c00:	440b      	add	r3, r1
 8000c02:	3308      	adds	r3, #8
 8000c04:	cb18      	ldmia	r3, {r3, r4}
 8000c06:	461a      	mov	r2, r3
 8000c08:	4623      	mov	r3, r4
 8000c0a:	f000 fc35 	bl	8001478 <NRF24L01p_set_RX_pipe_address>
    for(i=0;i<6;i++){
 8000c0e:	68fb      	ldr	r3, [r7, #12]
 8000c10:	3301      	adds	r3, #1
 8000c12:	60fb      	str	r3, [r7, #12]
 8000c14:	68fb      	ldr	r3, [r7, #12]
 8000c16:	2b05      	cmp	r3, #5
 8000c18:	ddc1      	ble.n	8000b9e <NRF24L01p_ResetConfigValues+0x14e>
    }
}
 8000c1a:	bf00      	nop
 8000c1c:	3710      	adds	r7, #16
 8000c1e:	46bd      	mov	sp, r7
 8000c20:	bdb0      	pop	{r4, r5, r7, pc}
 8000c22:	bf00      	nop
 8000c24:	20007f8c 	.word	0x20007f8c
 8000c28:	20007fb0 	.word	0x20007fb0

08000c2c <NRF24L01p_RadioMode>:

void NRF24L01p_RadioMode(NRF24L01p_RadioState_t mode){
 8000c2c:	b580      	push	{r7, lr}
 8000c2e:	b082      	sub	sp, #8
 8000c30:	af00      	add	r7, sp, #0
 8000c32:	4603      	mov	r3, r0
 8000c34:	71fb      	strb	r3, [r7, #7]
    switch(mode){
 8000c36:	79fb      	ldrb	r3, [r7, #7]
 8000c38:	3b01      	subs	r3, #1
 8000c3a:	2b03      	cmp	r3, #3
 8000c3c:	d84e      	bhi.n	8000cdc <NRF24L01p_RadioMode+0xb0>
 8000c3e:	a201      	add	r2, pc, #4	; (adr r2, 8000c44 <NRF24L01p_RadioMode+0x18>)
 8000c40:	f852 f023 	ldr.w	pc, [r2, r3, lsl #2]
 8000c44:	08000c55 	.word	0x08000c55
 8000c48:	08000c67 	.word	0x08000c67
 8000c4c:	08000c8b 	.word	0x08000c8b
 8000c50:	08000cb1 	.word	0x08000cb1
        case NRF24L01P_MODE_POWER_DOWN: {
        	NRF24L01p_power_down();
 8000c54:	f000 fad4 	bl	8001200 <NRF24L01p_power_down>
            NRF24L01p_port_write_Pin_CE(0);
 8000c58:	2000      	movs	r0, #0
 8000c5a:	f000 fd8f 	bl	800177c <NRF24L01p_port_write_Pin_CE>
            RadioState = NRF24L01P_MODE_POWER_DOWN;
 8000c5e:	4b21      	ldr	r3, [pc, #132]	; (8000ce4 <NRF24L01p_RadioMode+0xb8>)
 8000c60:	2201      	movs	r2, #1
 8000c62:	701a      	strb	r2, [r3, #0]
            break;
 8000c64:	e03a      	b.n	8000cdc <NRF24L01p_RadioMode+0xb0>
        }
        case NRF24L01P_MODE_STANDBY: {
            if(RadioState == NRF24L01P_MODE_POWER_DOWN){
 8000c66:	4b1f      	ldr	r3, [pc, #124]	; (8000ce4 <NRF24L01p_RadioMode+0xb8>)
 8000c68:	781b      	ldrb	r3, [r3, #0]
 8000c6a:	2b01      	cmp	r3, #1
 8000c6c:	d106      	bne.n	8000c7c <NRF24L01p_RadioMode+0x50>
            	NRF24L01p_power_up();
 8000c6e:	f000 fab8 	bl	80011e2 <NRF24L01p_power_up>
                    NRF24L01p_port_DelayUs(_NRF24L01P_TIMING_Tpd2stby_us);
 8000c72:	f241 1094 	movw	r0, #4500	; 0x1194
 8000c76:	f000 fe57 	bl	8001928 <NRF24L01p_port_DelayUs>
 8000c7a:	e002      	b.n	8000c82 <NRF24L01p_RadioMode+0x56>
            }
            else{
                    NRF24L01p_port_write_Pin_CE(0);
 8000c7c:	2000      	movs	r0, #0
 8000c7e:	f000 fd7d 	bl	800177c <NRF24L01p_port_write_Pin_CE>
            }
            RadioState = NRF24L01P_MODE_STANDBY;
 8000c82:	4b18      	ldr	r3, [pc, #96]	; (8000ce4 <NRF24L01p_RadioMode+0xb8>)
 8000c84:	2202      	movs	r2, #2
 8000c86:	701a      	strb	r2, [r3, #0]
            break;
 8000c88:	e028      	b.n	8000cdc <NRF24L01p_RadioMode+0xb0>
        }
        case NRF24L01P_MODE_RX: {
            if(RadioState != NRF24L01P_MODE_RX){
 8000c8a:	4b16      	ldr	r3, [pc, #88]	; (8000ce4 <NRF24L01p_RadioMode+0xb8>)
 8000c8c:	781b      	ldrb	r3, [r3, #0]
 8000c8e:	2b03      	cmp	r3, #3
 8000c90:	d021      	beq.n	8000cd6 <NRF24L01p_RadioMode+0xaa>
                NRF24L01p_port_write_Pin_CE(0);
 8000c92:	2000      	movs	r0, #0
 8000c94:	f000 fd72 	bl	800177c <NRF24L01p_port_write_Pin_CE>
                NRF24L01p_rx_mode();
 8000c98:	f000 fac1 	bl	800121e <NRF24L01p_rx_mode>
                NRF24L01p_port_write_Pin_CE(1);
 8000c9c:	2001      	movs	r0, #1
 8000c9e:	f000 fd6d 	bl	800177c <NRF24L01p_port_write_Pin_CE>
                NRF24L01p_port_DelayUs(_NRF24L01P_TIMING_Tstby2a_us);
 8000ca2:	2082      	movs	r0, #130	; 0x82
 8000ca4:	f000 fe40 	bl	8001928 <NRF24L01p_port_DelayUs>
                RadioState = NRF24L01P_MODE_RX;
 8000ca8:	4b0e      	ldr	r3, [pc, #56]	; (8000ce4 <NRF24L01p_RadioMode+0xb8>)
 8000caa:	2203      	movs	r2, #3
 8000cac:	701a      	strb	r2, [r3, #0]
            }
            break;
 8000cae:	e012      	b.n	8000cd6 <NRF24L01p_RadioMode+0xaa>
        }
        case NRF24L01P_MODE_TX: {
            if(RadioState != NRF24L01P_MODE_TX){
 8000cb0:	4b0c      	ldr	r3, [pc, #48]	; (8000ce4 <NRF24L01p_RadioMode+0xb8>)
 8000cb2:	781b      	ldrb	r3, [r3, #0]
 8000cb4:	2b04      	cmp	r3, #4
 8000cb6:	d010      	beq.n	8000cda <NRF24L01p_RadioMode+0xae>
                NRF24L01p_port_write_Pin_CE(0);
 8000cb8:	2000      	movs	r0, #0
 8000cba:	f000 fd5f 	bl	800177c <NRF24L01p_port_write_Pin_CE>
                NRF24L01p_tx_mode();
 8000cbe:	f000 fabd 	bl	800123c <NRF24L01p_tx_mode>
                NRF24L01p_port_write_Pin_CE(1);
 8000cc2:	2001      	movs	r0, #1
 8000cc4:	f000 fd5a 	bl	800177c <NRF24L01p_port_write_Pin_CE>
                NRF24L01p_port_DelayUs(_NRF24L01P_TIMING_Tstby2a_us);
 8000cc8:	2082      	movs	r0, #130	; 0x82
 8000cca:	f000 fe2d 	bl	8001928 <NRF24L01p_port_DelayUs>
                RadioState = NRF24L01P_MODE_TX;
 8000cce:	4b05      	ldr	r3, [pc, #20]	; (8000ce4 <NRF24L01p_RadioMode+0xb8>)
 8000cd0:	2204      	movs	r2, #4
 8000cd2:	701a      	strb	r2, [r3, #0]
            }
            break;
 8000cd4:	e001      	b.n	8000cda <NRF24L01p_RadioMode+0xae>
            break;
 8000cd6:	bf00      	nop
 8000cd8:	e000      	b.n	8000cdc <NRF24L01p_RadioMode+0xb0>
            break;
 8000cda:	bf00      	nop
        }
    }
}
 8000cdc:	bf00      	nop
 8000cde:	3708      	adds	r7, #8
 8000ce0:	46bd      	mov	sp, r7
 8000ce2:	bd80      	pop	{r7, pc}
 8000ce4:	20007f88 	.word	0x20007f88

08000ce8 <NRF24L01p_readable>:


bool NRF24L01p_readable(){
 8000ce8:	b580      	push	{r7, lr}
 8000cea:	af00      	add	r7, sp, #0
    //return (NRF24L01p_get_data_ready_flag() || !NRF24L01p_get_fifo_flag_rx_empty())&& (NRF24L01p_get_rx_payload_pipe() != 7)  ;
	return (!NRF24L01p_get_fifo_flag_rx_empty()) ;
 8000cec:	f000 fc54 	bl	8001598 <NRF24L01p_get_fifo_flag_rx_empty>
 8000cf0:	4603      	mov	r3, r0
 8000cf2:	2b00      	cmp	r3, #0
 8000cf4:	bf14      	ite	ne
 8000cf6:	2301      	movne	r3, #1
 8000cf8:	2300      	moveq	r3, #0
 8000cfa:	b2db      	uxtb	r3, r3
 8000cfc:	f083 0301 	eor.w	r3, r3, #1
 8000d00:	b2db      	uxtb	r3, r3
 8000d02:	f003 0301 	and.w	r3, r3, #1
 8000d06:	b2db      	uxtb	r3, r3

}
 8000d08:	4618      	mov	r0, r3
 8000d0a:	bd80      	pop	{r7, pc}

08000d0c <NRF24L01p_writePayload>:
bool NRF24L01p_readableOnPipe(NRF24L01p_pipe_t pipe){

}


NRF24L01p_ErrorStatus_t NRF24L01p_writePayload(NRF24L01p_Payload_t *payload){
 8000d0c:	b590      	push	{r4, r7, lr}
 8000d0e:	b085      	sub	sp, #20
 8000d10:	af00      	add	r7, sp, #0
 8000d12:	6078      	str	r0, [r7, #4]
	NRF24L01p_ErrorStatus_t error;
	NRF24L01p_set_TX_pipe_address(payload->address);
 8000d14:	687b      	ldr	r3, [r7, #4]
 8000d16:	cb18      	ldmia	r3, {r3, r4}
 8000d18:	4618      	mov	r0, r3
 8000d1a:	4621      	mov	r1, r4
 8000d1c:	f000 fbf4 	bl	8001508 <NRF24L01p_set_TX_pipe_address>
    if(payload->UseAck == 1){
 8000d20:	687b      	ldr	r3, [r7, #4]
 8000d22:	7d5b      	ldrb	r3, [r3, #21]
 8000d24:	2b00      	cmp	r3, #0
 8000d26:	d00a      	beq.n	8000d3e <NRF24L01p_writePayload+0x32>
    	NRF24L01p_write_tx_payload(payload->data,payload->length);
 8000d28:	687b      	ldr	r3, [r7, #4]
 8000d2a:	68da      	ldr	r2, [r3, #12]
 8000d2c:	687b      	ldr	r3, [r7, #4]
 8000d2e:	691b      	ldr	r3, [r3, #16]
 8000d30:	4619      	mov	r1, r3
 8000d32:	4610      	mov	r0, r2
 8000d34:	f000 f9bb 	bl	80010ae <NRF24L01p_write_tx_payload>
    	error = NRF24L01P_SUCCESS;
 8000d38:	2301      	movs	r3, #1
 8000d3a:	73fb      	strb	r3, [r7, #15]
 8000d3c:	e010      	b.n	8000d60 <NRF24L01p_writePayload+0x54>
    }else{
        if(RadioConfig.FeatureDynamicPayloadWithNoAckEnabled == 1){
 8000d3e:	4b0b      	ldr	r3, [pc, #44]	; (8000d6c <NRF24L01p_writePayload+0x60>)
 8000d40:	7b5b      	ldrb	r3, [r3, #13]
 8000d42:	2b00      	cmp	r3, #0
 8000d44:	d00a      	beq.n	8000d5c <NRF24L01p_writePayload+0x50>
        	NRF24L01p_write_tx_payload_noack(payload->data,payload->length);
 8000d46:	687b      	ldr	r3, [r7, #4]
 8000d48:	68da      	ldr	r2, [r3, #12]
 8000d4a:	687b      	ldr	r3, [r7, #4]
 8000d4c:	691b      	ldr	r3, [r3, #16]
 8000d4e:	4619      	mov	r1, r3
 8000d50:	4610      	mov	r0, r2
 8000d52:	f000 fa11 	bl	8001178 <NRF24L01p_write_tx_payload_noack>
        	error = NRF24L01P_SUCCESS;
 8000d56:	2301      	movs	r3, #1
 8000d58:	73fb      	strb	r3, [r7, #15]
 8000d5a:	e001      	b.n	8000d60 <NRF24L01p_writePayload+0x54>
        }
        else{
        	error = NRF24L01P_ERROR;
 8000d5c:	2300      	movs	r3, #0
 8000d5e:	73fb      	strb	r3, [r7, #15]
        }
    }
    return error;
 8000d60:	7bfb      	ldrb	r3, [r7, #15]
}
 8000d62:	4618      	mov	r0, r3
 8000d64:	3714      	adds	r7, #20
 8000d66:	46bd      	mov	sp, r7
 8000d68:	bd90      	pop	{r4, r7, pc}
 8000d6a:	bf00      	nop
 8000d6c:	20007f8c 	.word	0x20007f8c

08000d70 <NRF24L01p_readPayload>:

NRF24L01p_ErrorStatus_t NRF24L01p_writeAckPayload(NRF24L01p_Payload_t *payload){
	NRF24L01p_write_ack_payload(payload->pipe, payload->data, payload->length);
	return NRF24L01P_SUCCESS;
}
NRF24L01p_ErrorStatus_t NRF24L01p_readPayload(NRF24L01p_Payload_t *payload){
 8000d70:	b580      	push	{r7, lr}
 8000d72:	b084      	sub	sp, #16
 8000d74:	af00      	add	r7, sp, #0
 8000d76:	6078      	str	r0, [r7, #4]
    NRF24L01p_ErrorStatus_t error;
    payload->pipe = NRF24L01p_get_rx_payload_pipe();
 8000d78:	f000 fb73 	bl	8001462 <NRF24L01p_get_rx_payload_pipe>
 8000d7c:	4603      	mov	r3, r0
 8000d7e:	461a      	mov	r2, r3
 8000d80:	687b      	ldr	r3, [r7, #4]
 8000d82:	721a      	strb	r2, [r3, #8]

    if(payload->pipe>=0 && payload->pipe<=5){
 8000d84:	687b      	ldr	r3, [r7, #4]
 8000d86:	7a1b      	ldrb	r3, [r3, #8]
 8000d88:	2b05      	cmp	r3, #5
 8000d8a:	d824      	bhi.n	8000dd6 <NRF24L01p_readPayload+0x66>
        if(RadioConfig.FeatureDynamicPayloadEnabled == 1){
 8000d8c:	4b14      	ldr	r3, [pc, #80]	; (8000de0 <NRF24L01p_readPayload+0x70>)
 8000d8e:	7adb      	ldrb	r3, [r3, #11]
 8000d90:	2b00      	cmp	r3, #0
 8000d92:	d006      	beq.n	8000da2 <NRF24L01p_readPayload+0x32>
            payload->length = NRF24L01p_read_rx_payload_width();
 8000d94:	f000 f9d4 	bl	8001140 <NRF24L01p_read_rx_payload_width>
 8000d98:	4603      	mov	r3, r0
 8000d9a:	461a      	mov	r2, r3
 8000d9c:	687b      	ldr	r3, [r7, #4]
 8000d9e:	611a      	str	r2, [r3, #16]
 8000da0:	e008      	b.n	8000db4 <NRF24L01p_readPayload+0x44>
        }else{
            payload->length = NRF24L01p_get_RX_pipe_width(payload->pipe);
 8000da2:	687b      	ldr	r3, [r7, #4]
 8000da4:	7a1b      	ldrb	r3, [r3, #8]
 8000da6:	4618      	mov	r0, r3
 8000da8:	f000 fbe0 	bl	800156c <NRF24L01p_get_RX_pipe_width>
 8000dac:	4603      	mov	r3, r0
 8000dae:	461a      	mov	r2, r3
 8000db0:	687b      	ldr	r3, [r7, #4]
 8000db2:	611a      	str	r2, [r3, #16]
        }


        if(payload->length <= 32){
 8000db4:	687b      	ldr	r3, [r7, #4]
 8000db6:	691b      	ldr	r3, [r3, #16]
 8000db8:	2b20      	cmp	r3, #32
 8000dba:	d80a      	bhi.n	8000dd2 <NRF24L01p_readPayload+0x62>
        	NRF24L01p_read_rx_payload(payload->data,payload->length);
 8000dbc:	687b      	ldr	r3, [r7, #4]
 8000dbe:	68da      	ldr	r2, [r3, #12]
 8000dc0:	687b      	ldr	r3, [r7, #4]
 8000dc2:	691b      	ldr	r3, [r3, #16]
 8000dc4:	4619      	mov	r1, r3
 8000dc6:	4610      	mov	r0, r2
 8000dc8:	f000 f952 	bl	8001070 <NRF24L01p_read_rx_payload>
            error = NRF24L01P_SUCCESS;
 8000dcc:	2301      	movs	r3, #1
 8000dce:	73fb      	strb	r3, [r7, #15]
 8000dd0:	e001      	b.n	8000dd6 <NRF24L01p_readPayload+0x66>
        }
        else{
            error = NRF24L01P_ERROR;
 8000dd2:	2300      	movs	r3, #0
 8000dd4:	73fb      	strb	r3, [r7, #15]
        }

    }
    return error;
 8000dd6:	7bfb      	ldrb	r3, [r7, #15]
}
 8000dd8:	4618      	mov	r0, r3
 8000dda:	3710      	adds	r7, #16
 8000ddc:	46bd      	mov	sp, r7
 8000dde:	bd80      	pop	{r7, pc}
 8000de0:	20007f8c 	.word	0x20007f8c

08000de4 <NRF24L01p_TransmitPayload>:


NRF24L01p_ErrorStatus_t NRF24L01p_TransmitPayload(NRF24L01p_Payload_t *payload){
 8000de4:	b590      	push	{r4, r7, lr}
 8000de6:	b085      	sub	sp, #20
 8000de8:	af00      	add	r7, sp, #0
 8000dea:	6078      	str	r0, [r7, #4]
    NRF24L01p_ErrorStatus_t error;
    NRF24L01p_RadioState_t originalState = RadioState;
 8000dec:	4b4f      	ldr	r3, [pc, #316]	; (8000f2c <NRF24L01p_TransmitPayload+0x148>)
 8000dee:	781b      	ldrb	r3, [r3, #0]
 8000df0:	73bb      	strb	r3, [r7, #14]
    NRF24L01p_RadioMode(NRF24L01P_MODE_STANDBY);
 8000df2:	2002      	movs	r0, #2
 8000df4:	f7ff ff1a 	bl	8000c2c <NRF24L01p_RadioMode>




    if(TxPipeAddress != payload->address){
 8000df8:	687b      	ldr	r3, [r7, #4]
 8000dfa:	e893 0006 	ldmia.w	r3, {r1, r2}
 8000dfe:	4b4c      	ldr	r3, [pc, #304]	; (8000f30 <NRF24L01p_TransmitPayload+0x14c>)
 8000e00:	cb18      	ldmia	r3, {r3, r4}
 8000e02:	42a2      	cmp	r2, r4
 8000e04:	bf08      	it	eq
 8000e06:	4299      	cmpeq	r1, r3
 8000e08:	d00a      	beq.n	8000e20 <NRF24L01p_TransmitPayload+0x3c>
    	NRF24L01p_set_TX_pipe_address(payload->address);
 8000e0a:	687b      	ldr	r3, [r7, #4]
 8000e0c:	cb18      	ldmia	r3, {r3, r4}
 8000e0e:	4618      	mov	r0, r3
 8000e10:	4621      	mov	r1, r4
 8000e12:	f000 fb79 	bl	8001508 <NRF24L01p_set_TX_pipe_address>
	    TxPipeAddress = payload->address;
 8000e16:	687b      	ldr	r3, [r7, #4]
 8000e18:	cb18      	ldmia	r3, {r3, r4}
 8000e1a:	4a45      	ldr	r2, [pc, #276]	; (8000f30 <NRF24L01p_TransmitPayload+0x14c>)
 8000e1c:	e882 0018 	stmia.w	r2, {r3, r4}
    }



    if(payload->UseAck){
 8000e20:	687b      	ldr	r3, [r7, #4]
 8000e22:	7d5b      	ldrb	r3, [r3, #21]
 8000e24:	2b00      	cmp	r3, #0
 8000e26:	d069      	beq.n	8000efc <NRF24L01p_TransmitPayload+0x118>
    	if(RxPipeConfig[PIPE_P0].autoAckEnabled == 0){
 8000e28:	4b42      	ldr	r3, [pc, #264]	; (8000f34 <NRF24L01p_TransmitPayload+0x150>)
 8000e2a:	785b      	ldrb	r3, [r3, #1]
 8000e2c:	f083 0301 	eor.w	r3, r3, #1
 8000e30:	b2db      	uxtb	r3, r3
 8000e32:	2b00      	cmp	r3, #0
 8000e34:	d003      	beq.n	8000e3e <NRF24L01p_TransmitPayload+0x5a>
			NRF24L01p_enable_auto_ack(PIPE_P0, 1);
 8000e36:	2101      	movs	r1, #1
 8000e38:	2000      	movs	r0, #0
 8000e3a:	f000 fa0e 	bl	800125a <NRF24L01p_enable_auto_ack>
		}
		if(RxPipeConfig[PIPE_P0].PipeEnabled == 0){
 8000e3e:	4b3d      	ldr	r3, [pc, #244]	; (8000f34 <NRF24L01p_TransmitPayload+0x150>)
 8000e40:	781b      	ldrb	r3, [r3, #0]
 8000e42:	f083 0301 	eor.w	r3, r3, #1
 8000e46:	b2db      	uxtb	r3, r3
 8000e48:	2b00      	cmp	r3, #0
 8000e4a:	d003      	beq.n	8000e54 <NRF24L01p_TransmitPayload+0x70>
			NRF24L01p_enable_rx_on_pipe(PIPE_P0, 1);
 8000e4c:	2101      	movs	r1, #1
 8000e4e:	2000      	movs	r0, #0
 8000e50:	f000 fa3d 	bl	80012ce <NRF24L01p_enable_rx_on_pipe>
		}
		NRF24L01p_set_RX_pipe_address(PIPE_P0, payload->address);
 8000e54:	687b      	ldr	r3, [r7, #4]
 8000e56:	cb18      	ldmia	r3, {r3, r4}
 8000e58:	461a      	mov	r2, r3
 8000e5a:	4623      	mov	r3, r4
 8000e5c:	2000      	movs	r0, #0
 8000e5e:	f000 fb0b 	bl	8001478 <NRF24L01p_set_RX_pipe_address>


		NRF24L01p_writePayload(payload);
 8000e62:	6878      	ldr	r0, [r7, #4]
 8000e64:	f7ff ff52 	bl	8000d0c <NRF24L01p_writePayload>
		NRF24L01p_clear_data_sent_flag();
 8000e68:	f000 fadd 	bl	8001426 <NRF24L01p_clear_data_sent_flag>
		NRF24L01p_clear_max_retry_flag();
 8000e6c:	f000 fabe 	bl	80013ec <NRF24L01p_clear_max_retry_flag>
		payload->GotAck = 0;
 8000e70:	687b      	ldr	r3, [r7, #4]
 8000e72:	2200      	movs	r2, #0
 8000e74:	f883 2021 	strb.w	r2, [r3, #33]	; 0x21

		while(1){
			NRF24L01p_RadioMode(NRF24L01P_MODE_TX);
 8000e78:	2004      	movs	r0, #4
 8000e7a:	f7ff fed7 	bl	8000c2c <NRF24L01p_RadioMode>
			NRF24L01p_RadioMode(NRF24L01P_MODE_STANDBY);
 8000e7e:	2002      	movs	r0, #2
 8000e80:	f7ff fed4 	bl	8000c2c <NRF24L01p_RadioMode>


			uint8_t status = NRF24L01p_get_status();
 8000e84:	f000 f997 	bl	80011b6 <NRF24L01p_get_status>
 8000e88:	4603      	mov	r3, r0
 8000e8a:	737b      	strb	r3, [r7, #13]


			if( (status & (_NRF24L01P_STATUS_TX_DS))  &&   (status & (_NRF24L01P_STATUS_RX_DR))   ){
 8000e8c:	7b7b      	ldrb	r3, [r7, #13]
 8000e8e:	f003 0320 	and.w	r3, r3, #32
 8000e92:	2b00      	cmp	r3, #0
 8000e94:	d012      	beq.n	8000ebc <NRF24L01p_TransmitPayload+0xd8>
 8000e96:	7b7b      	ldrb	r3, [r7, #13]
 8000e98:	f003 0340 	and.w	r3, r3, #64	; 0x40
 8000e9c:	2b00      	cmp	r3, #0
 8000e9e:	d00d      	beq.n	8000ebc <NRF24L01p_TransmitPayload+0xd8>
					//printf("ACK with PAYLOAD\r\n");
					NRF24L01p_clear_data_sent_flag();
 8000ea0:	f000 fac1 	bl	8001426 <NRF24L01p_clear_data_sent_flag>
					NRF24L01p_clear_data_ready_flag();
 8000ea4:	f000 face 	bl	8001444 <NRF24L01p_clear_data_ready_flag>
					error = NRF24L01P_SUCCESS;
 8000ea8:	2301      	movs	r3, #1
 8000eaa:	73fb      	strb	r3, [r7, #15]
					NRF24L01p_readPayload(payload);
 8000eac:	6878      	ldr	r0, [r7, #4]
 8000eae:	f7ff ff5f 	bl	8000d70 <NRF24L01p_readPayload>
					payload->GotAck = 1;
 8000eb2:	687b      	ldr	r3, [r7, #4]
 8000eb4:	2201      	movs	r2, #1
 8000eb6:	f883 2021 	strb.w	r2, [r3, #33]	; 0x21

					break;
 8000eba:	e02e      	b.n	8000f1a <NRF24L01p_TransmitPayload+0x136>
			}
			else if( (status & (_NRF24L01P_STATUS_TX_DS))  &&   !(status & (_NRF24L01P_STATUS_RX_DR))   ){
 8000ebc:	7b7b      	ldrb	r3, [r7, #13]
 8000ebe:	f003 0320 	and.w	r3, r3, #32
 8000ec2:	2b00      	cmp	r3, #0
 8000ec4:	d010      	beq.n	8000ee8 <NRF24L01p_TransmitPayload+0x104>
 8000ec6:	7b7b      	ldrb	r3, [r7, #13]
 8000ec8:	f003 0340 	and.w	r3, r3, #64	; 0x40
 8000ecc:	2b00      	cmp	r3, #0
 8000ece:	d10b      	bne.n	8000ee8 <NRF24L01p_TransmitPayload+0x104>
				//printf("ACK ONLY\r\n");
				NRF24L01p_clear_data_sent_flag();
 8000ed0:	f000 faa9 	bl	8001426 <NRF24L01p_clear_data_sent_flag>
				error = NRF24L01P_SUCCESS;
 8000ed4:	2301      	movs	r3, #1
 8000ed6:	73fb      	strb	r3, [r7, #15]
				payload->GotAck = 1;
 8000ed8:	687b      	ldr	r3, [r7, #4]
 8000eda:	2201      	movs	r2, #1
 8000edc:	f883 2021 	strb.w	r2, [r3, #33]	; 0x21
				payload->length = 0;
 8000ee0:	687b      	ldr	r3, [r7, #4]
 8000ee2:	2200      	movs	r2, #0
 8000ee4:	611a      	str	r2, [r3, #16]
				break;
 8000ee6:	e018      	b.n	8000f1a <NRF24L01p_TransmitPayload+0x136>
			}

			else if((status & (_NRF24L01P_STATUS_MAX_RT))){
 8000ee8:	7b7b      	ldrb	r3, [r7, #13]
 8000eea:	f003 0310 	and.w	r3, r3, #16
 8000eee:	2b00      	cmp	r3, #0
 8000ef0:	d0c2      	beq.n	8000e78 <NRF24L01p_TransmitPayload+0x94>
				NRF24L01p_clear_max_retry_flag();
 8000ef2:	f000 fa7b 	bl	80013ec <NRF24L01p_clear_max_retry_flag>
				error = NRF24L01P_ERROR;
 8000ef6:	2300      	movs	r3, #0
 8000ef8:	73fb      	strb	r3, [r7, #15]
				break;
 8000efa:	e00e      	b.n	8000f1a <NRF24L01p_TransmitPayload+0x136>
			}
		}
    }else{

		while(1){
			NRF24L01p_RadioMode(NRF24L01P_MODE_TX);
 8000efc:	2004      	movs	r0, #4
 8000efe:	f7ff fe95 	bl	8000c2c <NRF24L01p_RadioMode>
			NRF24L01p_RadioMode(NRF24L01P_MODE_STANDBY);
 8000f02:	2002      	movs	r0, #2
 8000f04:	f7ff fe92 	bl	8000c2c <NRF24L01p_RadioMode>

			if(NRF24L01p_get_data_sent_flag()){
 8000f08:	f000 fa7f 	bl	800140a <NRF24L01p_get_data_sent_flag>
 8000f0c:	4603      	mov	r3, r0
 8000f0e:	2b00      	cmp	r3, #0
 8000f10:	d0f4      	beq.n	8000efc <NRF24L01p_TransmitPayload+0x118>
				NRF24L01p_clear_data_sent_flag();
 8000f12:	f000 fa88 	bl	8001426 <NRF24L01p_clear_data_sent_flag>
				error = NRF24L01P_SUCCESS;
 8000f16:	2301      	movs	r3, #1
 8000f18:	73fb      	strb	r3, [r7, #15]

    }



    NRF24L01p_RadioMode(originalState);
 8000f1a:	7bbb      	ldrb	r3, [r7, #14]
 8000f1c:	4618      	mov	r0, r3
 8000f1e:	f7ff fe85 	bl	8000c2c <NRF24L01p_RadioMode>
    return error;
 8000f22:	7bfb      	ldrb	r3, [r7, #15]


}
 8000f24:	4618      	mov	r0, r3
 8000f26:	3714      	adds	r7, #20
 8000f28:	46bd      	mov	sp, r7
 8000f2a:	bd90      	pop	{r4, r7, pc}
 8000f2c:	20007f88 	.word	0x20007f88
 8000f30:	20007fa0 	.word	0x20007fa0
 8000f34:	20007fb0 	.word	0x20007fb0

08000f38 <NRF24L01p_read_register>:

#include "NRF24L01pDriver.h"



uint8_t NRF24L01p_read_register(uint8_t address){
 8000f38:	b580      	push	{r7, lr}
 8000f3a:	b084      	sub	sp, #16
 8000f3c:	af00      	add	r7, sp, #0
 8000f3e:	4603      	mov	r3, r0
 8000f40:	71fb      	strb	r3, [r7, #7]
    NRF24L01p_port_write_Pin_CSN(0);
 8000f42:	2000      	movs	r0, #0
 8000f44:	f000 fc2c 	bl	80017a0 <NRF24L01p_port_write_Pin_CSN>
    uint8_t temp = address&_NRF24L01P_REG_ADDRESS_MASK;
 8000f48:	79fb      	ldrb	r3, [r7, #7]
 8000f4a:	f003 031f 	and.w	r3, r3, #31
 8000f4e:	b2db      	uxtb	r3, r3
 8000f50:	73fb      	strb	r3, [r7, #15]


    NRF24L01p_port_SPI_Transcieve(&temp, &temp,1);
 8000f52:	f107 010f 	add.w	r1, r7, #15
 8000f56:	f107 030f 	add.w	r3, r7, #15
 8000f5a:	2201      	movs	r2, #1
 8000f5c:	4618      	mov	r0, r3
 8000f5e:	f000 fcbf 	bl	80018e0 <NRF24L01p_port_SPI_Transcieve>
    NRF24L01p_port_SPI_Transcieve(&temp, &temp,1);
 8000f62:	f107 010f 	add.w	r1, r7, #15
 8000f66:	f107 030f 	add.w	r3, r7, #15
 8000f6a:	2201      	movs	r2, #1
 8000f6c:	4618      	mov	r0, r3
 8000f6e:	f000 fcb7 	bl	80018e0 <NRF24L01p_port_SPI_Transcieve>

    //port_SPI_Transcieve(&temp, 1);
    //port_SPI_Transcieve(&temp, 1);
    NRF24L01p_port_write_Pin_CSN(1);
 8000f72:	2001      	movs	r0, #1
 8000f74:	f000 fc14 	bl	80017a0 <NRF24L01p_port_write_Pin_CSN>
    return temp;
 8000f78:	7bfb      	ldrb	r3, [r7, #15]

}
 8000f7a:	4618      	mov	r0, r3
 8000f7c:	3710      	adds	r7, #16
 8000f7e:	46bd      	mov	sp, r7
 8000f80:	bd80      	pop	{r7, pc}

08000f82 <NRF24L01p_read_register_buffer>:
void NRF24L01p_read_register_buffer(uint8_t address, uint8_t *dataout, int len){
 8000f82:	b580      	push	{r7, lr}
 8000f84:	b086      	sub	sp, #24
 8000f86:	af00      	add	r7, sp, #0
 8000f88:	4603      	mov	r3, r0
 8000f8a:	60b9      	str	r1, [r7, #8]
 8000f8c:	607a      	str	r2, [r7, #4]
 8000f8e:	73fb      	strb	r3, [r7, #15]
    NRF24L01p_port_write_Pin_CSN(0);
 8000f90:	2000      	movs	r0, #0
 8000f92:	f000 fc05 	bl	80017a0 <NRF24L01p_port_write_Pin_CSN>
    uint8_t temp = address&_NRF24L01P_REG_ADDRESS_MASK;
 8000f96:	7bfb      	ldrb	r3, [r7, #15]
 8000f98:	f003 031f 	and.w	r3, r3, #31
 8000f9c:	b2db      	uxtb	r3, r3
 8000f9e:	75fb      	strb	r3, [r7, #23]
    NRF24L01p_port_SPI_Transcieve(&temp, &temp,1);
 8000fa0:	f107 0117 	add.w	r1, r7, #23
 8000fa4:	f107 0317 	add.w	r3, r7, #23
 8000fa8:	2201      	movs	r2, #1
 8000faa:	4618      	mov	r0, r3
 8000fac:	f000 fc98 	bl	80018e0 <NRF24L01p_port_SPI_Transcieve>
    NRF24L01p_port_SPI_Transcieve(dataout, dataout,len);
 8000fb0:	687b      	ldr	r3, [r7, #4]
 8000fb2:	461a      	mov	r2, r3
 8000fb4:	68b9      	ldr	r1, [r7, #8]
 8000fb6:	68b8      	ldr	r0, [r7, #8]
 8000fb8:	f000 fc92 	bl	80018e0 <NRF24L01p_port_SPI_Transcieve>
    //port_SPI_Transcieve(&temp, 1);
    //port_SPI_Transcieve(dataout, len);
    NRF24L01p_port_write_Pin_CSN(1);
 8000fbc:	2001      	movs	r0, #1
 8000fbe:	f000 fbef 	bl	80017a0 <NRF24L01p_port_write_Pin_CSN>
}
 8000fc2:	bf00      	nop
 8000fc4:	3718      	adds	r7, #24
 8000fc6:	46bd      	mov	sp, r7
 8000fc8:	bd80      	pop	{r7, pc}

08000fca <NRF24L01p_write_register>:
void NRF24L01p_write_register(uint8_t address, uint8_t datain){
 8000fca:	b580      	push	{r7, lr}
 8000fcc:	b084      	sub	sp, #16
 8000fce:	af00      	add	r7, sp, #0
 8000fd0:	4603      	mov	r3, r0
 8000fd2:	460a      	mov	r2, r1
 8000fd4:	71fb      	strb	r3, [r7, #7]
 8000fd6:	4613      	mov	r3, r2
 8000fd8:	71bb      	strb	r3, [r7, #6]
    NRF24L01p_port_write_Pin_CSN(0);
 8000fda:	2000      	movs	r0, #0
 8000fdc:	f000 fbe0 	bl	80017a0 <NRF24L01p_port_write_Pin_CSN>
    uint8_t temp = (( _NRF24L01P_SPI_CMD_WR_REG | (address&(_NRF24L01P_REG_ADDRESS_MASK))));
 8000fe0:	f997 3007 	ldrsb.w	r3, [r7, #7]
 8000fe4:	f003 031f 	and.w	r3, r3, #31
 8000fe8:	b25b      	sxtb	r3, r3
 8000fea:	f043 0320 	orr.w	r3, r3, #32
 8000fee:	b25b      	sxtb	r3, r3
 8000ff0:	b2db      	uxtb	r3, r3
 8000ff2:	73fb      	strb	r3, [r7, #15]
    NRF24L01p_port_SPI_Transcieve(&temp, &temp,1);
 8000ff4:	f107 010f 	add.w	r1, r7, #15
 8000ff8:	f107 030f 	add.w	r3, r7, #15
 8000ffc:	2201      	movs	r2, #1
 8000ffe:	4618      	mov	r0, r3
 8001000:	f000 fc6e 	bl	80018e0 <NRF24L01p_port_SPI_Transcieve>
    NRF24L01p_port_SPI_Transcieve(&datain, &datain,1);
 8001004:	1db9      	adds	r1, r7, #6
 8001006:	1dbb      	adds	r3, r7, #6
 8001008:	2201      	movs	r2, #1
 800100a:	4618      	mov	r0, r3
 800100c:	f000 fc68 	bl	80018e0 <NRF24L01p_port_SPI_Transcieve>
    //port_SPI_Transcieve(&temp, 1);
    //port_SPI_Transcieve(&datain, 1);
    NRF24L01p_port_write_Pin_CSN(1);
 8001010:	2001      	movs	r0, #1
 8001012:	f000 fbc5 	bl	80017a0 <NRF24L01p_port_write_Pin_CSN>
}
 8001016:	bf00      	nop
 8001018:	3710      	adds	r7, #16
 800101a:	46bd      	mov	sp, r7
 800101c:	bd80      	pop	{r7, pc}

0800101e <NRF24L01p_write_register_buffer>:
void NRF24L01p_write_register_buffer(uint8_t address, uint8_t *datain, int len){
 800101e:	b580      	push	{r7, lr}
 8001020:	b086      	sub	sp, #24
 8001022:	af00      	add	r7, sp, #0
 8001024:	4603      	mov	r3, r0
 8001026:	60b9      	str	r1, [r7, #8]
 8001028:	607a      	str	r2, [r7, #4]
 800102a:	73fb      	strb	r3, [r7, #15]
    NRF24L01p_port_write_Pin_CSN(0);
 800102c:	2000      	movs	r0, #0
 800102e:	f000 fbb7 	bl	80017a0 <NRF24L01p_port_write_Pin_CSN>
    uint8_t temp = (( _NRF24L01P_SPI_CMD_WR_REG | (address&(_NRF24L01P_REG_ADDRESS_MASK))));
 8001032:	f997 300f 	ldrsb.w	r3, [r7, #15]
 8001036:	f003 031f 	and.w	r3, r3, #31
 800103a:	b25b      	sxtb	r3, r3
 800103c:	f043 0320 	orr.w	r3, r3, #32
 8001040:	b25b      	sxtb	r3, r3
 8001042:	b2db      	uxtb	r3, r3
 8001044:	75fb      	strb	r3, [r7, #23]
    NRF24L01p_port_SPI_Transcieve(&temp, &temp,1);
 8001046:	f107 0117 	add.w	r1, r7, #23
 800104a:	f107 0317 	add.w	r3, r7, #23
 800104e:	2201      	movs	r2, #1
 8001050:	4618      	mov	r0, r3
 8001052:	f000 fc45 	bl	80018e0 <NRF24L01p_port_SPI_Transcieve>
    NRF24L01p_port_SPI_Transcieve(datain, datain,len);
 8001056:	687b      	ldr	r3, [r7, #4]
 8001058:	461a      	mov	r2, r3
 800105a:	68b9      	ldr	r1, [r7, #8]
 800105c:	68b8      	ldr	r0, [r7, #8]
 800105e:	f000 fc3f 	bl	80018e0 <NRF24L01p_port_SPI_Transcieve>
    //port_SPI_Transcieve(&temp, 1);
    //port_SPI_Transcieve(datain, len);
    NRF24L01p_port_write_Pin_CSN(1);
 8001062:	2001      	movs	r0, #1
 8001064:	f000 fb9c 	bl	80017a0 <NRF24L01p_port_write_Pin_CSN>
}
 8001068:	bf00      	nop
 800106a:	3718      	adds	r7, #24
 800106c:	46bd      	mov	sp, r7
 800106e:	bd80      	pop	{r7, pc}

08001070 <NRF24L01p_read_rx_payload>:
void NRF24L01p_read_rx_payload(uint8_t *dataout, int pay_len){
 8001070:	b580      	push	{r7, lr}
 8001072:	b084      	sub	sp, #16
 8001074:	af00      	add	r7, sp, #0
 8001076:	6078      	str	r0, [r7, #4]
 8001078:	6039      	str	r1, [r7, #0]
    NRF24L01p_port_write_Pin_CSN(0);
 800107a:	2000      	movs	r0, #0
 800107c:	f000 fb90 	bl	80017a0 <NRF24L01p_port_write_Pin_CSN>
    uint8_t temp = (_NRF24L01P_SPI_CMD_RD_RX_PAYLOAD);
 8001080:	2361      	movs	r3, #97	; 0x61
 8001082:	73fb      	strb	r3, [r7, #15]

    NRF24L01p_port_SPI_Transcieve(&temp, &temp,1);
 8001084:	f107 010f 	add.w	r1, r7, #15
 8001088:	f107 030f 	add.w	r3, r7, #15
 800108c:	2201      	movs	r2, #1
 800108e:	4618      	mov	r0, r3
 8001090:	f000 fc26 	bl	80018e0 <NRF24L01p_port_SPI_Transcieve>
    NRF24L01p_port_SPI_Transcieve(dataout,dataout,pay_len);
 8001094:	683b      	ldr	r3, [r7, #0]
 8001096:	461a      	mov	r2, r3
 8001098:	6879      	ldr	r1, [r7, #4]
 800109a:	6878      	ldr	r0, [r7, #4]
 800109c:	f000 fc20 	bl	80018e0 <NRF24L01p_port_SPI_Transcieve>

    //port_SPI_Transcieve(&temp,1);
    //port_SPI_Transcieve(dataout,pay_len);
    NRF24L01p_port_write_Pin_CSN(1);
 80010a0:	2001      	movs	r0, #1
 80010a2:	f000 fb7d 	bl	80017a0 <NRF24L01p_port_write_Pin_CSN>
}
 80010a6:	bf00      	nop
 80010a8:	3710      	adds	r7, #16
 80010aa:	46bd      	mov	sp, r7
 80010ac:	bd80      	pop	{r7, pc}

080010ae <NRF24L01p_write_tx_payload>:
void NRF24L01p_write_tx_payload(uint8_t *datain, int pay_len){
 80010ae:	b580      	push	{r7, lr}
 80010b0:	b084      	sub	sp, #16
 80010b2:	af00      	add	r7, sp, #0
 80010b4:	6078      	str	r0, [r7, #4]
 80010b6:	6039      	str	r1, [r7, #0]
    NRF24L01p_port_write_Pin_CSN(0);
 80010b8:	2000      	movs	r0, #0
 80010ba:	f000 fb71 	bl	80017a0 <NRF24L01p_port_write_Pin_CSN>
    uint8_t temp = (_NRF24L01P_SPI_CMD_WR_TX_PAYLOAD);
 80010be:	23a0      	movs	r3, #160	; 0xa0
 80010c0:	73fb      	strb	r3, [r7, #15]

    NRF24L01p_port_SPI_Transcieve(&temp, &temp,1);
 80010c2:	f107 010f 	add.w	r1, r7, #15
 80010c6:	f107 030f 	add.w	r3, r7, #15
 80010ca:	2201      	movs	r2, #1
 80010cc:	4618      	mov	r0, r3
 80010ce:	f000 fc07 	bl	80018e0 <NRF24L01p_port_SPI_Transcieve>
    NRF24L01p_port_SPI_Transcieve(datain,datain,pay_len);
 80010d2:	683b      	ldr	r3, [r7, #0]
 80010d4:	461a      	mov	r2, r3
 80010d6:	6879      	ldr	r1, [r7, #4]
 80010d8:	6878      	ldr	r0, [r7, #4]
 80010da:	f000 fc01 	bl	80018e0 <NRF24L01p_port_SPI_Transcieve>

    //port_SPI_Transcieve(&temp,1);
    //port_SPI_Transcieve(datain,pay_len);
    NRF24L01p_port_write_Pin_CSN(1);
 80010de:	2001      	movs	r0, #1
 80010e0:	f000 fb5e 	bl	80017a0 <NRF24L01p_port_write_Pin_CSN>
}
 80010e4:	bf00      	nop
 80010e6:	3710      	adds	r7, #16
 80010e8:	46bd      	mov	sp, r7
 80010ea:	bd80      	pop	{r7, pc}

080010ec <NRF24L01p_flush_tx>:
void NRF24L01p_flush_tx(){
 80010ec:	b580      	push	{r7, lr}
 80010ee:	b082      	sub	sp, #8
 80010f0:	af00      	add	r7, sp, #0
    NRF24L01p_port_write_Pin_CSN(0);
 80010f2:	2000      	movs	r0, #0
 80010f4:	f000 fb54 	bl	80017a0 <NRF24L01p_port_write_Pin_CSN>
    uint8_t temp = (_NRF24L01P_SPI_CMD_FLUSH_TX);
 80010f8:	23e1      	movs	r3, #225	; 0xe1
 80010fa:	71fb      	strb	r3, [r7, #7]
    NRF24L01p_port_SPI_Transcieve(&temp, &temp,1);
 80010fc:	1df9      	adds	r1, r7, #7
 80010fe:	1dfb      	adds	r3, r7, #7
 8001100:	2201      	movs	r2, #1
 8001102:	4618      	mov	r0, r3
 8001104:	f000 fbec 	bl	80018e0 <NRF24L01p_port_SPI_Transcieve>
    //port_SPI_Transcieve(&temp,1);
    NRF24L01p_port_write_Pin_CSN(1);
 8001108:	2001      	movs	r0, #1
 800110a:	f000 fb49 	bl	80017a0 <NRF24L01p_port_write_Pin_CSN>
}
 800110e:	bf00      	nop
 8001110:	3708      	adds	r7, #8
 8001112:	46bd      	mov	sp, r7
 8001114:	bd80      	pop	{r7, pc}

08001116 <NRF24L01p_flush_rx>:
void NRF24L01p_flush_rx(){
 8001116:	b580      	push	{r7, lr}
 8001118:	b082      	sub	sp, #8
 800111a:	af00      	add	r7, sp, #0
    NRF24L01p_port_write_Pin_CSN(0);
 800111c:	2000      	movs	r0, #0
 800111e:	f000 fb3f 	bl	80017a0 <NRF24L01p_port_write_Pin_CSN>
    uint8_t temp = (_NRF24L01P_SPI_CMD_FLUSH_RX);
 8001122:	23e2      	movs	r3, #226	; 0xe2
 8001124:	71fb      	strb	r3, [r7, #7]
    NRF24L01p_port_SPI_Transcieve(&temp, &temp,1);
 8001126:	1df9      	adds	r1, r7, #7
 8001128:	1dfb      	adds	r3, r7, #7
 800112a:	2201      	movs	r2, #1
 800112c:	4618      	mov	r0, r3
 800112e:	f000 fbd7 	bl	80018e0 <NRF24L01p_port_SPI_Transcieve>
    //port_SPI_Transcieve(&temp,1);
    NRF24L01p_port_write_Pin_CSN(1);
 8001132:	2001      	movs	r0, #1
 8001134:	f000 fb34 	bl	80017a0 <NRF24L01p_port_write_Pin_CSN>
}
 8001138:	bf00      	nop
 800113a:	3708      	adds	r7, #8
 800113c:	46bd      	mov	sp, r7
 800113e:	bd80      	pop	{r7, pc}

08001140 <NRF24L01p_read_rx_payload_width>:
    NRF24L01p_port_SPI_Transcieve(&temp, &temp,1);
    //port_SPI_Transcieve(&temp,1);

    NRF24L01p_port_write_Pin_CSN(1);
}
int NRF24L01p_read_rx_payload_width(){
 8001140:	b580      	push	{r7, lr}
 8001142:	b082      	sub	sp, #8
 8001144:	af00      	add	r7, sp, #0
    NRF24L01p_port_write_Pin_CSN(0);
 8001146:	2000      	movs	r0, #0
 8001148:	f000 fb2a 	bl	80017a0 <NRF24L01p_port_write_Pin_CSN>
    uint8_t temp = (_NRF24L01P_SPI_CMD_R_RX_PL_WID);
 800114c:	2360      	movs	r3, #96	; 0x60
 800114e:	71fb      	strb	r3, [r7, #7]

    NRF24L01p_port_SPI_Transcieve(&temp, &temp,1);
 8001150:	1df9      	adds	r1, r7, #7
 8001152:	1dfb      	adds	r3, r7, #7
 8001154:	2201      	movs	r2, #1
 8001156:	4618      	mov	r0, r3
 8001158:	f000 fbc2 	bl	80018e0 <NRF24L01p_port_SPI_Transcieve>
    NRF24L01p_port_SPI_Transcieve(&temp, &temp,1);
 800115c:	1df9      	adds	r1, r7, #7
 800115e:	1dfb      	adds	r3, r7, #7
 8001160:	2201      	movs	r2, #1
 8001162:	4618      	mov	r0, r3
 8001164:	f000 fbbc 	bl	80018e0 <NRF24L01p_port_SPI_Transcieve>

    //port_SPI_Transcieve(&temp,1);
    //port_SPI_Transcieve(&temp,1);
    NRF24L01p_port_write_Pin_CSN(1);
 8001168:	2001      	movs	r0, #1
 800116a:	f000 fb19 	bl	80017a0 <NRF24L01p_port_write_Pin_CSN>
    return temp;
 800116e:	79fb      	ldrb	r3, [r7, #7]
}
 8001170:	4618      	mov	r0, r3
 8001172:	3708      	adds	r7, #8
 8001174:	46bd      	mov	sp, r7
 8001176:	bd80      	pop	{r7, pc}

08001178 <NRF24L01p_write_tx_payload_noack>:
    NRF24L01p_port_SPI_Transcieve(datain, datain, pay_len);
    //port_SPI_Transcieve(&temp,1);
    //port_SPI_Transcieve(datain,pay_len);
    NRF24L01p_port_write_Pin_CSN(1);
}
void NRF24L01p_write_tx_payload_noack(uint8_t *datain, int pay_len){
 8001178:	b580      	push	{r7, lr}
 800117a:	b084      	sub	sp, #16
 800117c:	af00      	add	r7, sp, #0
 800117e:	6078      	str	r0, [r7, #4]
 8001180:	6039      	str	r1, [r7, #0]
    NRF24L01p_port_write_Pin_CSN(0);
 8001182:	2000      	movs	r0, #0
 8001184:	f000 fb0c 	bl	80017a0 <NRF24L01p_port_write_Pin_CSN>
    uint8_t temp = (_NRF24L01P_SPI_CMD_W_TX_PYLD_NO_ACK);
 8001188:	23b0      	movs	r3, #176	; 0xb0
 800118a:	73fb      	strb	r3, [r7, #15]

    NRF24L01p_port_SPI_Transcieve(&temp, &temp,1);
 800118c:	f107 010f 	add.w	r1, r7, #15
 8001190:	f107 030f 	add.w	r3, r7, #15
 8001194:	2201      	movs	r2, #1
 8001196:	4618      	mov	r0, r3
 8001198:	f000 fba2 	bl	80018e0 <NRF24L01p_port_SPI_Transcieve>
    NRF24L01p_port_SPI_Transcieve(datain, datain, pay_len);
 800119c:	683b      	ldr	r3, [r7, #0]
 800119e:	461a      	mov	r2, r3
 80011a0:	6879      	ldr	r1, [r7, #4]
 80011a2:	6878      	ldr	r0, [r7, #4]
 80011a4:	f000 fb9c 	bl	80018e0 <NRF24L01p_port_SPI_Transcieve>

    //port_SPI_Transcieve(&temp,1);
    //port_SPI_Transcieve(datain,pay_len);
    NRF24L01p_port_write_Pin_CSN(1);
 80011a8:	2001      	movs	r0, #1
 80011aa:	f000 faf9 	bl	80017a0 <NRF24L01p_port_write_Pin_CSN>
}
 80011ae:	bf00      	nop
 80011b0:	3710      	adds	r7, #16
 80011b2:	46bd      	mov	sp, r7
 80011b4:	bd80      	pop	{r7, pc}

080011b6 <NRF24L01p_get_status>:
uint8_t NRF24L01p_get_status(){
 80011b6:	b580      	push	{r7, lr}
 80011b8:	b082      	sub	sp, #8
 80011ba:	af00      	add	r7, sp, #0
    NRF24L01p_port_write_Pin_CSN(0);
 80011bc:	2000      	movs	r0, #0
 80011be:	f000 faef 	bl	80017a0 <NRF24L01p_port_write_Pin_CSN>
    uint8_t temp = (_NRF24L01P_SPI_CMD_NOP );
 80011c2:	23ff      	movs	r3, #255	; 0xff
 80011c4:	71fb      	strb	r3, [r7, #7]
    NRF24L01p_port_SPI_Transcieve(&temp, &temp, 1);
 80011c6:	1df9      	adds	r1, r7, #7
 80011c8:	1dfb      	adds	r3, r7, #7
 80011ca:	2201      	movs	r2, #1
 80011cc:	4618      	mov	r0, r3
 80011ce:	f000 fb87 	bl	80018e0 <NRF24L01p_port_SPI_Transcieve>
    //port_SPI_Transcieve(&temp,1);
    NRF24L01p_port_write_Pin_CSN(1);
 80011d2:	2001      	movs	r0, #1
 80011d4:	f000 fae4 	bl	80017a0 <NRF24L01p_port_write_Pin_CSN>
    return temp;
 80011d8:	79fb      	ldrb	r3, [r7, #7]
}
 80011da:	4618      	mov	r0, r3
 80011dc:	3708      	adds	r7, #8
 80011de:	46bd      	mov	sp, r7
 80011e0:	bd80      	pop	{r7, pc}

080011e2 <NRF24L01p_power_up>:





void NRF24L01p_power_up(){
 80011e2:	b580      	push	{r7, lr}
 80011e4:	af00      	add	r7, sp, #0
	NRF24L01p_write_register(_NRF24L01P_REG_CONFIG,NRF24L01p_read_register(_NRF24L01P_REG_CONFIG) | _NRF24L01P_CONFIG_PWR_UP);
 80011e6:	2000      	movs	r0, #0
 80011e8:	f7ff fea6 	bl	8000f38 <NRF24L01p_read_register>
 80011ec:	4603      	mov	r3, r0
 80011ee:	f043 0302 	orr.w	r3, r3, #2
 80011f2:	b2db      	uxtb	r3, r3
 80011f4:	4619      	mov	r1, r3
 80011f6:	2000      	movs	r0, #0
 80011f8:	f7ff fee7 	bl	8000fca <NRF24L01p_write_register>
}
 80011fc:	bf00      	nop
 80011fe:	bd80      	pop	{r7, pc}

08001200 <NRF24L01p_power_down>:
void NRF24L01p_power_down(){
 8001200:	b580      	push	{r7, lr}
 8001202:	af00      	add	r7, sp, #0
	NRF24L01p_write_register(_NRF24L01P_REG_CONFIG,NRF24L01p_read_register(_NRF24L01P_REG_CONFIG) & ~_NRF24L01P_CONFIG_PWR_UP);
 8001204:	2000      	movs	r0, #0
 8001206:	f7ff fe97 	bl	8000f38 <NRF24L01p_read_register>
 800120a:	4603      	mov	r3, r0
 800120c:	f023 0302 	bic.w	r3, r3, #2
 8001210:	b2db      	uxtb	r3, r3
 8001212:	4619      	mov	r1, r3
 8001214:	2000      	movs	r0, #0
 8001216:	f7ff fed8 	bl	8000fca <NRF24L01p_write_register>
}
 800121a:	bf00      	nop
 800121c:	bd80      	pop	{r7, pc}

0800121e <NRF24L01p_rx_mode>:
void NRF24L01p_rx_mode(){
 800121e:	b580      	push	{r7, lr}
 8001220:	af00      	add	r7, sp, #0
	NRF24L01p_write_register(_NRF24L01P_REG_CONFIG,NRF24L01p_read_register(_NRF24L01P_REG_CONFIG) | _NRF24L01P_CONFIG_PRIM_RX);
 8001222:	2000      	movs	r0, #0
 8001224:	f7ff fe88 	bl	8000f38 <NRF24L01p_read_register>
 8001228:	4603      	mov	r3, r0
 800122a:	f043 0301 	orr.w	r3, r3, #1
 800122e:	b2db      	uxtb	r3, r3
 8001230:	4619      	mov	r1, r3
 8001232:	2000      	movs	r0, #0
 8001234:	f7ff fec9 	bl	8000fca <NRF24L01p_write_register>
}
 8001238:	bf00      	nop
 800123a:	bd80      	pop	{r7, pc}

0800123c <NRF24L01p_tx_mode>:
void NRF24L01p_tx_mode(){
 800123c:	b580      	push	{r7, lr}
 800123e:	af00      	add	r7, sp, #0
	NRF24L01p_write_register(_NRF24L01P_REG_CONFIG,NRF24L01p_read_register(_NRF24L01P_REG_CONFIG) & ~_NRF24L01P_CONFIG_PRIM_RX);
 8001240:	2000      	movs	r0, #0
 8001242:	f7ff fe79 	bl	8000f38 <NRF24L01p_read_register>
 8001246:	4603      	mov	r3, r0
 8001248:	f023 0301 	bic.w	r3, r3, #1
 800124c:	b2db      	uxtb	r3, r3
 800124e:	4619      	mov	r1, r3
 8001250:	2000      	movs	r0, #0
 8001252:	f7ff feba 	bl	8000fca <NRF24L01p_write_register>
}
 8001256:	bf00      	nop
 8001258:	bd80      	pop	{r7, pc}

0800125a <NRF24L01p_enable_auto_ack>:
    if(sel) NRF24L01p_write_register(_NRF24L01P_REG_CONFIG,NRF24L01p_read_register(_NRF24L01P_REG_CONFIG) | _NRF24L01P_CONFIG_MASK_MAX_RT);
else NRF24L01p_write_register(_NRF24L01P_REG_CONFIG,NRF24L01p_read_register(_NRF24L01P_REG_CONFIG) & ~_NRF24L01P_CONFIG_MASK_MAX_RT);
}


void NRF24L01p_enable_auto_ack(NRF24L01p_pipe_t pipe, bool sel){
 800125a:	b580      	push	{r7, lr}
 800125c:	b084      	sub	sp, #16
 800125e:	af00      	add	r7, sp, #0
 8001260:	4603      	mov	r3, r0
 8001262:	460a      	mov	r2, r1
 8001264:	71fb      	strb	r3, [r7, #7]
 8001266:	4613      	mov	r3, r2
 8001268:	71bb      	strb	r3, [r7, #6]
    if (sel){
 800126a:	79bb      	ldrb	r3, [r7, #6]
 800126c:	2b00      	cmp	r3, #0
 800126e:	d014      	beq.n	800129a <NRF24L01p_enable_auto_ack+0x40>
        uint8_t temp = NRF24L01p_read_register(_NRF24L01P_REG_EN_AA);
 8001270:	2001      	movs	r0, #1
 8001272:	f7ff fe61 	bl	8000f38 <NRF24L01p_read_register>
 8001276:	4603      	mov	r3, r0
 8001278:	73fb      	strb	r3, [r7, #15]
        _nrf24l01p_set_bit(temp,pipe);
 800127a:	79fb      	ldrb	r3, [r7, #7]
 800127c:	2201      	movs	r2, #1
 800127e:	fa02 f303 	lsl.w	r3, r2, r3
 8001282:	b25a      	sxtb	r2, r3
 8001284:	f997 300f 	ldrsb.w	r3, [r7, #15]
 8001288:	4313      	orrs	r3, r2
 800128a:	b25b      	sxtb	r3, r3
 800128c:	73fb      	strb	r3, [r7, #15]
        NRF24L01p_write_register(_NRF24L01P_REG_EN_AA,temp);
 800128e:	7bfb      	ldrb	r3, [r7, #15]
 8001290:	4619      	mov	r1, r3
 8001292:	2001      	movs	r0, #1
 8001294:	f7ff fe99 	bl	8000fca <NRF24L01p_write_register>
        uint8_t temp = NRF24L01p_read_register(_NRF24L01P_REG_EN_AA);
        _nrf24l01p_clr_bit(temp,pipe);
        NRF24L01p_write_register(_NRF24L01P_REG_EN_AA,temp);
    }

}
 8001298:	e015      	b.n	80012c6 <NRF24L01p_enable_auto_ack+0x6c>
        uint8_t temp = NRF24L01p_read_register(_NRF24L01P_REG_EN_AA);
 800129a:	2001      	movs	r0, #1
 800129c:	f7ff fe4c 	bl	8000f38 <NRF24L01p_read_register>
 80012a0:	4603      	mov	r3, r0
 80012a2:	73bb      	strb	r3, [r7, #14]
        _nrf24l01p_clr_bit(temp,pipe);
 80012a4:	79fb      	ldrb	r3, [r7, #7]
 80012a6:	2201      	movs	r2, #1
 80012a8:	fa02 f303 	lsl.w	r3, r2, r3
 80012ac:	b25b      	sxtb	r3, r3
 80012ae:	43db      	mvns	r3, r3
 80012b0:	b25a      	sxtb	r2, r3
 80012b2:	f997 300e 	ldrsb.w	r3, [r7, #14]
 80012b6:	4013      	ands	r3, r2
 80012b8:	b25b      	sxtb	r3, r3
 80012ba:	73bb      	strb	r3, [r7, #14]
        NRF24L01p_write_register(_NRF24L01P_REG_EN_AA,temp);
 80012bc:	7bbb      	ldrb	r3, [r7, #14]
 80012be:	4619      	mov	r1, r3
 80012c0:	2001      	movs	r0, #1
 80012c2:	f7ff fe82 	bl	8000fca <NRF24L01p_write_register>
}
 80012c6:	bf00      	nop
 80012c8:	3710      	adds	r7, #16
 80012ca:	46bd      	mov	sp, r7
 80012cc:	bd80      	pop	{r7, pc}

080012ce <NRF24L01p_enable_rx_on_pipe>:



void NRF24L01p_enable_rx_on_pipe(NRF24L01p_pipe_t pipe, bool sel){
 80012ce:	b580      	push	{r7, lr}
 80012d0:	b084      	sub	sp, #16
 80012d2:	af00      	add	r7, sp, #0
 80012d4:	4603      	mov	r3, r0
 80012d6:	460a      	mov	r2, r1
 80012d8:	71fb      	strb	r3, [r7, #7]
 80012da:	4613      	mov	r3, r2
 80012dc:	71bb      	strb	r3, [r7, #6]
    if(sel){
 80012de:	79bb      	ldrb	r3, [r7, #6]
 80012e0:	2b00      	cmp	r3, #0
 80012e2:	d014      	beq.n	800130e <NRF24L01p_enable_rx_on_pipe+0x40>
        uint8_t temp = NRF24L01p_read_register(_NRF24L01P_REG_EN_RXADDR);
 80012e4:	2002      	movs	r0, #2
 80012e6:	f7ff fe27 	bl	8000f38 <NRF24L01p_read_register>
 80012ea:	4603      	mov	r3, r0
 80012ec:	73fb      	strb	r3, [r7, #15]
        _nrf24l01p_set_bit(temp,pipe);
 80012ee:	79fb      	ldrb	r3, [r7, #7]
 80012f0:	2201      	movs	r2, #1
 80012f2:	fa02 f303 	lsl.w	r3, r2, r3
 80012f6:	b25a      	sxtb	r2, r3
 80012f8:	f997 300f 	ldrsb.w	r3, [r7, #15]
 80012fc:	4313      	orrs	r3, r2
 80012fe:	b25b      	sxtb	r3, r3
 8001300:	73fb      	strb	r3, [r7, #15]
        NRF24L01p_write_register(_NRF24L01P_REG_EN_RXADDR,temp);
 8001302:	7bfb      	ldrb	r3, [r7, #15]
 8001304:	4619      	mov	r1, r3
 8001306:	2002      	movs	r0, #2
 8001308:	f7ff fe5f 	bl	8000fca <NRF24L01p_write_register>
        uint8_t temp = NRF24L01p_read_register(_NRF24L01P_REG_EN_RXADDR);
        _nrf24l01p_clr_bit(temp,pipe);
        NRF24L01p_write_register(_NRF24L01P_REG_EN_RXADDR,temp);
    }

}
 800130c:	e015      	b.n	800133a <NRF24L01p_enable_rx_on_pipe+0x6c>
        uint8_t temp = NRF24L01p_read_register(_NRF24L01P_REG_EN_RXADDR);
 800130e:	2002      	movs	r0, #2
 8001310:	f7ff fe12 	bl	8000f38 <NRF24L01p_read_register>
 8001314:	4603      	mov	r3, r0
 8001316:	73bb      	strb	r3, [r7, #14]
        _nrf24l01p_clr_bit(temp,pipe);
 8001318:	79fb      	ldrb	r3, [r7, #7]
 800131a:	2201      	movs	r2, #1
 800131c:	fa02 f303 	lsl.w	r3, r2, r3
 8001320:	b25b      	sxtb	r3, r3
 8001322:	43db      	mvns	r3, r3
 8001324:	b25a      	sxtb	r2, r3
 8001326:	f997 300e 	ldrsb.w	r3, [r7, #14]
 800132a:	4013      	ands	r3, r2
 800132c:	b25b      	sxtb	r3, r3
 800132e:	73bb      	strb	r3, [r7, #14]
        NRF24L01p_write_register(_NRF24L01P_REG_EN_RXADDR,temp);
 8001330:	7bbb      	ldrb	r3, [r7, #14]
 8001332:	4619      	mov	r1, r3
 8001334:	2002      	movs	r0, #2
 8001336:	f7ff fe48 	bl	8000fca <NRF24L01p_write_register>
}
 800133a:	bf00      	nop
 800133c:	3710      	adds	r7, #16
 800133e:	46bd      	mov	sp, r7
 8001340:	bd80      	pop	{r7, pc}

08001342 <NRF24L01p_set_auto_retransmission_count>:
}
NRF24L01p_aw_t NRF24L01p_get_address_width(){
    return (NRF24L01p_aw_t) NRF24L01p_read_register(_NRF24L01P_REG_SETUP_AW);
}

void NRF24L01p_set_auto_retransmission_count(uint8_t count){
 8001342:	b580      	push	{r7, lr}
 8001344:	b084      	sub	sp, #16
 8001346:	af00      	add	r7, sp, #0
 8001348:	4603      	mov	r3, r0
 800134a:	71fb      	strb	r3, [r7, #7]
    uint8_t temp = NRF24L01p_read_register(_NRF24L01P_REG_SETUP_RETR);
 800134c:	2004      	movs	r0, #4
 800134e:	f7ff fdf3 	bl	8000f38 <NRF24L01p_read_register>
 8001352:	4603      	mov	r3, r0
 8001354:	73fb      	strb	r3, [r7, #15]
    temp &= ~ 0x0F;
 8001356:	7bfb      	ldrb	r3, [r7, #15]
 8001358:	f023 030f 	bic.w	r3, r3, #15
 800135c:	73fb      	strb	r3, [r7, #15]
    temp |= (count<<0);
 800135e:	7bfa      	ldrb	r2, [r7, #15]
 8001360:	79fb      	ldrb	r3, [r7, #7]
 8001362:	4313      	orrs	r3, r2
 8001364:	73fb      	strb	r3, [r7, #15]
    NRF24L01p_write_register(_NRF24L01P_REG_SETUP_RETR,temp);
 8001366:	7bfb      	ldrb	r3, [r7, #15]
 8001368:	4619      	mov	r1, r3
 800136a:	2004      	movs	r0, #4
 800136c:	f7ff fe2d 	bl	8000fca <NRF24L01p_write_register>
}
 8001370:	bf00      	nop
 8001372:	3710      	adds	r7, #16
 8001374:	46bd      	mov	sp, r7
 8001376:	bd80      	pop	{r7, pc}

08001378 <NRF24L01p_set_auto_retransmission_delay>:
uint8_t NRF24L01p_read_auto_retransmission_count(){
    uint8_t temp = NRF24L01p_read_register(_NRF24L01P_REG_SETUP_RETR);
    return temp & 0x0F;
}

void NRF24L01p_set_auto_retransmission_delay(uint8_t times250us){
 8001378:	b580      	push	{r7, lr}
 800137a:	b084      	sub	sp, #16
 800137c:	af00      	add	r7, sp, #0
 800137e:	4603      	mov	r3, r0
 8001380:	71fb      	strb	r3, [r7, #7]
    uint8_t temp = NRF24L01p_read_register(_NRF24L01P_REG_SETUP_RETR);
 8001382:	2004      	movs	r0, #4
 8001384:	f7ff fdd8 	bl	8000f38 <NRF24L01p_read_register>
 8001388:	4603      	mov	r3, r0
 800138a:	73fb      	strb	r3, [r7, #15]
    temp &= ~(0xF0);
 800138c:	7bfb      	ldrb	r3, [r7, #15]
 800138e:	f003 030f 	and.w	r3, r3, #15
 8001392:	73fb      	strb	r3, [r7, #15]
    temp |= (times250us<<4);
 8001394:	79fb      	ldrb	r3, [r7, #7]
 8001396:	011b      	lsls	r3, r3, #4
 8001398:	b25a      	sxtb	r2, r3
 800139a:	f997 300f 	ldrsb.w	r3, [r7, #15]
 800139e:	4313      	orrs	r3, r2
 80013a0:	b25b      	sxtb	r3, r3
 80013a2:	73fb      	strb	r3, [r7, #15]
    NRF24L01p_write_register(_NRF24L01P_REG_SETUP_RETR,temp);
 80013a4:	7bfb      	ldrb	r3, [r7, #15]
 80013a6:	4619      	mov	r1, r3
 80013a8:	2004      	movs	r0, #4
 80013aa:	f7ff fe0e 	bl	8000fca <NRF24L01p_write_register>
}
 80013ae:	bf00      	nop
 80013b0:	3710      	adds	r7, #16
 80013b2:	46bd      	mov	sp, r7
 80013b4:	bd80      	pop	{r7, pc}

080013b6 <NRF24L01p_set_DataRate>:
}
uint8_t NRF24L01p_get_frequency_offset(){
    return NRF24L01p_read_register(_NRF24L01P_REG_RF_CH);
}

void NRF24L01p_set_DataRate(NRF24L01p_datarate_t DataRate){
 80013b6:	b580      	push	{r7, lr}
 80013b8:	b084      	sub	sp, #16
 80013ba:	af00      	add	r7, sp, #0
 80013bc:	4603      	mov	r3, r0
 80013be:	71fb      	strb	r3, [r7, #7]
    uint8_t temp = NRF24L01p_read_register(_NRF24L01P_REG_RF_SETUP);
 80013c0:	2006      	movs	r0, #6
 80013c2:	f7ff fdb9 	bl	8000f38 <NRF24L01p_read_register>
 80013c6:	4603      	mov	r3, r0
 80013c8:	73fb      	strb	r3, [r7, #15]
    temp &= ~_NRF24L01P_RF_SETUP_RF_DR_MASK;
 80013ca:	7bfb      	ldrb	r3, [r7, #15]
 80013cc:	f023 0328 	bic.w	r3, r3, #40	; 0x28
 80013d0:	73fb      	strb	r3, [r7, #15]
    temp |= DataRate;
 80013d2:	7bfa      	ldrb	r2, [r7, #15]
 80013d4:	79fb      	ldrb	r3, [r7, #7]
 80013d6:	4313      	orrs	r3, r2
 80013d8:	73fb      	strb	r3, [r7, #15]
    NRF24L01p_write_register(_NRF24L01P_REG_RF_SETUP,temp);
 80013da:	7bfb      	ldrb	r3, [r7, #15]
 80013dc:	4619      	mov	r1, r3
 80013de:	2006      	movs	r0, #6
 80013e0:	f7ff fdf3 	bl	8000fca <NRF24L01p_write_register>
}
 80013e4:	bf00      	nop
 80013e6:	3710      	adds	r7, #16
 80013e8:	46bd      	mov	sp, r7
 80013ea:	bd80      	pop	{r7, pc}

080013ec <NRF24L01p_clear_max_retry_flag>:
}
bool NRF24L01p_get_max_retry_flag(){
    if(NRF24L01p_get_status()&_NRF24L01P_STATUS_MAX_RT) return 1;
    else return 0;
}
void NRF24L01p_clear_max_retry_flag(){
 80013ec:	b580      	push	{r7, lr}
 80013ee:	b082      	sub	sp, #8
 80013f0:	af00      	add	r7, sp, #0
    uint8_t temp = _NRF24L01P_STATUS_MAX_RT;
 80013f2:	2310      	movs	r3, #16
 80013f4:	71fb      	strb	r3, [r7, #7]
    NRF24L01p_write_register_buffer(_NRF24L01P_REG_STATUS,&temp,sizeof(temp));
 80013f6:	1dfb      	adds	r3, r7, #7
 80013f8:	2201      	movs	r2, #1
 80013fa:	4619      	mov	r1, r3
 80013fc:	2007      	movs	r0, #7
 80013fe:	f7ff fe0e 	bl	800101e <NRF24L01p_write_register_buffer>
}
 8001402:	bf00      	nop
 8001404:	3708      	adds	r7, #8
 8001406:	46bd      	mov	sp, r7
 8001408:	bd80      	pop	{r7, pc}

0800140a <NRF24L01p_get_data_sent_flag>:
bool NRF24L01p_get_data_sent_flag(){
 800140a:	b580      	push	{r7, lr}
 800140c:	af00      	add	r7, sp, #0
    if(NRF24L01p_get_status()&_NRF24L01P_STATUS_TX_DS) return 1;
 800140e:	f7ff fed2 	bl	80011b6 <NRF24L01p_get_status>
 8001412:	4603      	mov	r3, r0
 8001414:	f003 0320 	and.w	r3, r3, #32
 8001418:	2b00      	cmp	r3, #0
 800141a:	d001      	beq.n	8001420 <NRF24L01p_get_data_sent_flag+0x16>
 800141c:	2301      	movs	r3, #1
 800141e:	e000      	b.n	8001422 <NRF24L01p_get_data_sent_flag+0x18>
    else return 0;
 8001420:	2300      	movs	r3, #0
}
 8001422:	4618      	mov	r0, r3
 8001424:	bd80      	pop	{r7, pc}

08001426 <NRF24L01p_clear_data_sent_flag>:
void NRF24L01p_clear_data_sent_flag(){
 8001426:	b580      	push	{r7, lr}
 8001428:	b082      	sub	sp, #8
 800142a:	af00      	add	r7, sp, #0
    uint8_t temp = _NRF24L01P_STATUS_TX_DS;
 800142c:	2320      	movs	r3, #32
 800142e:	71fb      	strb	r3, [r7, #7]
    NRF24L01p_write_register_buffer(_NRF24L01P_REG_STATUS,&temp,sizeof(temp));
 8001430:	1dfb      	adds	r3, r7, #7
 8001432:	2201      	movs	r2, #1
 8001434:	4619      	mov	r1, r3
 8001436:	2007      	movs	r0, #7
 8001438:	f7ff fdf1 	bl	800101e <NRF24L01p_write_register_buffer>
}
 800143c:	bf00      	nop
 800143e:	3708      	adds	r7, #8
 8001440:	46bd      	mov	sp, r7
 8001442:	bd80      	pop	{r7, pc}

08001444 <NRF24L01p_clear_data_ready_flag>:
bool NRF24L01p_get_data_ready_flag(){
    if(NRF24L01p_get_status()&_NRF24L01P_STATUS_RX_DR) return 1;
    else return 0;
}
void NRF24L01p_clear_data_ready_flag(){
 8001444:	b580      	push	{r7, lr}
 8001446:	b082      	sub	sp, #8
 8001448:	af00      	add	r7, sp, #0
    uint8_t temp = _NRF24L01P_STATUS_RX_DR;
 800144a:	2340      	movs	r3, #64	; 0x40
 800144c:	71fb      	strb	r3, [r7, #7]
    NRF24L01p_write_register_buffer(_NRF24L01P_REG_STATUS,&temp,sizeof(temp));
 800144e:	1dfb      	adds	r3, r7, #7
 8001450:	2201      	movs	r2, #1
 8001452:	4619      	mov	r1, r3
 8001454:	2007      	movs	r0, #7
 8001456:	f7ff fde2 	bl	800101e <NRF24L01p_write_register_buffer>
}
 800145a:	bf00      	nop
 800145c:	3708      	adds	r7, #8
 800145e:	46bd      	mov	sp, r7
 8001460:	bd80      	pop	{r7, pc}

08001462 <NRF24L01p_get_rx_payload_pipe>:
NRF24L01p_pipe_t NRF24L01p_get_rx_payload_pipe(){
 8001462:	b580      	push	{r7, lr}
 8001464:	af00      	add	r7, sp, #0
    return (NRF24L01p_pipe_t) ((NRF24L01p_get_status()&_NRF24L01P_STATUS_RX_P_NO)>>1);
 8001466:	f7ff fea6 	bl	80011b6 <NRF24L01p_get_status>
 800146a:	4603      	mov	r3, r0
 800146c:	105b      	asrs	r3, r3, #1
 800146e:	f003 0307 	and.w	r3, r3, #7
 8001472:	b2db      	uxtb	r3, r3
}
 8001474:	4618      	mov	r0, r3
 8001476:	bd80      	pop	{r7, pc}

08001478 <NRF24L01p_set_RX_pipe_address>:
bool NRF24L01p_get_rpd(){
    if(NRF24L01p_read_register(_NRF24L01P_REG_RPD)) return 1;
    else return 0;
}

void NRF24L01p_set_RX_pipe_address(NRF24L01p_pipe_t pipe,NRF24L01p_PipeAddr_t address){
 8001478:	b5f0      	push	{r4, r5, r6, r7, lr}
 800147a:	b089      	sub	sp, #36	; 0x24
 800147c:	af00      	add	r7, sp, #0
 800147e:	4601      	mov	r1, r0
 8001480:	e9c7 2300 	strd	r2, r3, [r7]
 8001484:	460b      	mov	r3, r1
 8001486:	73fb      	strb	r3, [r7, #15]
    int max_pipe_addr_width = 0;
 8001488:	2300      	movs	r3, #0
 800148a:	61fb      	str	r3, [r7, #28]
    if((pipe>=0) && (pipe<=1)   ){max_pipe_addr_width = 5;}
 800148c:	7bfb      	ldrb	r3, [r7, #15]
 800148e:	2b01      	cmp	r3, #1
 8001490:	d802      	bhi.n	8001498 <NRF24L01p_set_RX_pipe_address+0x20>
 8001492:	2305      	movs	r3, #5
 8001494:	61fb      	str	r3, [r7, #28]
 8001496:	e007      	b.n	80014a8 <NRF24L01p_set_RX_pipe_address+0x30>
    else if ((pipe>=2) && (pipe<=5)   ){max_pipe_addr_width = 1;}
 8001498:	7bfb      	ldrb	r3, [r7, #15]
 800149a:	2b01      	cmp	r3, #1
 800149c:	d904      	bls.n	80014a8 <NRF24L01p_set_RX_pipe_address+0x30>
 800149e:	7bfb      	ldrb	r3, [r7, #15]
 80014a0:	2b05      	cmp	r3, #5
 80014a2:	d801      	bhi.n	80014a8 <NRF24L01p_set_RX_pipe_address+0x30>
 80014a4:	2301      	movs	r3, #1
 80014a6:	61fb      	str	r3, [r7, #28]
    uint8_t temp[5];
    int i;
    for(i=0;i<max_pipe_addr_width;i++){
 80014a8:	2300      	movs	r3, #0
 80014aa:	61bb      	str	r3, [r7, #24]
 80014ac:	e01b      	b.n	80014e6 <NRF24L01p_set_RX_pipe_address+0x6e>
            temp[i] = (address>>(8*i))&0xFF;
 80014ae:	69bb      	ldr	r3, [r7, #24]
 80014b0:	00d9      	lsls	r1, r3, #3
 80014b2:	e9d7 2300 	ldrd	r2, r3, [r7]
 80014b6:	f1c1 0620 	rsb	r6, r1, #32
 80014ba:	f1a1 0020 	sub.w	r0, r1, #32
 80014be:	fa22 f401 	lsr.w	r4, r2, r1
 80014c2:	fa03 f606 	lsl.w	r6, r3, r6
 80014c6:	4334      	orrs	r4, r6
 80014c8:	fa23 f000 	lsr.w	r0, r3, r0
 80014cc:	4304      	orrs	r4, r0
 80014ce:	fa23 f501 	lsr.w	r5, r3, r1
 80014d2:	b2e1      	uxtb	r1, r4
 80014d4:	f107 0210 	add.w	r2, r7, #16
 80014d8:	69bb      	ldr	r3, [r7, #24]
 80014da:	4413      	add	r3, r2
 80014dc:	460a      	mov	r2, r1
 80014de:	701a      	strb	r2, [r3, #0]
    for(i=0;i<max_pipe_addr_width;i++){
 80014e0:	69bb      	ldr	r3, [r7, #24]
 80014e2:	3301      	adds	r3, #1
 80014e4:	61bb      	str	r3, [r7, #24]
 80014e6:	69ba      	ldr	r2, [r7, #24]
 80014e8:	69fb      	ldr	r3, [r7, #28]
 80014ea:	429a      	cmp	r2, r3
 80014ec:	dbdf      	blt.n	80014ae <NRF24L01p_set_RX_pipe_address+0x36>
    }
    NRF24L01p_write_register_buffer(_NRF24L01P_REG_RX_ADDR_P0 + pipe,temp,max_pipe_addr_width);
 80014ee:	7bfb      	ldrb	r3, [r7, #15]
 80014f0:	330a      	adds	r3, #10
 80014f2:	b2db      	uxtb	r3, r3
 80014f4:	f107 0110 	add.w	r1, r7, #16
 80014f8:	69fa      	ldr	r2, [r7, #28]
 80014fa:	4618      	mov	r0, r3
 80014fc:	f7ff fd8f 	bl	800101e <NRF24L01p_write_register_buffer>
}
 8001500:	bf00      	nop
 8001502:	3724      	adds	r7, #36	; 0x24
 8001504:	46bd      	mov	sp, r7
 8001506:	bdf0      	pop	{r4, r5, r6, r7, pc}

08001508 <NRF24L01p_set_TX_pipe_address>:
    }

    return temp_addr;
}

void NRF24L01p_set_TX_pipe_address(NRF24L01p_PipeAddr_t address){
 8001508:	b5f0      	push	{r4, r5, r6, r7, lr}
 800150a:	b087      	sub	sp, #28
 800150c:	af00      	add	r7, sp, #0
 800150e:	e9c7 0100 	strd	r0, r1, [r7]
    uint8_t temp[5];
    int i;
    for( i=0;i<5;i++){
 8001512:	2200      	movs	r2, #0
 8001514:	617a      	str	r2, [r7, #20]
 8001516:	e01b      	b.n	8001550 <NRF24L01p_set_TX_pipe_address+0x48>
            temp[i] = (address>>(8*i))&0xFF;
 8001518:	697a      	ldr	r2, [r7, #20]
 800151a:	00d0      	lsls	r0, r2, #3
 800151c:	e897 0006 	ldmia.w	r7, {r1, r2}
 8001520:	f1c0 0620 	rsb	r6, r0, #32
 8001524:	f1a0 0520 	sub.w	r5, r0, #32
 8001528:	fa21 f300 	lsr.w	r3, r1, r0
 800152c:	fa02 f606 	lsl.w	r6, r2, r6
 8001530:	4333      	orrs	r3, r6
 8001532:	fa22 f505 	lsr.w	r5, r2, r5
 8001536:	432b      	orrs	r3, r5
 8001538:	fa22 f400 	lsr.w	r4, r2, r0
 800153c:	b2d8      	uxtb	r0, r3
 800153e:	f107 010c 	add.w	r1, r7, #12
 8001542:	697a      	ldr	r2, [r7, #20]
 8001544:	440a      	add	r2, r1
 8001546:	4601      	mov	r1, r0
 8001548:	7011      	strb	r1, [r2, #0]
    for( i=0;i<5;i++){
 800154a:	697a      	ldr	r2, [r7, #20]
 800154c:	3201      	adds	r2, #1
 800154e:	617a      	str	r2, [r7, #20]
 8001550:	697a      	ldr	r2, [r7, #20]
 8001552:	2a04      	cmp	r2, #4
 8001554:	dde0      	ble.n	8001518 <NRF24L01p_set_TX_pipe_address+0x10>
    }
    NRF24L01p_write_register_buffer(_NRF24L01P_REG_TX_ADDR,temp,5);
 8001556:	f107 030c 	add.w	r3, r7, #12
 800155a:	2205      	movs	r2, #5
 800155c:	4619      	mov	r1, r3
 800155e:	2010      	movs	r0, #16
 8001560:	f7ff fd5d 	bl	800101e <NRF24L01p_write_register_buffer>
}
 8001564:	bf00      	nop
 8001566:	371c      	adds	r7, #28
 8001568:	46bd      	mov	sp, r7
 800156a:	bdf0      	pop	{r4, r5, r6, r7, pc}

0800156c <NRF24L01p_get_RX_pipe_width>:
            *(temp_addr_ptr+i)|= (temp[i]);
    }
    return temp_addr;
}

uint8_t NRF24L01p_get_RX_pipe_width(NRF24L01p_pipe_t pipe){
 800156c:	b580      	push	{r7, lr}
 800156e:	b084      	sub	sp, #16
 8001570:	af00      	add	r7, sp, #0
 8001572:	4603      	mov	r3, r0
 8001574:	71fb      	strb	r3, [r7, #7]
    uint8_t temp;
    NRF24L01p_read_register_buffer((_NRF24L01P_REG_RX_PW_P0+pipe),&temp,sizeof(temp));
 8001576:	79fb      	ldrb	r3, [r7, #7]
 8001578:	3311      	adds	r3, #17
 800157a:	b2db      	uxtb	r3, r3
 800157c:	f107 010f 	add.w	r1, r7, #15
 8001580:	2201      	movs	r2, #1
 8001582:	4618      	mov	r0, r3
 8001584:	f7ff fcfd 	bl	8000f82 <NRF24L01p_read_register_buffer>
    return (temp&(0x3F));
 8001588:	7bfb      	ldrb	r3, [r7, #15]
 800158a:	f003 033f 	and.w	r3, r3, #63	; 0x3f
 800158e:	b2db      	uxtb	r3, r3
}
 8001590:	4618      	mov	r0, r3
 8001592:	3710      	adds	r7, #16
 8001594:	46bd      	mov	sp, r7
 8001596:	bd80      	pop	{r7, pc}

08001598 <NRF24L01p_get_fifo_flag_rx_empty>:

bool NRF24L01p_get_fifo_flag_rx_empty(){
 8001598:	b580      	push	{r7, lr}
 800159a:	af00      	add	r7, sp, #0
    if(NRF24L01p_read_register(_NRF24L01P_REG_FIFO_STATUS)&_NRF24L01P_FIFO_STATUS_RX_EMPTY ) return 1;
 800159c:	2017      	movs	r0, #23
 800159e:	f7ff fccb 	bl	8000f38 <NRF24L01p_read_register>
 80015a2:	4603      	mov	r3, r0
 80015a4:	f003 0301 	and.w	r3, r3, #1
 80015a8:	2b00      	cmp	r3, #0
 80015aa:	d001      	beq.n	80015b0 <NRF24L01p_get_fifo_flag_rx_empty+0x18>
 80015ac:	2301      	movs	r3, #1
 80015ae:	e000      	b.n	80015b2 <NRF24L01p_get_fifo_flag_rx_empty+0x1a>
    else return 0;
 80015b0:	2300      	movs	r3, #0
}
 80015b2:	4618      	mov	r0, r3
 80015b4:	bd80      	pop	{r7, pc}

080015b6 <NRF24L01p_enable_dynamic_payload_pipe>:
bool NRF24L01p_get_fifo_flag_tx_reuse(){
    if(NRF24L01p_read_register(_NRF24L01P_REG_FIFO_STATUS)&_NRF24L01P_FIFO_STATUS_RX_REUSE ) return 1;
    else return 0;
}

void NRF24L01p_enable_dynamic_payload_pipe(NRF24L01p_pipe_t pipe, bool sel){
 80015b6:	b580      	push	{r7, lr}
 80015b8:	b082      	sub	sp, #8
 80015ba:	af00      	add	r7, sp, #0
 80015bc:	4603      	mov	r3, r0
 80015be:	460a      	mov	r2, r1
 80015c0:	71fb      	strb	r3, [r7, #7]
 80015c2:	4613      	mov	r3, r2
 80015c4:	71bb      	strb	r3, [r7, #6]
    if(sel) NRF24L01p_write_register(_NRF24L01P_REG_DYNPD,NRF24L01p_read_register(_NRF24L01P_REG_DYNPD) | (1<<pipe));
 80015c6:	79bb      	ldrb	r3, [r7, #6]
 80015c8:	2b00      	cmp	r3, #0
 80015ca:	d011      	beq.n	80015f0 <NRF24L01p_enable_dynamic_payload_pipe+0x3a>
 80015cc:	201c      	movs	r0, #28
 80015ce:	f7ff fcb3 	bl	8000f38 <NRF24L01p_read_register>
 80015d2:	4603      	mov	r3, r0
 80015d4:	b25a      	sxtb	r2, r3
 80015d6:	79fb      	ldrb	r3, [r7, #7]
 80015d8:	2101      	movs	r1, #1
 80015da:	fa01 f303 	lsl.w	r3, r1, r3
 80015de:	b25b      	sxtb	r3, r3
 80015e0:	4313      	orrs	r3, r2
 80015e2:	b25b      	sxtb	r3, r3
 80015e4:	b2db      	uxtb	r3, r3
 80015e6:	4619      	mov	r1, r3
 80015e8:	201c      	movs	r0, #28
 80015ea:	f7ff fcee 	bl	8000fca <NRF24L01p_write_register>
    else NRF24L01p_write_register(_NRF24L01P_REG_DYNPD,NRF24L01p_read_register(_NRF24L01P_REG_DYNPD) & ~(1<<pipe));

}
 80015ee:	e012      	b.n	8001616 <NRF24L01p_enable_dynamic_payload_pipe+0x60>
    else NRF24L01p_write_register(_NRF24L01P_REG_DYNPD,NRF24L01p_read_register(_NRF24L01P_REG_DYNPD) & ~(1<<pipe));
 80015f0:	201c      	movs	r0, #28
 80015f2:	f7ff fca1 	bl	8000f38 <NRF24L01p_read_register>
 80015f6:	4603      	mov	r3, r0
 80015f8:	b25a      	sxtb	r2, r3
 80015fa:	79fb      	ldrb	r3, [r7, #7]
 80015fc:	2101      	movs	r1, #1
 80015fe:	fa01 f303 	lsl.w	r3, r1, r3
 8001602:	b25b      	sxtb	r3, r3
 8001604:	43db      	mvns	r3, r3
 8001606:	b25b      	sxtb	r3, r3
 8001608:	4013      	ands	r3, r2
 800160a:	b25b      	sxtb	r3, r3
 800160c:	b2db      	uxtb	r3, r3
 800160e:	4619      	mov	r1, r3
 8001610:	201c      	movs	r0, #28
 8001612:	f7ff fcda 	bl	8000fca <NRF24L01p_write_register>
}
 8001616:	bf00      	nop
 8001618:	3708      	adds	r7, #8
 800161a:	46bd      	mov	sp, r7
 800161c:	bd80      	pop	{r7, pc}

0800161e <NRF24L01p_enable_dynamic_payload>:



void NRF24L01p_enable_dynamic_payload(bool sel){
 800161e:	b580      	push	{r7, lr}
 8001620:	b082      	sub	sp, #8
 8001622:	af00      	add	r7, sp, #0
 8001624:	4603      	mov	r3, r0
 8001626:	71fb      	strb	r3, [r7, #7]
    if(sel) NRF24L01p_write_register(_NRF24L01P_REG_FEATURE,NRF24L01p_read_register(_NRF24L01P_REG_FEATURE) | (_NRF24L01_FEATURE_EN_DPL));
 8001628:	79fb      	ldrb	r3, [r7, #7]
 800162a:	2b00      	cmp	r3, #0
 800162c:	d00b      	beq.n	8001646 <NRF24L01p_enable_dynamic_payload+0x28>
 800162e:	201d      	movs	r0, #29
 8001630:	f7ff fc82 	bl	8000f38 <NRF24L01p_read_register>
 8001634:	4603      	mov	r3, r0
 8001636:	f043 0304 	orr.w	r3, r3, #4
 800163a:	b2db      	uxtb	r3, r3
 800163c:	4619      	mov	r1, r3
 800163e:	201d      	movs	r0, #29
 8001640:	f7ff fcc3 	bl	8000fca <NRF24L01p_write_register>
    else NRF24L01p_write_register(_NRF24L01P_REG_FEATURE,NRF24L01p_read_register(_NRF24L01P_REG_FEATURE) & ~_NRF24L01_FEATURE_EN_DPL);

}
 8001644:	e00a      	b.n	800165c <NRF24L01p_enable_dynamic_payload+0x3e>
    else NRF24L01p_write_register(_NRF24L01P_REG_FEATURE,NRF24L01p_read_register(_NRF24L01P_REG_FEATURE) & ~_NRF24L01_FEATURE_EN_DPL);
 8001646:	201d      	movs	r0, #29
 8001648:	f7ff fc76 	bl	8000f38 <NRF24L01p_read_register>
 800164c:	4603      	mov	r3, r0
 800164e:	f023 0304 	bic.w	r3, r3, #4
 8001652:	b2db      	uxtb	r3, r3
 8001654:	4619      	mov	r1, r3
 8001656:	201d      	movs	r0, #29
 8001658:	f7ff fcb7 	bl	8000fca <NRF24L01p_write_register>
}
 800165c:	bf00      	nop
 800165e:	3708      	adds	r7, #8
 8001660:	46bd      	mov	sp, r7
 8001662:	bd80      	pop	{r7, pc}

08001664 <NRF24L01p_enable_payload_with_ack>:



void NRF24L01p_enable_payload_with_ack(bool sel){
 8001664:	b580      	push	{r7, lr}
 8001666:	b082      	sub	sp, #8
 8001668:	af00      	add	r7, sp, #0
 800166a:	4603      	mov	r3, r0
 800166c:	71fb      	strb	r3, [r7, #7]
	if(sel) NRF24L01p_write_register(_NRF24L01P_REG_FEATURE,NRF24L01p_read_register(_NRF24L01P_REG_FEATURE) | (_NRF24L01_FEATURE_EN_ACK_PAY));
 800166e:	79fb      	ldrb	r3, [r7, #7]
 8001670:	2b00      	cmp	r3, #0
 8001672:	d00b      	beq.n	800168c <NRF24L01p_enable_payload_with_ack+0x28>
 8001674:	201d      	movs	r0, #29
 8001676:	f7ff fc5f 	bl	8000f38 <NRF24L01p_read_register>
 800167a:	4603      	mov	r3, r0
 800167c:	f043 0302 	orr.w	r3, r3, #2
 8001680:	b2db      	uxtb	r3, r3
 8001682:	4619      	mov	r1, r3
 8001684:	201d      	movs	r0, #29
 8001686:	f7ff fca0 	bl	8000fca <NRF24L01p_write_register>
	    else NRF24L01p_write_register(_NRF24L01P_REG_FEATURE,NRF24L01p_read_register(_NRF24L01P_REG_FEATURE) & ~_NRF24L01_FEATURE_EN_ACK_PAY);

}
 800168a:	e00a      	b.n	80016a2 <NRF24L01p_enable_payload_with_ack+0x3e>
	    else NRF24L01p_write_register(_NRF24L01P_REG_FEATURE,NRF24L01p_read_register(_NRF24L01P_REG_FEATURE) & ~_NRF24L01_FEATURE_EN_ACK_PAY);
 800168c:	201d      	movs	r0, #29
 800168e:	f7ff fc53 	bl	8000f38 <NRF24L01p_read_register>
 8001692:	4603      	mov	r3, r0
 8001694:	f023 0302 	bic.w	r3, r3, #2
 8001698:	b2db      	uxtb	r3, r3
 800169a:	4619      	mov	r1, r3
 800169c:	201d      	movs	r0, #29
 800169e:	f7ff fc94 	bl	8000fca <NRF24L01p_write_register>
}
 80016a2:	bf00      	nop
 80016a4:	3708      	adds	r7, #8
 80016a6:	46bd      	mov	sp, r7
 80016a8:	bd80      	pop	{r7, pc}

080016aa <NRF24L01p_enable_dynamic_payload_with_no_ack>:



void NRF24L01p_enable_dynamic_payload_with_no_ack(bool sel){
 80016aa:	b580      	push	{r7, lr}
 80016ac:	b082      	sub	sp, #8
 80016ae:	af00      	add	r7, sp, #0
 80016b0:	4603      	mov	r3, r0
 80016b2:	71fb      	strb	r3, [r7, #7]
	if(sel) NRF24L01p_write_register(_NRF24L01P_REG_FEATURE,NRF24L01p_read_register(_NRF24L01P_REG_FEATURE) | (_NRF24L01_FEATURE_EN_DYN_ACK));
 80016b4:	79fb      	ldrb	r3, [r7, #7]
 80016b6:	2b00      	cmp	r3, #0
 80016b8:	d00b      	beq.n	80016d2 <NRF24L01p_enable_dynamic_payload_with_no_ack+0x28>
 80016ba:	201d      	movs	r0, #29
 80016bc:	f7ff fc3c 	bl	8000f38 <NRF24L01p_read_register>
 80016c0:	4603      	mov	r3, r0
 80016c2:	f043 0301 	orr.w	r3, r3, #1
 80016c6:	b2db      	uxtb	r3, r3
 80016c8:	4619      	mov	r1, r3
 80016ca:	201d      	movs	r0, #29
 80016cc:	f7ff fc7d 	bl	8000fca <NRF24L01p_write_register>
	    else NRF24L01p_write_register(_NRF24L01P_REG_FEATURE,NRF24L01p_read_register(_NRF24L01P_REG_FEATURE) & ~_NRF24L01_FEATURE_EN_DYN_ACK);

}
 80016d0:	e00a      	b.n	80016e8 <NRF24L01p_enable_dynamic_payload_with_no_ack+0x3e>
	    else NRF24L01p_write_register(_NRF24L01P_REG_FEATURE,NRF24L01p_read_register(_NRF24L01P_REG_FEATURE) & ~_NRF24L01_FEATURE_EN_DYN_ACK);
 80016d2:	201d      	movs	r0, #29
 80016d4:	f7ff fc30 	bl	8000f38 <NRF24L01p_read_register>
 80016d8:	4603      	mov	r3, r0
 80016da:	f023 0301 	bic.w	r3, r3, #1
 80016de:	b2db      	uxtb	r3, r3
 80016e0:	4619      	mov	r1, r3
 80016e2:	201d      	movs	r0, #29
 80016e4:	f7ff fc71 	bl	8000fca <NRF24L01p_write_register>
}
 80016e8:	bf00      	nop
 80016ea:	3708      	adds	r7, #8
 80016ec:	46bd      	mov	sp, r7
 80016ee:	bd80      	pop	{r7, pc}

080016f0 <NRF24L01p_port_Initialize>:
static GPIO_InitTypeDef nrf24l01p_CSN_pin_Struct = {NRF24L01P_CSN_PIN,GPIO_MODE_OUTPUT_PP,GPIO_NOPULL,GPIO_SPEED_FREQ_LOW,};
static GPIO_InitTypeDef nrf24l01p_IRQ_pin_Struct = {NRF24L01P_IRQ_PIN,GPIO_MODE_IT_FALLING,GPIO_NOPULL,GPIO_SPEED_FREQ_LOW,};



void NRF24L01p_port_Initialize(){
 80016f0:	b580      	push	{r7, lr}
 80016f2:	b082      	sub	sp, #8
 80016f4:	af00      	add	r7, sp, #0
	NRF24L01p_port_SPI_initialize();
 80016f6:	f000 f865 	bl	80017c4 <NRF24L01p_port_SPI_initialize>

	/* Enable GPIOA clock */
	//__HAL_RCC_GPIOA_CLK_ENABLE();
	//__HAL_RCC_GPIOB_CLK_ENABLE();
	__HAL_RCC_GPIOC_CLK_ENABLE();
 80016fa:	4a0c      	ldr	r2, [pc, #48]	; (800172c <NRF24L01p_port_Initialize+0x3c>)
 80016fc:	4b0b      	ldr	r3, [pc, #44]	; (800172c <NRF24L01p_port_Initialize+0x3c>)
 80016fe:	6cdb      	ldr	r3, [r3, #76]	; 0x4c
 8001700:	f043 0304 	orr.w	r3, r3, #4
 8001704:	64d3      	str	r3, [r2, #76]	; 0x4c
 8001706:	4b09      	ldr	r3, [pc, #36]	; (800172c <NRF24L01p_port_Initialize+0x3c>)
 8001708:	6cdb      	ldr	r3, [r3, #76]	; 0x4c
 800170a:	f003 0304 	and.w	r3, r3, #4
 800170e:	607b      	str	r3, [r7, #4]
 8001710:	687b      	ldr	r3, [r7, #4]


	HAL_SPI_Init(&nrf24l01p_SpiHandle);
 8001712:	4807      	ldr	r0, [pc, #28]	; (8001730 <NRF24L01p_port_Initialize+0x40>)
 8001714:	f002 fcac 	bl	8004070 <HAL_SPI_Init>

	NRF24L01p_port_Pin_CE_Initialize();
 8001718:	f000 f80c 	bl	8001734 <NRF24L01p_port_Pin_CE_Initialize>
	NRF24L01p_port_Pin_CSN_Initialize();
 800171c:	f000 f816 	bl	800174c <NRF24L01p_port_Pin_CSN_Initialize>
	NRF24L01p_port_Pin_IRQ_Initialize();
 8001720:	f000 f820 	bl	8001764 <NRF24L01p_port_Pin_IRQ_Initialize>
}
 8001724:	bf00      	nop
 8001726:	3708      	adds	r7, #8
 8001728:	46bd      	mov	sp, r7
 800172a:	bd80      	pop	{r7, pc}
 800172c:	40021000 	.word	0x40021000
 8001730:	20000064 	.word	0x20000064

08001734 <NRF24L01p_port_Pin_CE_Initialize>:
void NRF24L01p_port_DeInitialize(){
	HAL_GPIO_Init(NRF24L01P_CE_PORT, &nrf24l01p_CE_pin_Struct);
}
void NRF24L01p_port_Pin_CE_Initialize(){
 8001734:	b580      	push	{r7, lr}
 8001736:	af00      	add	r7, sp, #0
	HAL_GPIO_Init(NRF24L01P_CE_PORT, &nrf24l01p_CE_pin_Struct);
 8001738:	4902      	ldr	r1, [pc, #8]	; (8001744 <NRF24L01p_port_Pin_CE_Initialize+0x10>)
 800173a:	4803      	ldr	r0, [pc, #12]	; (8001748 <NRF24L01p_port_Pin_CE_Initialize+0x14>)
 800173c:	f000 fa70 	bl	8001c20 <HAL_GPIO_Init>
}
 8001740:	bf00      	nop
 8001742:	bd80      	pop	{r7, pc}
 8001744:	20000000 	.word	0x20000000
 8001748:	48000800 	.word	0x48000800

0800174c <NRF24L01p_port_Pin_CSN_Initialize>:
void NRF24L01p_port_Pin_CSN_Initialize(){
 800174c:	b580      	push	{r7, lr}
 800174e:	af00      	add	r7, sp, #0
	HAL_GPIO_Init(NRF24L01P_CSN_PORT, &nrf24l01p_CSN_pin_Struct);
 8001750:	4902      	ldr	r1, [pc, #8]	; (800175c <NRF24L01p_port_Pin_CSN_Initialize+0x10>)
 8001752:	4803      	ldr	r0, [pc, #12]	; (8001760 <NRF24L01p_port_Pin_CSN_Initialize+0x14>)
 8001754:	f000 fa64 	bl	8001c20 <HAL_GPIO_Init>
}
 8001758:	bf00      	nop
 800175a:	bd80      	pop	{r7, pc}
 800175c:	20000014 	.word	0x20000014
 8001760:	48000800 	.word	0x48000800

08001764 <NRF24L01p_port_Pin_IRQ_Initialize>:
void NRF24L01p_port_Pin_IRQ_Initialize(){
 8001764:	b580      	push	{r7, lr}
 8001766:	af00      	add	r7, sp, #0
	HAL_GPIO_Init(NRF24L01P_IRQ_PORT, &nrf24l01p_IRQ_pin_Struct);
 8001768:	4902      	ldr	r1, [pc, #8]	; (8001774 <NRF24L01p_port_Pin_IRQ_Initialize+0x10>)
 800176a:	4803      	ldr	r0, [pc, #12]	; (8001778 <NRF24L01p_port_Pin_IRQ_Initialize+0x14>)
 800176c:	f000 fa58 	bl	8001c20 <HAL_GPIO_Init>

	//HAL_NVIC_SetPriority(EXTI9_5_IRQn, 10, 0);//------------------------------------------------
	//HAL_NVIC_EnableIRQ(EXTI9_5_IRQn);//---------------------------------------------------------
}
 8001770:	bf00      	nop
 8001772:	bd80      	pop	{r7, pc}
 8001774:	20000028 	.word	0x20000028
 8001778:	48000800 	.word	0x48000800

0800177c <NRF24L01p_port_write_Pin_CE>:
	return HAL_GPIO_ReadPin(NRF24L01P_CE_PORT, NRF24L01P_CE_PIN);
}
bool NRF24L01p_port_read_Pin_CSN(){
	return HAL_GPIO_ReadPin(NRF24L01P_CSN_PORT, NRF24L01P_CSN_PIN);
}
void NRF24L01p_port_write_Pin_CE(bool val){
 800177c:	b580      	push	{r7, lr}
 800177e:	b082      	sub	sp, #8
 8001780:	af00      	add	r7, sp, #0
 8001782:	4603      	mov	r3, r0
 8001784:	71fb      	strb	r3, [r7, #7]
	HAL_GPIO_WritePin(NRF24L01P_CE_PORT, NRF24L01P_CE_PIN, (GPIO_PinState)val);
 8001786:	79fb      	ldrb	r3, [r7, #7]
 8001788:	461a      	mov	r2, r3
 800178a:	f44f 7180 	mov.w	r1, #256	; 0x100
 800178e:	4803      	ldr	r0, [pc, #12]	; (800179c <NRF24L01p_port_write_Pin_CE+0x20>)
 8001790:	f000 fbdc 	bl	8001f4c <HAL_GPIO_WritePin>
}
 8001794:	bf00      	nop
 8001796:	3708      	adds	r7, #8
 8001798:	46bd      	mov	sp, r7
 800179a:	bd80      	pop	{r7, pc}
 800179c:	48000800 	.word	0x48000800

080017a0 <NRF24L01p_port_write_Pin_CSN>:
void NRF24L01p_port_write_Pin_CSN(bool val){
 80017a0:	b580      	push	{r7, lr}
 80017a2:	b082      	sub	sp, #8
 80017a4:	af00      	add	r7, sp, #0
 80017a6:	4603      	mov	r3, r0
 80017a8:	71fb      	strb	r3, [r7, #7]
	HAL_GPIO_WritePin(NRF24L01P_CSN_PORT, NRF24L01P_CSN_PIN, (GPIO_PinState)val);
 80017aa:	79fb      	ldrb	r3, [r7, #7]
 80017ac:	461a      	mov	r2, r3
 80017ae:	f44f 7100 	mov.w	r1, #512	; 0x200
 80017b2:	4803      	ldr	r0, [pc, #12]	; (80017c0 <NRF24L01p_port_write_Pin_CSN+0x20>)
 80017b4:	f000 fbca 	bl	8001f4c <HAL_GPIO_WritePin>
}
 80017b8:	bf00      	nop
 80017ba:	3708      	adds	r7, #8
 80017bc:	46bd      	mov	sp, r7
 80017be:	bd80      	pop	{r7, pc}
 80017c0:	48000800 	.word	0x48000800

080017c4 <NRF24L01p_port_SPI_initialize>:
void NRF24L01p_port_SPI_initialize(){
 80017c4:	b580      	push	{r7, lr}
 80017c6:	b08a      	sub	sp, #40	; 0x28
 80017c8:	af00      	add	r7, sp, #0
	// TODO Auto-generated destructor stub
	/*##-1- Configure the SPI peripheral #######################################*/
	/* Set the SPI parameters */
	nrf24l01p_SpiHandle.Instance               = NRF24L01P_SPIx;
 80017ca:	4b41      	ldr	r3, [pc, #260]	; (80018d0 <NRF24L01p_port_SPI_initialize+0x10c>)
 80017cc:	4a41      	ldr	r2, [pc, #260]	; (80018d4 <NRF24L01p_port_SPI_initialize+0x110>)
 80017ce:	601a      	str	r2, [r3, #0]
	nrf24l01p_SpiHandle.Init.BaudRatePrescaler = SPI_BAUDRATEPRESCALER_256;
 80017d0:	4b3f      	ldr	r3, [pc, #252]	; (80018d0 <NRF24L01p_port_SPI_initialize+0x10c>)
 80017d2:	2238      	movs	r2, #56	; 0x38
 80017d4:	61da      	str	r2, [r3, #28]
	nrf24l01p_SpiHandle.Init.Direction         = SPI_DIRECTION_2LINES;
 80017d6:	4b3e      	ldr	r3, [pc, #248]	; (80018d0 <NRF24L01p_port_SPI_initialize+0x10c>)
 80017d8:	2200      	movs	r2, #0
 80017da:	609a      	str	r2, [r3, #8]
	nrf24l01p_SpiHandle.Init.CLKPhase          = SPI_PHASE_1EDGE;
 80017dc:	4b3c      	ldr	r3, [pc, #240]	; (80018d0 <NRF24L01p_port_SPI_initialize+0x10c>)
 80017de:	2200      	movs	r2, #0
 80017e0:	615a      	str	r2, [r3, #20]
	nrf24l01p_SpiHandle.Init.CLKPolarity       = SPI_POLARITY_LOW;
 80017e2:	4b3b      	ldr	r3, [pc, #236]	; (80018d0 <NRF24L01p_port_SPI_initialize+0x10c>)
 80017e4:	2200      	movs	r2, #0
 80017e6:	611a      	str	r2, [r3, #16]
	nrf24l01p_SpiHandle.Init.DataSize          = SPI_DATASIZE_8BIT;
 80017e8:	4b39      	ldr	r3, [pc, #228]	; (80018d0 <NRF24L01p_port_SPI_initialize+0x10c>)
 80017ea:	f44f 62e0 	mov.w	r2, #1792	; 0x700
 80017ee:	60da      	str	r2, [r3, #12]
	nrf24l01p_SpiHandle.Init.FirstBit          = SPI_FIRSTBIT_MSB;
 80017f0:	4b37      	ldr	r3, [pc, #220]	; (80018d0 <NRF24L01p_port_SPI_initialize+0x10c>)
 80017f2:	2200      	movs	r2, #0
 80017f4:	621a      	str	r2, [r3, #32]
	nrf24l01p_SpiHandle.Init.TIMode            = SPI_TIMODE_DISABLE;
 80017f6:	4b36      	ldr	r3, [pc, #216]	; (80018d0 <NRF24L01p_port_SPI_initialize+0x10c>)
 80017f8:	2200      	movs	r2, #0
 80017fa:	625a      	str	r2, [r3, #36]	; 0x24
	nrf24l01p_SpiHandle.Init.CRCCalculation    = SPI_CRCCALCULATION_DISABLE;
 80017fc:	4b34      	ldr	r3, [pc, #208]	; (80018d0 <NRF24L01p_port_SPI_initialize+0x10c>)
 80017fe:	2200      	movs	r2, #0
 8001800:	629a      	str	r2, [r3, #40]	; 0x28
	nrf24l01p_SpiHandle.Init.CRCPolynomial     = 7;
 8001802:	4b33      	ldr	r3, [pc, #204]	; (80018d0 <NRF24L01p_port_SPI_initialize+0x10c>)
 8001804:	2207      	movs	r2, #7
 8001806:	62da      	str	r2, [r3, #44]	; 0x2c
	//nrf24l01p_SpiHandle.Init.CRCLength         = SPI_CRC_LENGTH_8BIT;
	nrf24l01p_SpiHandle.Init.NSS               = SPI_NSS_SOFT;
 8001808:	4b31      	ldr	r3, [pc, #196]	; (80018d0 <NRF24L01p_port_SPI_initialize+0x10c>)
 800180a:	f44f 7200 	mov.w	r2, #512	; 0x200
 800180e:	619a      	str	r2, [r3, #24]
	//nrf24l01p_SpiHandle.Init.NSSPMode          = SPI_NSS_PULSE_DISABLE;

	nrf24l01p_SpiHandle.Init.Mode = SPI_MODE_MASTER;
 8001810:	4b2f      	ldr	r3, [pc, #188]	; (80018d0 <NRF24L01p_port_SPI_initialize+0x10c>)
 8001812:	f44f 7282 	mov.w	r2, #260	; 0x104
 8001816:	605a      	str	r2, [r3, #4]

	GPIO_InitTypeDef  GPIO_InitStruct;

	/*##-1- Enable peripherals and GPIO Clocks #################################*/
	/* Enable GPIO TX/RX clock */
	NRF24L01P_SPIx_SCK_GPIO_CLK_ENABLE();
 8001818:	4a2f      	ldr	r2, [pc, #188]	; (80018d8 <NRF24L01p_port_SPI_initialize+0x114>)
 800181a:	4b2f      	ldr	r3, [pc, #188]	; (80018d8 <NRF24L01p_port_SPI_initialize+0x114>)
 800181c:	6cdb      	ldr	r3, [r3, #76]	; 0x4c
 800181e:	f043 0304 	orr.w	r3, r3, #4
 8001822:	64d3      	str	r3, [r2, #76]	; 0x4c
 8001824:	4b2c      	ldr	r3, [pc, #176]	; (80018d8 <NRF24L01p_port_SPI_initialize+0x114>)
 8001826:	6cdb      	ldr	r3, [r3, #76]	; 0x4c
 8001828:	f003 0304 	and.w	r3, r3, #4
 800182c:	613b      	str	r3, [r7, #16]
 800182e:	693b      	ldr	r3, [r7, #16]
	NRF24L01P_SPIx_MISO_GPIO_CLK_ENABLE();
 8001830:	4a29      	ldr	r2, [pc, #164]	; (80018d8 <NRF24L01p_port_SPI_initialize+0x114>)
 8001832:	4b29      	ldr	r3, [pc, #164]	; (80018d8 <NRF24L01p_port_SPI_initialize+0x114>)
 8001834:	6cdb      	ldr	r3, [r3, #76]	; 0x4c
 8001836:	f043 0304 	orr.w	r3, r3, #4
 800183a:	64d3      	str	r3, [r2, #76]	; 0x4c
 800183c:	4b26      	ldr	r3, [pc, #152]	; (80018d8 <NRF24L01p_port_SPI_initialize+0x114>)
 800183e:	6cdb      	ldr	r3, [r3, #76]	; 0x4c
 8001840:	f003 0304 	and.w	r3, r3, #4
 8001844:	60fb      	str	r3, [r7, #12]
 8001846:	68fb      	ldr	r3, [r7, #12]
	NRF24L01P_SPIx_MOSI_GPIO_CLK_ENABLE();
 8001848:	4a23      	ldr	r2, [pc, #140]	; (80018d8 <NRF24L01p_port_SPI_initialize+0x114>)
 800184a:	4b23      	ldr	r3, [pc, #140]	; (80018d8 <NRF24L01p_port_SPI_initialize+0x114>)
 800184c:	6cdb      	ldr	r3, [r3, #76]	; 0x4c
 800184e:	f043 0304 	orr.w	r3, r3, #4
 8001852:	64d3      	str	r3, [r2, #76]	; 0x4c
 8001854:	4b20      	ldr	r3, [pc, #128]	; (80018d8 <NRF24L01p_port_SPI_initialize+0x114>)
 8001856:	6cdb      	ldr	r3, [r3, #76]	; 0x4c
 8001858:	f003 0304 	and.w	r3, r3, #4
 800185c:	60bb      	str	r3, [r7, #8]
 800185e:	68bb      	ldr	r3, [r7, #8]
	/* Enable SPI clock */
	NRF24L01P_SPIx_CLK_ENABLE();
 8001860:	4a1d      	ldr	r2, [pc, #116]	; (80018d8 <NRF24L01p_port_SPI_initialize+0x114>)
 8001862:	4b1d      	ldr	r3, [pc, #116]	; (80018d8 <NRF24L01p_port_SPI_initialize+0x114>)
 8001864:	6d9b      	ldr	r3, [r3, #88]	; 0x58
 8001866:	f443 4300 	orr.w	r3, r3, #32768	; 0x8000
 800186a:	6593      	str	r3, [r2, #88]	; 0x58
 800186c:	4b1a      	ldr	r3, [pc, #104]	; (80018d8 <NRF24L01p_port_SPI_initialize+0x114>)
 800186e:	6d9b      	ldr	r3, [r3, #88]	; 0x58
 8001870:	f403 4300 	and.w	r3, r3, #32768	; 0x8000
 8001874:	607b      	str	r3, [r7, #4]
 8001876:	687b      	ldr	r3, [r7, #4]

	/*##-2- Configure peripheral GPIO ##########################################*/
	/* SPI SCK GPIO pin configuration  */
	GPIO_InitStruct.Pin       = NRF24L01P_SPIx_SCK_PIN;
 8001878:	f44f 6380 	mov.w	r3, #1024	; 0x400
 800187c:	617b      	str	r3, [r7, #20]
	GPIO_InitStruct.Mode      = GPIO_MODE_AF_PP;
 800187e:	2302      	movs	r3, #2
 8001880:	61bb      	str	r3, [r7, #24]
	GPIO_InitStruct.Pull      = GPIO_PULLDOWN;
 8001882:	2302      	movs	r3, #2
 8001884:	61fb      	str	r3, [r7, #28]
	GPIO_InitStruct.Speed     = GPIO_SPEED_FREQ_HIGH;
 8001886:	2302      	movs	r3, #2
 8001888:	623b      	str	r3, [r7, #32]
	GPIO_InitStruct.Alternate = NRF24L01P_SPIx_SCK_AF;
 800188a:	2306      	movs	r3, #6
 800188c:	627b      	str	r3, [r7, #36]	; 0x24
	HAL_GPIO_Init(NRF24L01P_SPIx_SCK_GPIO_PORT, &GPIO_InitStruct);
 800188e:	f107 0314 	add.w	r3, r7, #20
 8001892:	4619      	mov	r1, r3
 8001894:	4811      	ldr	r0, [pc, #68]	; (80018dc <NRF24L01p_port_SPI_initialize+0x118>)
 8001896:	f000 f9c3 	bl	8001c20 <HAL_GPIO_Init>

	/* SPI MISO GPIO pin configuration  */
	GPIO_InitStruct.Pin = NRF24L01P_SPIx_MISO_PIN;
 800189a:	f44f 6300 	mov.w	r3, #2048	; 0x800
 800189e:	617b      	str	r3, [r7, #20]
	GPIO_InitStruct.Alternate = NRF24L01P_SPIx_MISO_AF;
 80018a0:	2306      	movs	r3, #6
 80018a2:	627b      	str	r3, [r7, #36]	; 0x24
	HAL_GPIO_Init(NRF24L01P_SPIx_MISO_GPIO_PORT, &GPIO_InitStruct);
 80018a4:	f107 0314 	add.w	r3, r7, #20
 80018a8:	4619      	mov	r1, r3
 80018aa:	480c      	ldr	r0, [pc, #48]	; (80018dc <NRF24L01p_port_SPI_initialize+0x118>)
 80018ac:	f000 f9b8 	bl	8001c20 <HAL_GPIO_Init>

	/* SPI MOSI GPIO pin configuration  */
	GPIO_InitStruct.Pin = NRF24L01P_SPIx_MOSI_PIN;
 80018b0:	f44f 5380 	mov.w	r3, #4096	; 0x1000
 80018b4:	617b      	str	r3, [r7, #20]
	GPIO_InitStruct.Alternate = NRF24L01P_SPIx_MOSI_AF;
 80018b6:	2306      	movs	r3, #6
 80018b8:	627b      	str	r3, [r7, #36]	; 0x24
	HAL_GPIO_Init(NRF24L01P_SPIx_MOSI_GPIO_PORT, &GPIO_InitStruct);
 80018ba:	f107 0314 	add.w	r3, r7, #20
 80018be:	4619      	mov	r1, r3
 80018c0:	4806      	ldr	r0, [pc, #24]	; (80018dc <NRF24L01p_port_SPI_initialize+0x118>)
 80018c2:	f000 f9ad 	bl	8001c20 <HAL_GPIO_Init>
}
 80018c6:	bf00      	nop
 80018c8:	3728      	adds	r7, #40	; 0x28
 80018ca:	46bd      	mov	sp, r7
 80018cc:	bd80      	pop	{r7, pc}
 80018ce:	bf00      	nop
 80018d0:	20000064 	.word	0x20000064
 80018d4:	40003c00 	.word	0x40003c00
 80018d8:	40021000 	.word	0x40021000
 80018dc:	48000800 	.word	0x48000800

080018e0 <NRF24L01p_port_SPI_Transcieve>:
int NRF24L01p_port_SPI_Transcieve(uint8_t *dataOut, uint8_t *dataIn, unsigned int size){
 80018e0:	b580      	push	{r7, lr}
 80018e2:	b086      	sub	sp, #24
 80018e4:	af02      	add	r7, sp, #8
 80018e6:	60f8      	str	r0, [r7, #12]
 80018e8:	60b9      	str	r1, [r7, #8]
 80018ea:	607a      	str	r2, [r7, #4]
	return HAL_SPI_TransmitReceive(&nrf24l01p_SpiHandle, dataOut, dataIn, size,1000);
 80018ec:	687b      	ldr	r3, [r7, #4]
 80018ee:	b29a      	uxth	r2, r3
 80018f0:	f44f 737a 	mov.w	r3, #1000	; 0x3e8
 80018f4:	9300      	str	r3, [sp, #0]
 80018f6:	4613      	mov	r3, r2
 80018f8:	68ba      	ldr	r2, [r7, #8]
 80018fa:	68f9      	ldr	r1, [r7, #12]
 80018fc:	4803      	ldr	r0, [pc, #12]	; (800190c <NRF24L01p_port_SPI_Transcieve+0x2c>)
 80018fe:	f002 fd95 	bl	800442c <HAL_SPI_TransmitReceive>
 8001902:	4603      	mov	r3, r0
}
 8001904:	4618      	mov	r0, r3
 8001906:	3710      	adds	r7, #16
 8001908:	46bd      	mov	sp, r7
 800190a:	bd80      	pop	{r7, pc}
 800190c:	20000064 	.word	0x20000064

08001910 <NRF24L01p_port_DelayMs>:
int NRF24L01p_port_SPI_Receive(uint8_t *data, unsigned int size){
	HAL_SPI_Receive(&nrf24l01p_SpiHandle, data, size, 1000);
}


void NRF24L01p_port_DelayMs(unsigned int ms){
 8001910:	b580      	push	{r7, lr}
 8001912:	b082      	sub	sp, #8
 8001914:	af00      	add	r7, sp, #0
 8001916:	6078      	str	r0, [r7, #4]
	HAL_Delay(ms);
 8001918:	6878      	ldr	r0, [r7, #4]
 800191a:	f000 f85f 	bl	80019dc <HAL_Delay>
	//vTaskDelay ((ms / portTICK_PERIOD_MS));

}
 800191e:	bf00      	nop
 8001920:	3708      	adds	r7, #8
 8001922:	46bd      	mov	sp, r7
 8001924:	bd80      	pop	{r7, pc}
	...

08001928 <NRF24L01p_port_DelayUs>:
void NRF24L01p_port_DelayUs(unsigned int us){
 8001928:	b580      	push	{r7, lr}
 800192a:	b084      	sub	sp, #16
 800192c:	af00      	add	r7, sp, #0
 800192e:	6078      	str	r0, [r7, #4]
	unsigned int ms = us/1000;
 8001930:	687b      	ldr	r3, [r7, #4]
 8001932:	4a07      	ldr	r2, [pc, #28]	; (8001950 <NRF24L01p_port_DelayUs+0x28>)
 8001934:	fba2 2303 	umull	r2, r3, r2, r3
 8001938:	099b      	lsrs	r3, r3, #6
 800193a:	60fb      	str	r3, [r7, #12]
	HAL_Delay(ms + 1);
 800193c:	68fb      	ldr	r3, [r7, #12]
 800193e:	3301      	adds	r3, #1
 8001940:	4618      	mov	r0, r3
 8001942:	f000 f84b 	bl	80019dc <HAL_Delay>
	//vTaskDelay (( ms / portTICK_PERIOD_MS));
}
 8001946:	bf00      	nop
 8001948:	3710      	adds	r7, #16
 800194a:	46bd      	mov	sp, r7
 800194c:	bd80      	pop	{r7, pc}
 800194e:	bf00      	nop
 8001950:	10624dd3 	.word	0x10624dd3

08001954 <HAL_Init>:
  *         each 1ms in the SysTick_Handler() interrupt handler.
  *
  * @retval HAL status
  */
HAL_StatusTypeDef HAL_Init(void)
{
 8001954:	b580      	push	{r7, lr}
 8001956:	af00      	add	r7, sp, #0
#if (PREFETCH_ENABLE != 0)
  __HAL_FLASH_PREFETCH_BUFFER_ENABLE();
#endif /* PREFETCH_ENABLE */

  /* Set Interrupt Group Priority */
  HAL_NVIC_SetPriorityGrouping(NVIC_PRIORITYGROUP_4);
 8001958:	2003      	movs	r0, #3
 800195a:	f000 f91f 	bl	8001b9c <HAL_NVIC_SetPriorityGrouping>

  /* Use SysTick as time base source and configure 1ms tick (default clock after Reset is MSI) */
  HAL_InitTick(TICK_INT_PRIORITY);
 800195e:	2000      	movs	r0, #0
 8001960:	f000 f806 	bl	8001970 <HAL_InitTick>

  /* Init the low level hardware */
  HAL_MspInit();
 8001964:	f005 ff52 	bl	800780c <HAL_MspInit>

  /* Return function status */
  return HAL_OK;
 8001968:	2300      	movs	r3, #0
}
 800196a:	4618      	mov	r0, r3
 800196c:	bd80      	pop	{r7, pc}
	...

08001970 <HAL_InitTick>:
  *       implementation  in user file.
  * @param TickPriority: Tick interrupt priority.
  * @retval HAL status
  */
__weak HAL_StatusTypeDef HAL_InitTick(uint32_t TickPriority)
{
 8001970:	b580      	push	{r7, lr}
 8001972:	b082      	sub	sp, #8
 8001974:	af00      	add	r7, sp, #0
 8001976:	6078      	str	r0, [r7, #4]
  /*Configure the SysTick to have interrupt in 1ms time basis*/
  HAL_SYSTICK_Config(SystemCoreClock/1000);
 8001978:	4b09      	ldr	r3, [pc, #36]	; (80019a0 <HAL_InitTick+0x30>)
 800197a:	681b      	ldr	r3, [r3, #0]
 800197c:	4a09      	ldr	r2, [pc, #36]	; (80019a4 <HAL_InitTick+0x34>)
 800197e:	fba2 2303 	umull	r2, r3, r2, r3
 8001982:	099b      	lsrs	r3, r3, #6
 8001984:	4618      	mov	r0, r3
 8001986:	f000 f93e 	bl	8001c06 <HAL_SYSTICK_Config>

  /*Configure the SysTick IRQ priority */
  HAL_NVIC_SetPriority(SysTick_IRQn, TickPriority ,0);
 800198a:	2200      	movs	r2, #0
 800198c:	6879      	ldr	r1, [r7, #4]
 800198e:	f04f 30ff 	mov.w	r0, #4294967295
 8001992:	f000 f90e 	bl	8001bb2 <HAL_NVIC_SetPriority>

  /* Return function status */
  return HAL_OK;
 8001996:	2300      	movs	r3, #0
}
 8001998:	4618      	mov	r0, r3
 800199a:	3708      	adds	r7, #8
 800199c:	46bd      	mov	sp, r7
 800199e:	bd80      	pop	{r7, pc}
 80019a0:	20000044 	.word	0x20000044
 80019a4:	10624dd3 	.word	0x10624dd3

080019a8 <HAL_IncTick>:
 * @note This function is declared as __weak to be overwritten in case of other
  *      implementations in user file.
  * @retval None
  */
__weak void HAL_IncTick(void)
{
 80019a8:	b480      	push	{r7}
 80019aa:	af00      	add	r7, sp, #0
  uwTick++;
 80019ac:	4b04      	ldr	r3, [pc, #16]	; (80019c0 <HAL_IncTick+0x18>)
 80019ae:	681b      	ldr	r3, [r3, #0]
 80019b0:	3301      	adds	r3, #1
 80019b2:	4a03      	ldr	r2, [pc, #12]	; (80019c0 <HAL_IncTick+0x18>)
 80019b4:	6013      	str	r3, [r2, #0]
}
 80019b6:	bf00      	nop
 80019b8:	46bd      	mov	sp, r7
 80019ba:	f85d 7b04 	ldr.w	r7, [sp], #4
 80019be:	4770      	bx	lr
 80019c0:	20008040 	.word	0x20008040

080019c4 <HAL_GetTick>:
  * @note This function is declared as __weak to be overwritten in case of other
  *       implementations in user file.
  * @retval tick value
  */
__weak uint32_t HAL_GetTick(void)
{
 80019c4:	b480      	push	{r7}
 80019c6:	af00      	add	r7, sp, #0
  return uwTick;
 80019c8:	4b03      	ldr	r3, [pc, #12]	; (80019d8 <HAL_GetTick+0x14>)
 80019ca:	681b      	ldr	r3, [r3, #0]
}
 80019cc:	4618      	mov	r0, r3
 80019ce:	46bd      	mov	sp, r7
 80019d0:	f85d 7b04 	ldr.w	r7, [sp], #4
 80019d4:	4770      	bx	lr
 80019d6:	bf00      	nop
 80019d8:	20008040 	.word	0x20008040

080019dc <HAL_Delay>:
  *       implementations in user file.
  * @param Delay: specifies the delay time length, in milliseconds.
  * @retval None
  */
__weak void HAL_Delay(uint32_t Delay)
{
 80019dc:	b580      	push	{r7, lr}
 80019de:	b084      	sub	sp, #16
 80019e0:	af00      	add	r7, sp, #0
 80019e2:	6078      	str	r0, [r7, #4]
  uint32_t tickstart = 0;
 80019e4:	2300      	movs	r3, #0
 80019e6:	60fb      	str	r3, [r7, #12]
  tickstart = HAL_GetTick();
 80019e8:	f7ff ffec 	bl	80019c4 <HAL_GetTick>
 80019ec:	60f8      	str	r0, [r7, #12]
  while((HAL_GetTick() - tickstart) < Delay)
 80019ee:	bf00      	nop
 80019f0:	f7ff ffe8 	bl	80019c4 <HAL_GetTick>
 80019f4:	4602      	mov	r2, r0
 80019f6:	68fb      	ldr	r3, [r7, #12]
 80019f8:	1ad2      	subs	r2, r2, r3
 80019fa:	687b      	ldr	r3, [r7, #4]
 80019fc:	429a      	cmp	r2, r3
 80019fe:	d3f7      	bcc.n	80019f0 <HAL_Delay+0x14>
  {
  }
}
 8001a00:	bf00      	nop
 8001a02:	3710      	adds	r7, #16
 8001a04:	46bd      	mov	sp, r7
 8001a06:	bd80      	pop	{r7, pc}

08001a08 <NVIC_SetPriorityGrouping>:
           In case of a conflict between priority grouping and available
           priority bits (__NVIC_PRIO_BITS), the smallest possible priority group is set.
  \param [in]      PriorityGroup  Priority grouping field.
 */
__STATIC_INLINE void NVIC_SetPriorityGrouping(uint32_t PriorityGroup)
{
 8001a08:	b480      	push	{r7}
 8001a0a:	b085      	sub	sp, #20
 8001a0c:	af00      	add	r7, sp, #0
 8001a0e:	6078      	str	r0, [r7, #4]
  uint32_t reg_value;
  uint32_t PriorityGroupTmp = (PriorityGroup & (uint32_t)0x07UL);             /* only values 0..7 are used          */
 8001a10:	687b      	ldr	r3, [r7, #4]
 8001a12:	f003 0307 	and.w	r3, r3, #7
 8001a16:	60fb      	str	r3, [r7, #12]

  reg_value  =  SCB->AIRCR;                                                   /* read old register configuration    */
 8001a18:	4b0c      	ldr	r3, [pc, #48]	; (8001a4c <NVIC_SetPriorityGrouping+0x44>)
 8001a1a:	68db      	ldr	r3, [r3, #12]
 8001a1c:	60bb      	str	r3, [r7, #8]
  reg_value &= ~((uint32_t)(SCB_AIRCR_VECTKEY_Msk | SCB_AIRCR_PRIGROUP_Msk)); /* clear bits to change               */
 8001a1e:	68ba      	ldr	r2, [r7, #8]
 8001a20:	f64f 03ff 	movw	r3, #63743	; 0xf8ff
 8001a24:	4013      	ands	r3, r2
 8001a26:	60bb      	str	r3, [r7, #8]
  reg_value  =  (reg_value                                   |
                ((uint32_t)0x5FAUL << SCB_AIRCR_VECTKEY_Pos) |
                (PriorityGroupTmp << 8U)                      );              /* Insert write key and priorty group */
 8001a28:	68fb      	ldr	r3, [r7, #12]
 8001a2a:	021a      	lsls	r2, r3, #8
                ((uint32_t)0x5FAUL << SCB_AIRCR_VECTKEY_Pos) |
 8001a2c:	68bb      	ldr	r3, [r7, #8]
 8001a2e:	4313      	orrs	r3, r2
  reg_value  =  (reg_value                                   |
 8001a30:	f043 63bf 	orr.w	r3, r3, #100139008	; 0x5f80000
 8001a34:	f443 3300 	orr.w	r3, r3, #131072	; 0x20000
 8001a38:	60bb      	str	r3, [r7, #8]
  SCB->AIRCR =  reg_value;
 8001a3a:	4a04      	ldr	r2, [pc, #16]	; (8001a4c <NVIC_SetPriorityGrouping+0x44>)
 8001a3c:	68bb      	ldr	r3, [r7, #8]
 8001a3e:	60d3      	str	r3, [r2, #12]
}
 8001a40:	bf00      	nop
 8001a42:	3714      	adds	r7, #20
 8001a44:	46bd      	mov	sp, r7
 8001a46:	f85d 7b04 	ldr.w	r7, [sp], #4
 8001a4a:	4770      	bx	lr
 8001a4c:	e000ed00 	.word	0xe000ed00

08001a50 <NVIC_GetPriorityGrouping>:
  \brief   Get Priority Grouping
  \details Reads the priority grouping field from the NVIC Interrupt Controller.
  \return                Priority grouping field (SCB->AIRCR [10:8] PRIGROUP field).
 */
__STATIC_INLINE uint32_t NVIC_GetPriorityGrouping(void)
{
 8001a50:	b480      	push	{r7}
 8001a52:	af00      	add	r7, sp, #0
  return ((uint32_t)((SCB->AIRCR & SCB_AIRCR_PRIGROUP_Msk) >> SCB_AIRCR_PRIGROUP_Pos));
 8001a54:	4b04      	ldr	r3, [pc, #16]	; (8001a68 <NVIC_GetPriorityGrouping+0x18>)
 8001a56:	68db      	ldr	r3, [r3, #12]
 8001a58:	0a1b      	lsrs	r3, r3, #8
 8001a5a:	f003 0307 	and.w	r3, r3, #7
}
 8001a5e:	4618      	mov	r0, r3
 8001a60:	46bd      	mov	sp, r7
 8001a62:	f85d 7b04 	ldr.w	r7, [sp], #4
 8001a66:	4770      	bx	lr
 8001a68:	e000ed00 	.word	0xe000ed00

08001a6c <NVIC_EnableIRQ>:
  \brief   Enable External Interrupt
  \details Enables a device-specific interrupt in the NVIC interrupt controller.
  \param [in]      IRQn  External interrupt number. Value cannot be negative.
 */
__STATIC_INLINE void NVIC_EnableIRQ(IRQn_Type IRQn)
{
 8001a6c:	b480      	push	{r7}
 8001a6e:	b083      	sub	sp, #12
 8001a70:	af00      	add	r7, sp, #0
 8001a72:	4603      	mov	r3, r0
 8001a74:	71fb      	strb	r3, [r7, #7]
  NVIC->ISER[(((uint32_t)(int32_t)IRQn) >> 5UL)] = (uint32_t)(1UL << (((uint32_t)(int32_t)IRQn) & 0x1FUL));
 8001a76:	4909      	ldr	r1, [pc, #36]	; (8001a9c <NVIC_EnableIRQ+0x30>)
 8001a78:	f997 3007 	ldrsb.w	r3, [r7, #7]
 8001a7c:	095b      	lsrs	r3, r3, #5
 8001a7e:	79fa      	ldrb	r2, [r7, #7]
 8001a80:	f002 021f 	and.w	r2, r2, #31
 8001a84:	2001      	movs	r0, #1
 8001a86:	fa00 f202 	lsl.w	r2, r0, r2
 8001a8a:	f841 2023 	str.w	r2, [r1, r3, lsl #2]
}
 8001a8e:	bf00      	nop
 8001a90:	370c      	adds	r7, #12
 8001a92:	46bd      	mov	sp, r7
 8001a94:	f85d 7b04 	ldr.w	r7, [sp], #4
 8001a98:	4770      	bx	lr
 8001a9a:	bf00      	nop
 8001a9c:	e000e100 	.word	0xe000e100

08001aa0 <NVIC_SetPriority>:
  \note    The priority cannot be set for every core interrupt.
  \param [in]      IRQn  Interrupt number.
  \param [in]  priority  Priority to set.
 */
__STATIC_INLINE void NVIC_SetPriority(IRQn_Type IRQn, uint32_t priority)
{
 8001aa0:	b480      	push	{r7}
 8001aa2:	b083      	sub	sp, #12
 8001aa4:	af00      	add	r7, sp, #0
 8001aa6:	4603      	mov	r3, r0
 8001aa8:	6039      	str	r1, [r7, #0]
 8001aaa:	71fb      	strb	r3, [r7, #7]
  if ((int32_t)(IRQn) < 0)
 8001aac:	f997 3007 	ldrsb.w	r3, [r7, #7]
 8001ab0:	2b00      	cmp	r3, #0
 8001ab2:	da0b      	bge.n	8001acc <NVIC_SetPriority+0x2c>
  {
    SCB->SHP[(((uint32_t)(int32_t)IRQn) & 0xFUL)-4UL] = (uint8_t)((priority << (8U - __NVIC_PRIO_BITS)) & (uint32_t)0xFFUL);
 8001ab4:	490d      	ldr	r1, [pc, #52]	; (8001aec <NVIC_SetPriority+0x4c>)
 8001ab6:	79fb      	ldrb	r3, [r7, #7]
 8001ab8:	f003 030f 	and.w	r3, r3, #15
 8001abc:	3b04      	subs	r3, #4
 8001abe:	683a      	ldr	r2, [r7, #0]
 8001ac0:	b2d2      	uxtb	r2, r2
 8001ac2:	0112      	lsls	r2, r2, #4
 8001ac4:	b2d2      	uxtb	r2, r2
 8001ac6:	440b      	add	r3, r1
 8001ac8:	761a      	strb	r2, [r3, #24]
  }
  else
  {
    NVIC->IP[((uint32_t)(int32_t)IRQn)]               = (uint8_t)((priority << (8U - __NVIC_PRIO_BITS)) & (uint32_t)0xFFUL);
  }
}
 8001aca:	e009      	b.n	8001ae0 <NVIC_SetPriority+0x40>
    NVIC->IP[((uint32_t)(int32_t)IRQn)]               = (uint8_t)((priority << (8U - __NVIC_PRIO_BITS)) & (uint32_t)0xFFUL);
 8001acc:	4908      	ldr	r1, [pc, #32]	; (8001af0 <NVIC_SetPriority+0x50>)
 8001ace:	f997 3007 	ldrsb.w	r3, [r7, #7]
 8001ad2:	683a      	ldr	r2, [r7, #0]
 8001ad4:	b2d2      	uxtb	r2, r2
 8001ad6:	0112      	lsls	r2, r2, #4
 8001ad8:	b2d2      	uxtb	r2, r2
 8001ada:	440b      	add	r3, r1
 8001adc:	f883 2300 	strb.w	r2, [r3, #768]	; 0x300
}
 8001ae0:	bf00      	nop
 8001ae2:	370c      	adds	r7, #12
 8001ae4:	46bd      	mov	sp, r7
 8001ae6:	f85d 7b04 	ldr.w	r7, [sp], #4
 8001aea:	4770      	bx	lr
 8001aec:	e000ed00 	.word	0xe000ed00
 8001af0:	e000e100 	.word	0xe000e100

08001af4 <NVIC_EncodePriority>:
  \param [in]   PreemptPriority  Preemptive priority value (starting from 0).
  \param [in]       SubPriority  Subpriority value (starting from 0).
  \return                        Encoded priority. Value can be used in the function \ref NVIC_SetPriority().
 */
__STATIC_INLINE uint32_t NVIC_EncodePriority (uint32_t PriorityGroup, uint32_t PreemptPriority, uint32_t SubPriority)
{
 8001af4:	b480      	push	{r7}
 8001af6:	b089      	sub	sp, #36	; 0x24
 8001af8:	af00      	add	r7, sp, #0
 8001afa:	60f8      	str	r0, [r7, #12]
 8001afc:	60b9      	str	r1, [r7, #8]
 8001afe:	607a      	str	r2, [r7, #4]
  uint32_t PriorityGroupTmp = (PriorityGroup & (uint32_t)0x07UL);   /* only values 0..7 are used          */
 8001b00:	68fb      	ldr	r3, [r7, #12]
 8001b02:	f003 0307 	and.w	r3, r3, #7
 8001b06:	61fb      	str	r3, [r7, #28]
  uint32_t PreemptPriorityBits;
  uint32_t SubPriorityBits;

  PreemptPriorityBits = ((7UL - PriorityGroupTmp) > (uint32_t)(__NVIC_PRIO_BITS)) ? (uint32_t)(__NVIC_PRIO_BITS) : (uint32_t)(7UL - PriorityGroupTmp);
 8001b08:	69fb      	ldr	r3, [r7, #28]
 8001b0a:	f1c3 0307 	rsb	r3, r3, #7
 8001b0e:	2b04      	cmp	r3, #4
 8001b10:	bf28      	it	cs
 8001b12:	2304      	movcs	r3, #4
 8001b14:	61bb      	str	r3, [r7, #24]
  SubPriorityBits     = ((PriorityGroupTmp + (uint32_t)(__NVIC_PRIO_BITS)) < (uint32_t)7UL) ? (uint32_t)0UL : (uint32_t)((PriorityGroupTmp - 7UL) + (uint32_t)(__NVIC_PRIO_BITS));
 8001b16:	69fb      	ldr	r3, [r7, #28]
 8001b18:	3304      	adds	r3, #4
 8001b1a:	2b06      	cmp	r3, #6
 8001b1c:	d902      	bls.n	8001b24 <NVIC_EncodePriority+0x30>
 8001b1e:	69fb      	ldr	r3, [r7, #28]
 8001b20:	3b03      	subs	r3, #3
 8001b22:	e000      	b.n	8001b26 <NVIC_EncodePriority+0x32>
 8001b24:	2300      	movs	r3, #0
 8001b26:	617b      	str	r3, [r7, #20]

  return (
           ((PreemptPriority & (uint32_t)((1UL << (PreemptPriorityBits)) - 1UL)) << SubPriorityBits) |
 8001b28:	2201      	movs	r2, #1
 8001b2a:	69bb      	ldr	r3, [r7, #24]
 8001b2c:	fa02 f303 	lsl.w	r3, r2, r3
 8001b30:	1e5a      	subs	r2, r3, #1
 8001b32:	68bb      	ldr	r3, [r7, #8]
 8001b34:	401a      	ands	r2, r3
 8001b36:	697b      	ldr	r3, [r7, #20]
 8001b38:	409a      	lsls	r2, r3
           ((SubPriority     & (uint32_t)((1UL << (SubPriorityBits    )) - 1UL)))
 8001b3a:	2101      	movs	r1, #1
 8001b3c:	697b      	ldr	r3, [r7, #20]
 8001b3e:	fa01 f303 	lsl.w	r3, r1, r3
 8001b42:	1e59      	subs	r1, r3, #1
 8001b44:	687b      	ldr	r3, [r7, #4]
 8001b46:	400b      	ands	r3, r1
           ((PreemptPriority & (uint32_t)((1UL << (PreemptPriorityBits)) - 1UL)) << SubPriorityBits) |
 8001b48:	4313      	orrs	r3, r2
         );
}
 8001b4a:	4618      	mov	r0, r3
 8001b4c:	3724      	adds	r7, #36	; 0x24
 8001b4e:	46bd      	mov	sp, r7
 8001b50:	f85d 7b04 	ldr.w	r7, [sp], #4
 8001b54:	4770      	bx	lr
	...

08001b58 <SysTick_Config>:
  \note    When the variable <b>__Vendor_SysTickConfig</b> is set to 1, then the
           function <b>SysTick_Config</b> is not included. In this case, the file <b><i>device</i>.h</b>
           must contain a vendor-specific implementation of this function.
 */
__STATIC_INLINE uint32_t SysTick_Config(uint32_t ticks)
{
 8001b58:	b580      	push	{r7, lr}
 8001b5a:	b082      	sub	sp, #8
 8001b5c:	af00      	add	r7, sp, #0
 8001b5e:	6078      	str	r0, [r7, #4]
  if ((ticks - 1UL) > SysTick_LOAD_RELOAD_Msk)
 8001b60:	687b      	ldr	r3, [r7, #4]
 8001b62:	3b01      	subs	r3, #1
 8001b64:	f1b3 7f80 	cmp.w	r3, #16777216	; 0x1000000
 8001b68:	d301      	bcc.n	8001b6e <SysTick_Config+0x16>
  {
    return (1UL);                                                   /* Reload value impossible */
 8001b6a:	2301      	movs	r3, #1
 8001b6c:	e00f      	b.n	8001b8e <SysTick_Config+0x36>
  }

  SysTick->LOAD  = (uint32_t)(ticks - 1UL);                         /* set reload register */
 8001b6e:	4a0a      	ldr	r2, [pc, #40]	; (8001b98 <SysTick_Config+0x40>)
 8001b70:	687b      	ldr	r3, [r7, #4]
 8001b72:	3b01      	subs	r3, #1
 8001b74:	6053      	str	r3, [r2, #4]
  NVIC_SetPriority (SysTick_IRQn, (1UL << __NVIC_PRIO_BITS) - 1UL); /* set Priority for Systick Interrupt */
 8001b76:	210f      	movs	r1, #15
 8001b78:	f04f 30ff 	mov.w	r0, #4294967295
 8001b7c:	f7ff ff90 	bl	8001aa0 <NVIC_SetPriority>
  SysTick->VAL   = 0UL;                                             /* Load the SysTick Counter Value */
 8001b80:	4b05      	ldr	r3, [pc, #20]	; (8001b98 <SysTick_Config+0x40>)
 8001b82:	2200      	movs	r2, #0
 8001b84:	609a      	str	r2, [r3, #8]
  SysTick->CTRL  = SysTick_CTRL_CLKSOURCE_Msk |
 8001b86:	4b04      	ldr	r3, [pc, #16]	; (8001b98 <SysTick_Config+0x40>)
 8001b88:	2207      	movs	r2, #7
 8001b8a:	601a      	str	r2, [r3, #0]
                   SysTick_CTRL_TICKINT_Msk   |
                   SysTick_CTRL_ENABLE_Msk;                         /* Enable SysTick IRQ and SysTick Timer */
  return (0UL);                                                     /* Function successful */
 8001b8c:	2300      	movs	r3, #0
}
 8001b8e:	4618      	mov	r0, r3
 8001b90:	3708      	adds	r7, #8
 8001b92:	46bd      	mov	sp, r7
 8001b94:	bd80      	pop	{r7, pc}
 8001b96:	bf00      	nop
 8001b98:	e000e010 	.word	0xe000e010

08001b9c <HAL_NVIC_SetPriorityGrouping>:
  * @note   When the NVIC_PriorityGroup_0 is selected, IRQ pre-emption is no more possible.
  *         The pending IRQ priority will be managed only by the subpriority.
  * @retval None
  */
void HAL_NVIC_SetPriorityGrouping(uint32_t PriorityGroup)
{
 8001b9c:	b580      	push	{r7, lr}
 8001b9e:	b082      	sub	sp, #8
 8001ba0:	af00      	add	r7, sp, #0
 8001ba2:	6078      	str	r0, [r7, #4]
  /* Check the parameters */
  assert_param(IS_NVIC_PRIORITY_GROUP(PriorityGroup));

  /* Set the PRIGROUP[10:8] bits according to the PriorityGroup parameter value */
  NVIC_SetPriorityGrouping(PriorityGroup);
 8001ba4:	6878      	ldr	r0, [r7, #4]
 8001ba6:	f7ff ff2f 	bl	8001a08 <NVIC_SetPriorityGrouping>
}
 8001baa:	bf00      	nop
 8001bac:	3708      	adds	r7, #8
 8001bae:	46bd      	mov	sp, r7
 8001bb0:	bd80      	pop	{r7, pc}

08001bb2 <HAL_NVIC_SetPriority>:
  *         This parameter can be a value between 0 and 15
  *         A lower priority value indicates a higher priority.
  * @retval None
  */
void HAL_NVIC_SetPriority(IRQn_Type IRQn, uint32_t PreemptPriority, uint32_t SubPriority)
{
 8001bb2:	b580      	push	{r7, lr}
 8001bb4:	b086      	sub	sp, #24
 8001bb6:	af00      	add	r7, sp, #0
 8001bb8:	4603      	mov	r3, r0
 8001bba:	60b9      	str	r1, [r7, #8]
 8001bbc:	607a      	str	r2, [r7, #4]
 8001bbe:	73fb      	strb	r3, [r7, #15]
  uint32_t prioritygroup = 0x00;
 8001bc0:	2300      	movs	r3, #0
 8001bc2:	617b      	str	r3, [r7, #20]

  /* Check the parameters */
  assert_param(IS_NVIC_SUB_PRIORITY(SubPriority));
  assert_param(IS_NVIC_PREEMPTION_PRIORITY(PreemptPriority));

  prioritygroup = NVIC_GetPriorityGrouping();
 8001bc4:	f7ff ff44 	bl	8001a50 <NVIC_GetPriorityGrouping>
 8001bc8:	6178      	str	r0, [r7, #20]

  NVIC_SetPriority(IRQn, NVIC_EncodePriority(prioritygroup, PreemptPriority, SubPriority));
 8001bca:	687a      	ldr	r2, [r7, #4]
 8001bcc:	68b9      	ldr	r1, [r7, #8]
 8001bce:	6978      	ldr	r0, [r7, #20]
 8001bd0:	f7ff ff90 	bl	8001af4 <NVIC_EncodePriority>
 8001bd4:	4602      	mov	r2, r0
 8001bd6:	f997 300f 	ldrsb.w	r3, [r7, #15]
 8001bda:	4611      	mov	r1, r2
 8001bdc:	4618      	mov	r0, r3
 8001bde:	f7ff ff5f 	bl	8001aa0 <NVIC_SetPriority>
}
 8001be2:	bf00      	nop
 8001be4:	3718      	adds	r7, #24
 8001be6:	46bd      	mov	sp, r7
 8001be8:	bd80      	pop	{r7, pc}

08001bea <HAL_NVIC_EnableIRQ>:
  *         This parameter can be an enumerator of IRQn_Type enumeration
  *         (For the complete STM32 Devices IRQ Channels list, please refer to the appropriate CMSIS device file (stm32l4xxxx.h))
  * @retval None
  */
void HAL_NVIC_EnableIRQ(IRQn_Type IRQn)
{
 8001bea:	b580      	push	{r7, lr}
 8001bec:	b082      	sub	sp, #8
 8001bee:	af00      	add	r7, sp, #0
 8001bf0:	4603      	mov	r3, r0
 8001bf2:	71fb      	strb	r3, [r7, #7]
  /* Check the parameters */
  assert_param(IS_NVIC_DEVICE_IRQ(IRQn));
  
  /* Enable interrupt */
  NVIC_EnableIRQ(IRQn);
 8001bf4:	f997 3007 	ldrsb.w	r3, [r7, #7]
 8001bf8:	4618      	mov	r0, r3
 8001bfa:	f7ff ff37 	bl	8001a6c <NVIC_EnableIRQ>
}
 8001bfe:	bf00      	nop
 8001c00:	3708      	adds	r7, #8
 8001c02:	46bd      	mov	sp, r7
 8001c04:	bd80      	pop	{r7, pc}

08001c06 <HAL_SYSTICK_Config>:
  * @param  TicksNumb: Specifies the ticks Number of ticks between two interrupts.
  * @retval status:  - 0  Function succeeded.
  *                  - 1  Function failed.
  */
uint32_t HAL_SYSTICK_Config(uint32_t TicksNumb)
{
 8001c06:	b580      	push	{r7, lr}
 8001c08:	b082      	sub	sp, #8
 8001c0a:	af00      	add	r7, sp, #0
 8001c0c:	6078      	str	r0, [r7, #4]
   return SysTick_Config(TicksNumb);
 8001c0e:	6878      	ldr	r0, [r7, #4]
 8001c10:	f7ff ffa2 	bl	8001b58 <SysTick_Config>
 8001c14:	4603      	mov	r3, r0
}
 8001c16:	4618      	mov	r0, r3
 8001c18:	3708      	adds	r7, #8
 8001c1a:	46bd      	mov	sp, r7
 8001c1c:	bd80      	pop	{r7, pc}
	...

08001c20 <HAL_GPIO_Init>:
  * @param  GPIO_Init: pointer to a GPIO_InitTypeDef structure that contains
  *         the configuration information for the specified GPIO peripheral.
  * @retval None
  */
void HAL_GPIO_Init(GPIO_TypeDef  *GPIOx, GPIO_InitTypeDef *GPIO_Init)
{
 8001c20:	b480      	push	{r7}
 8001c22:	b087      	sub	sp, #28
 8001c24:	af00      	add	r7, sp, #0
 8001c26:	6078      	str	r0, [r7, #4]
 8001c28:	6039      	str	r1, [r7, #0]
  uint32_t position = 0x00;
 8001c2a:	2300      	movs	r3, #0
 8001c2c:	617b      	str	r3, [r7, #20]
  uint32_t iocurrent = 0x00;
 8001c2e:	2300      	movs	r3, #0
 8001c30:	60fb      	str	r3, [r7, #12]
  uint32_t temp = 0x00;
 8001c32:	2300      	movs	r3, #0
 8001c34:	613b      	str	r3, [r7, #16]
  assert_param(IS_GPIO_PIN(GPIO_Init->Pin));
  assert_param(IS_GPIO_MODE(GPIO_Init->Mode));
  assert_param(IS_GPIO_PULL(GPIO_Init->Pull));

  /* Configure the port pins */
  while (((GPIO_Init->Pin) >> position) != RESET)
 8001c36:	e154      	b.n	8001ee2 <HAL_GPIO_Init+0x2c2>
  {
    /* Get current io position */
    iocurrent = (GPIO_Init->Pin) & (1U << position);
 8001c38:	683b      	ldr	r3, [r7, #0]
 8001c3a:	681a      	ldr	r2, [r3, #0]
 8001c3c:	2101      	movs	r1, #1
 8001c3e:	697b      	ldr	r3, [r7, #20]
 8001c40:	fa01 f303 	lsl.w	r3, r1, r3
 8001c44:	4013      	ands	r3, r2
 8001c46:	60fb      	str	r3, [r7, #12]

    if(iocurrent)
 8001c48:	68fb      	ldr	r3, [r7, #12]
 8001c4a:	2b00      	cmp	r3, #0
 8001c4c:	f000 8146 	beq.w	8001edc <HAL_GPIO_Init+0x2bc>
    {
      /*--------------------- GPIO Mode Configuration ------------------------*/
      /* In case of Alternate function mode selection */
      if((GPIO_Init->Mode == GPIO_MODE_AF_PP) || (GPIO_Init->Mode == GPIO_MODE_AF_OD))
 8001c50:	683b      	ldr	r3, [r7, #0]
 8001c52:	685b      	ldr	r3, [r3, #4]
 8001c54:	2b02      	cmp	r3, #2
 8001c56:	d003      	beq.n	8001c60 <HAL_GPIO_Init+0x40>
 8001c58:	683b      	ldr	r3, [r7, #0]
 8001c5a:	685b      	ldr	r3, [r3, #4]
 8001c5c:	2b12      	cmp	r3, #18
 8001c5e:	d123      	bne.n	8001ca8 <HAL_GPIO_Init+0x88>
        /* Check the Alternate function parameters */
        assert_param(IS_GPIO_AF_INSTANCE(GPIOx));
        assert_param(IS_GPIO_AF(GPIO_Init->Alternate));
        
        /* Configure Alternate function mapped with the current IO */
        temp = GPIOx->AFR[position >> 3];
 8001c60:	697b      	ldr	r3, [r7, #20]
 8001c62:	08da      	lsrs	r2, r3, #3
 8001c64:	687b      	ldr	r3, [r7, #4]
 8001c66:	3208      	adds	r2, #8
 8001c68:	f853 3022 	ldr.w	r3, [r3, r2, lsl #2]
 8001c6c:	613b      	str	r3, [r7, #16]
        temp &= ~((uint32_t)0xF << ((uint32_t)(position & (uint32_t)0x07) * 4)) ;
 8001c6e:	697b      	ldr	r3, [r7, #20]
 8001c70:	f003 0307 	and.w	r3, r3, #7
 8001c74:	009b      	lsls	r3, r3, #2
 8001c76:	220f      	movs	r2, #15
 8001c78:	fa02 f303 	lsl.w	r3, r2, r3
 8001c7c:	43db      	mvns	r3, r3
 8001c7e:	693a      	ldr	r2, [r7, #16]
 8001c80:	4013      	ands	r3, r2
 8001c82:	613b      	str	r3, [r7, #16]
        temp |= ((uint32_t)(GPIO_Init->Alternate) << (((uint32_t)position & (uint32_t)0x07) * 4));
 8001c84:	683b      	ldr	r3, [r7, #0]
 8001c86:	691a      	ldr	r2, [r3, #16]
 8001c88:	697b      	ldr	r3, [r7, #20]
 8001c8a:	f003 0307 	and.w	r3, r3, #7
 8001c8e:	009b      	lsls	r3, r3, #2
 8001c90:	fa02 f303 	lsl.w	r3, r2, r3
 8001c94:	693a      	ldr	r2, [r7, #16]
 8001c96:	4313      	orrs	r3, r2
 8001c98:	613b      	str	r3, [r7, #16]
        GPIOx->AFR[position >> 3] = temp;
 8001c9a:	697b      	ldr	r3, [r7, #20]
 8001c9c:	08da      	lsrs	r2, r3, #3
 8001c9e:	687b      	ldr	r3, [r7, #4]
 8001ca0:	3208      	adds	r2, #8
 8001ca2:	6939      	ldr	r1, [r7, #16]
 8001ca4:	f843 1022 	str.w	r1, [r3, r2, lsl #2]
      }

      /* Configure IO Direction mode (Input, Output, Alternate or Analog) */
      temp = GPIOx->MODER;
 8001ca8:	687b      	ldr	r3, [r7, #4]
 8001caa:	681b      	ldr	r3, [r3, #0]
 8001cac:	613b      	str	r3, [r7, #16]
      temp &= ~(GPIO_MODER_MODE0 << (position * 2));
 8001cae:	697b      	ldr	r3, [r7, #20]
 8001cb0:	005b      	lsls	r3, r3, #1
 8001cb2:	2203      	movs	r2, #3
 8001cb4:	fa02 f303 	lsl.w	r3, r2, r3
 8001cb8:	43db      	mvns	r3, r3
 8001cba:	693a      	ldr	r2, [r7, #16]
 8001cbc:	4013      	ands	r3, r2
 8001cbe:	613b      	str	r3, [r7, #16]
      temp |= ((GPIO_Init->Mode & GPIO_MODE) << (position * 2));
 8001cc0:	683b      	ldr	r3, [r7, #0]
 8001cc2:	685b      	ldr	r3, [r3, #4]
 8001cc4:	f003 0203 	and.w	r2, r3, #3
 8001cc8:	697b      	ldr	r3, [r7, #20]
 8001cca:	005b      	lsls	r3, r3, #1
 8001ccc:	fa02 f303 	lsl.w	r3, r2, r3
 8001cd0:	693a      	ldr	r2, [r7, #16]
 8001cd2:	4313      	orrs	r3, r2
 8001cd4:	613b      	str	r3, [r7, #16]
      GPIOx->MODER = temp;
 8001cd6:	687b      	ldr	r3, [r7, #4]
 8001cd8:	693a      	ldr	r2, [r7, #16]
 8001cda:	601a      	str	r2, [r3, #0]

      /* In case of Output or Alternate function mode selection */
      if((GPIO_Init->Mode == GPIO_MODE_OUTPUT_PP) || (GPIO_Init->Mode == GPIO_MODE_AF_PP) ||
 8001cdc:	683b      	ldr	r3, [r7, #0]
 8001cde:	685b      	ldr	r3, [r3, #4]
 8001ce0:	2b01      	cmp	r3, #1
 8001ce2:	d00b      	beq.n	8001cfc <HAL_GPIO_Init+0xdc>
 8001ce4:	683b      	ldr	r3, [r7, #0]
 8001ce6:	685b      	ldr	r3, [r3, #4]
 8001ce8:	2b02      	cmp	r3, #2
 8001cea:	d007      	beq.n	8001cfc <HAL_GPIO_Init+0xdc>
         (GPIO_Init->Mode == GPIO_MODE_OUTPUT_OD) || (GPIO_Init->Mode == GPIO_MODE_AF_OD))
 8001cec:	683b      	ldr	r3, [r7, #0]
 8001cee:	685b      	ldr	r3, [r3, #4]
      if((GPIO_Init->Mode == GPIO_MODE_OUTPUT_PP) || (GPIO_Init->Mode == GPIO_MODE_AF_PP) ||
 8001cf0:	2b11      	cmp	r3, #17
 8001cf2:	d003      	beq.n	8001cfc <HAL_GPIO_Init+0xdc>
         (GPIO_Init->Mode == GPIO_MODE_OUTPUT_OD) || (GPIO_Init->Mode == GPIO_MODE_AF_OD))
 8001cf4:	683b      	ldr	r3, [r7, #0]
 8001cf6:	685b      	ldr	r3, [r3, #4]
 8001cf8:	2b12      	cmp	r3, #18
 8001cfa:	d130      	bne.n	8001d5e <HAL_GPIO_Init+0x13e>
      {
        /* Check the Speed parameter */
        assert_param(IS_GPIO_SPEED(GPIO_Init->Speed));
        /* Configure the IO Speed */
        temp = GPIOx->OSPEEDR;
 8001cfc:	687b      	ldr	r3, [r7, #4]
 8001cfe:	689b      	ldr	r3, [r3, #8]
 8001d00:	613b      	str	r3, [r7, #16]
        temp &= ~(GPIO_OSPEEDR_OSPEED0 << (position * 2));
 8001d02:	697b      	ldr	r3, [r7, #20]
 8001d04:	005b      	lsls	r3, r3, #1
 8001d06:	2203      	movs	r2, #3
 8001d08:	fa02 f303 	lsl.w	r3, r2, r3
 8001d0c:	43db      	mvns	r3, r3
 8001d0e:	693a      	ldr	r2, [r7, #16]
 8001d10:	4013      	ands	r3, r2
 8001d12:	613b      	str	r3, [r7, #16]
        temp |= (GPIO_Init->Speed << (position * 2));
 8001d14:	683b      	ldr	r3, [r7, #0]
 8001d16:	68da      	ldr	r2, [r3, #12]
 8001d18:	697b      	ldr	r3, [r7, #20]
 8001d1a:	005b      	lsls	r3, r3, #1
 8001d1c:	fa02 f303 	lsl.w	r3, r2, r3
 8001d20:	693a      	ldr	r2, [r7, #16]
 8001d22:	4313      	orrs	r3, r2
 8001d24:	613b      	str	r3, [r7, #16]
        GPIOx->OSPEEDR = temp;
 8001d26:	687b      	ldr	r3, [r7, #4]
 8001d28:	693a      	ldr	r2, [r7, #16]
 8001d2a:	609a      	str	r2, [r3, #8]

        /* Configure the IO Output Type */
        temp = GPIOx->OTYPER;
 8001d2c:	687b      	ldr	r3, [r7, #4]
 8001d2e:	685b      	ldr	r3, [r3, #4]
 8001d30:	613b      	str	r3, [r7, #16]
        temp &= ~(GPIO_OTYPER_OT0 << position) ;
 8001d32:	2201      	movs	r2, #1
 8001d34:	697b      	ldr	r3, [r7, #20]
 8001d36:	fa02 f303 	lsl.w	r3, r2, r3
 8001d3a:	43db      	mvns	r3, r3
 8001d3c:	693a      	ldr	r2, [r7, #16]
 8001d3e:	4013      	ands	r3, r2
 8001d40:	613b      	str	r3, [r7, #16]
        temp |= (((GPIO_Init->Mode & GPIO_OUTPUT_TYPE) >> 4) << position);
 8001d42:	683b      	ldr	r3, [r7, #0]
 8001d44:	685b      	ldr	r3, [r3, #4]
 8001d46:	091b      	lsrs	r3, r3, #4
 8001d48:	f003 0201 	and.w	r2, r3, #1
 8001d4c:	697b      	ldr	r3, [r7, #20]
 8001d4e:	fa02 f303 	lsl.w	r3, r2, r3
 8001d52:	693a      	ldr	r2, [r7, #16]
 8001d54:	4313      	orrs	r3, r2
 8001d56:	613b      	str	r3, [r7, #16]
        GPIOx->OTYPER = temp;
 8001d58:	687b      	ldr	r3, [r7, #4]
 8001d5a:	693a      	ldr	r2, [r7, #16]
 8001d5c:	605a      	str	r2, [r3, #4]
      }

#endif /* STM32L471xx || STM32L475xx || STM32L476xx || STM32L485xx || STM32L486xx */

      /* Activate the Pull-up or Pull down resistor for the current IO */
      temp = GPIOx->PUPDR;
 8001d5e:	687b      	ldr	r3, [r7, #4]
 8001d60:	68db      	ldr	r3, [r3, #12]
 8001d62:	613b      	str	r3, [r7, #16]
      temp &= ~(GPIO_PUPDR_PUPD0 << (position * 2));
 8001d64:	697b      	ldr	r3, [r7, #20]
 8001d66:	005b      	lsls	r3, r3, #1
 8001d68:	2203      	movs	r2, #3
 8001d6a:	fa02 f303 	lsl.w	r3, r2, r3
 8001d6e:	43db      	mvns	r3, r3
 8001d70:	693a      	ldr	r2, [r7, #16]
 8001d72:	4013      	ands	r3, r2
 8001d74:	613b      	str	r3, [r7, #16]
      temp |= ((GPIO_Init->Pull) << (position * 2));
 8001d76:	683b      	ldr	r3, [r7, #0]
 8001d78:	689a      	ldr	r2, [r3, #8]
 8001d7a:	697b      	ldr	r3, [r7, #20]
 8001d7c:	005b      	lsls	r3, r3, #1
 8001d7e:	fa02 f303 	lsl.w	r3, r2, r3
 8001d82:	693a      	ldr	r2, [r7, #16]
 8001d84:	4313      	orrs	r3, r2
 8001d86:	613b      	str	r3, [r7, #16]
      GPIOx->PUPDR = temp;
 8001d88:	687b      	ldr	r3, [r7, #4]
 8001d8a:	693a      	ldr	r2, [r7, #16]
 8001d8c:	60da      	str	r2, [r3, #12]

      /*--------------------- EXTI Mode Configuration ------------------------*/
      /* Configure the External Interrupt or event for the current IO */
      if((GPIO_Init->Mode & EXTI_MODE) == EXTI_MODE)
 8001d8e:	683b      	ldr	r3, [r7, #0]
 8001d90:	685b      	ldr	r3, [r3, #4]
 8001d92:	f003 5380 	and.w	r3, r3, #268435456	; 0x10000000
 8001d96:	2b00      	cmp	r3, #0
 8001d98:	f000 80a0 	beq.w	8001edc <HAL_GPIO_Init+0x2bc>
      {
        /* Enable SYSCFG Clock */
        __HAL_RCC_SYSCFG_CLK_ENABLE();
 8001d9c:	4a58      	ldr	r2, [pc, #352]	; (8001f00 <HAL_GPIO_Init+0x2e0>)
 8001d9e:	4b58      	ldr	r3, [pc, #352]	; (8001f00 <HAL_GPIO_Init+0x2e0>)
 8001da0:	6e1b      	ldr	r3, [r3, #96]	; 0x60
 8001da2:	f043 0301 	orr.w	r3, r3, #1
 8001da6:	6613      	str	r3, [r2, #96]	; 0x60
 8001da8:	4b55      	ldr	r3, [pc, #340]	; (8001f00 <HAL_GPIO_Init+0x2e0>)
 8001daa:	6e1b      	ldr	r3, [r3, #96]	; 0x60
 8001dac:	f003 0301 	and.w	r3, r3, #1
 8001db0:	60bb      	str	r3, [r7, #8]
 8001db2:	68bb      	ldr	r3, [r7, #8]

        temp = SYSCFG->EXTICR[position >> 2];
 8001db4:	4a53      	ldr	r2, [pc, #332]	; (8001f04 <HAL_GPIO_Init+0x2e4>)
 8001db6:	697b      	ldr	r3, [r7, #20]
 8001db8:	089b      	lsrs	r3, r3, #2
 8001dba:	3302      	adds	r3, #2
 8001dbc:	f852 3023 	ldr.w	r3, [r2, r3, lsl #2]
 8001dc0:	613b      	str	r3, [r7, #16]
        temp &= ~(((uint32_t)0x0F) << (4 * (position & 0x03)));
 8001dc2:	697b      	ldr	r3, [r7, #20]
 8001dc4:	f003 0303 	and.w	r3, r3, #3
 8001dc8:	009b      	lsls	r3, r3, #2
 8001dca:	220f      	movs	r2, #15
 8001dcc:	fa02 f303 	lsl.w	r3, r2, r3
 8001dd0:	43db      	mvns	r3, r3
 8001dd2:	693a      	ldr	r2, [r7, #16]
 8001dd4:	4013      	ands	r3, r2
 8001dd6:	613b      	str	r3, [r7, #16]
        temp |= (GPIO_GET_INDEX(GPIOx) << (4 * (position & 0x03)));
 8001dd8:	687b      	ldr	r3, [r7, #4]
 8001dda:	f1b3 4f90 	cmp.w	r3, #1207959552	; 0x48000000
 8001dde:	d019      	beq.n	8001e14 <HAL_GPIO_Init+0x1f4>
 8001de0:	687b      	ldr	r3, [r7, #4]
 8001de2:	4a49      	ldr	r2, [pc, #292]	; (8001f08 <HAL_GPIO_Init+0x2e8>)
 8001de4:	4293      	cmp	r3, r2
 8001de6:	d013      	beq.n	8001e10 <HAL_GPIO_Init+0x1f0>
 8001de8:	687b      	ldr	r3, [r7, #4]
 8001dea:	4a48      	ldr	r2, [pc, #288]	; (8001f0c <HAL_GPIO_Init+0x2ec>)
 8001dec:	4293      	cmp	r3, r2
 8001dee:	d00d      	beq.n	8001e0c <HAL_GPIO_Init+0x1ec>
 8001df0:	687b      	ldr	r3, [r7, #4]
 8001df2:	4a47      	ldr	r2, [pc, #284]	; (8001f10 <HAL_GPIO_Init+0x2f0>)
 8001df4:	4293      	cmp	r3, r2
 8001df6:	d007      	beq.n	8001e08 <HAL_GPIO_Init+0x1e8>
 8001df8:	687b      	ldr	r3, [r7, #4]
 8001dfa:	4a46      	ldr	r2, [pc, #280]	; (8001f14 <HAL_GPIO_Init+0x2f4>)
 8001dfc:	4293      	cmp	r3, r2
 8001dfe:	d101      	bne.n	8001e04 <HAL_GPIO_Init+0x1e4>
 8001e00:	2304      	movs	r3, #4
 8001e02:	e008      	b.n	8001e16 <HAL_GPIO_Init+0x1f6>
 8001e04:	2307      	movs	r3, #7
 8001e06:	e006      	b.n	8001e16 <HAL_GPIO_Init+0x1f6>
 8001e08:	2303      	movs	r3, #3
 8001e0a:	e004      	b.n	8001e16 <HAL_GPIO_Init+0x1f6>
 8001e0c:	2302      	movs	r3, #2
 8001e0e:	e002      	b.n	8001e16 <HAL_GPIO_Init+0x1f6>
 8001e10:	2301      	movs	r3, #1
 8001e12:	e000      	b.n	8001e16 <HAL_GPIO_Init+0x1f6>
 8001e14:	2300      	movs	r3, #0
 8001e16:	697a      	ldr	r2, [r7, #20]
 8001e18:	f002 0203 	and.w	r2, r2, #3
 8001e1c:	0092      	lsls	r2, r2, #2
 8001e1e:	4093      	lsls	r3, r2
 8001e20:	693a      	ldr	r2, [r7, #16]
 8001e22:	4313      	orrs	r3, r2
 8001e24:	613b      	str	r3, [r7, #16]
        SYSCFG->EXTICR[position >> 2] = temp;
 8001e26:	4937      	ldr	r1, [pc, #220]	; (8001f04 <HAL_GPIO_Init+0x2e4>)
 8001e28:	697b      	ldr	r3, [r7, #20]
 8001e2a:	089b      	lsrs	r3, r3, #2
 8001e2c:	3302      	adds	r3, #2
 8001e2e:	693a      	ldr	r2, [r7, #16]
 8001e30:	f841 2023 	str.w	r2, [r1, r3, lsl #2]

        /* Clear EXTI line configuration */
        temp = EXTI->IMR1;
 8001e34:	4b38      	ldr	r3, [pc, #224]	; (8001f18 <HAL_GPIO_Init+0x2f8>)
 8001e36:	681b      	ldr	r3, [r3, #0]
 8001e38:	613b      	str	r3, [r7, #16]
        temp &= ~((uint32_t)iocurrent);
 8001e3a:	68fb      	ldr	r3, [r7, #12]
 8001e3c:	43db      	mvns	r3, r3
 8001e3e:	693a      	ldr	r2, [r7, #16]
 8001e40:	4013      	ands	r3, r2
 8001e42:	613b      	str	r3, [r7, #16]
        if((GPIO_Init->Mode & GPIO_MODE_IT) == GPIO_MODE_IT)
 8001e44:	683b      	ldr	r3, [r7, #0]
 8001e46:	685b      	ldr	r3, [r3, #4]
 8001e48:	f403 3380 	and.w	r3, r3, #65536	; 0x10000
 8001e4c:	2b00      	cmp	r3, #0
 8001e4e:	d003      	beq.n	8001e58 <HAL_GPIO_Init+0x238>
        {
          temp |= iocurrent;
 8001e50:	693a      	ldr	r2, [r7, #16]
 8001e52:	68fb      	ldr	r3, [r7, #12]
 8001e54:	4313      	orrs	r3, r2
 8001e56:	613b      	str	r3, [r7, #16]
        }
        EXTI->IMR1 = temp;
 8001e58:	4a2f      	ldr	r2, [pc, #188]	; (8001f18 <HAL_GPIO_Init+0x2f8>)
 8001e5a:	693b      	ldr	r3, [r7, #16]
 8001e5c:	6013      	str	r3, [r2, #0]

        temp = EXTI->EMR1;
 8001e5e:	4b2e      	ldr	r3, [pc, #184]	; (8001f18 <HAL_GPIO_Init+0x2f8>)
 8001e60:	685b      	ldr	r3, [r3, #4]
 8001e62:	613b      	str	r3, [r7, #16]
        temp &= ~((uint32_t)iocurrent);
 8001e64:	68fb      	ldr	r3, [r7, #12]
 8001e66:	43db      	mvns	r3, r3
 8001e68:	693a      	ldr	r2, [r7, #16]
 8001e6a:	4013      	ands	r3, r2
 8001e6c:	613b      	str	r3, [r7, #16]
        if((GPIO_Init->Mode & GPIO_MODE_EVT) == GPIO_MODE_EVT)
 8001e6e:	683b      	ldr	r3, [r7, #0]
 8001e70:	685b      	ldr	r3, [r3, #4]
 8001e72:	f403 3300 	and.w	r3, r3, #131072	; 0x20000
 8001e76:	2b00      	cmp	r3, #0
 8001e78:	d003      	beq.n	8001e82 <HAL_GPIO_Init+0x262>
        {
          temp |= iocurrent;
 8001e7a:	693a      	ldr	r2, [r7, #16]
 8001e7c:	68fb      	ldr	r3, [r7, #12]
 8001e7e:	4313      	orrs	r3, r2
 8001e80:	613b      	str	r3, [r7, #16]
        }
        EXTI->EMR1 = temp;
 8001e82:	4a25      	ldr	r2, [pc, #148]	; (8001f18 <HAL_GPIO_Init+0x2f8>)
 8001e84:	693b      	ldr	r3, [r7, #16]
 8001e86:	6053      	str	r3, [r2, #4]

        /* Clear Rising Falling edge configuration */
        temp = EXTI->RTSR1;
 8001e88:	4b23      	ldr	r3, [pc, #140]	; (8001f18 <HAL_GPIO_Init+0x2f8>)
 8001e8a:	689b      	ldr	r3, [r3, #8]
 8001e8c:	613b      	str	r3, [r7, #16]
        temp &= ~((uint32_t)iocurrent);
 8001e8e:	68fb      	ldr	r3, [r7, #12]
 8001e90:	43db      	mvns	r3, r3
 8001e92:	693a      	ldr	r2, [r7, #16]
 8001e94:	4013      	ands	r3, r2
 8001e96:	613b      	str	r3, [r7, #16]
        if((GPIO_Init->Mode & RISING_EDGE) == RISING_EDGE)
 8001e98:	683b      	ldr	r3, [r7, #0]
 8001e9a:	685b      	ldr	r3, [r3, #4]
 8001e9c:	f403 1380 	and.w	r3, r3, #1048576	; 0x100000
 8001ea0:	2b00      	cmp	r3, #0
 8001ea2:	d003      	beq.n	8001eac <HAL_GPIO_Init+0x28c>
        {
          temp |= iocurrent;
 8001ea4:	693a      	ldr	r2, [r7, #16]
 8001ea6:	68fb      	ldr	r3, [r7, #12]
 8001ea8:	4313      	orrs	r3, r2
 8001eaa:	613b      	str	r3, [r7, #16]
        }
        EXTI->RTSR1 = temp;
 8001eac:	4a1a      	ldr	r2, [pc, #104]	; (8001f18 <HAL_GPIO_Init+0x2f8>)
 8001eae:	693b      	ldr	r3, [r7, #16]
 8001eb0:	6093      	str	r3, [r2, #8]

        temp = EXTI->FTSR1;
 8001eb2:	4b19      	ldr	r3, [pc, #100]	; (8001f18 <HAL_GPIO_Init+0x2f8>)
 8001eb4:	68db      	ldr	r3, [r3, #12]
 8001eb6:	613b      	str	r3, [r7, #16]
        temp &= ~((uint32_t)iocurrent);
 8001eb8:	68fb      	ldr	r3, [r7, #12]
 8001eba:	43db      	mvns	r3, r3
 8001ebc:	693a      	ldr	r2, [r7, #16]
 8001ebe:	4013      	ands	r3, r2
 8001ec0:	613b      	str	r3, [r7, #16]
        if((GPIO_Init->Mode & FALLING_EDGE) == FALLING_EDGE)
 8001ec2:	683b      	ldr	r3, [r7, #0]
 8001ec4:	685b      	ldr	r3, [r3, #4]
 8001ec6:	f403 1300 	and.w	r3, r3, #2097152	; 0x200000
 8001eca:	2b00      	cmp	r3, #0
 8001ecc:	d003      	beq.n	8001ed6 <HAL_GPIO_Init+0x2b6>
        {
          temp |= iocurrent;
 8001ece:	693a      	ldr	r2, [r7, #16]
 8001ed0:	68fb      	ldr	r3, [r7, #12]
 8001ed2:	4313      	orrs	r3, r2
 8001ed4:	613b      	str	r3, [r7, #16]
        }
        EXTI->FTSR1 = temp;
 8001ed6:	4a10      	ldr	r2, [pc, #64]	; (8001f18 <HAL_GPIO_Init+0x2f8>)
 8001ed8:	693b      	ldr	r3, [r7, #16]
 8001eda:	60d3      	str	r3, [r2, #12]
      }
    }
    
    position++;
 8001edc:	697b      	ldr	r3, [r7, #20]
 8001ede:	3301      	adds	r3, #1
 8001ee0:	617b      	str	r3, [r7, #20]
  while (((GPIO_Init->Pin) >> position) != RESET)
 8001ee2:	683b      	ldr	r3, [r7, #0]
 8001ee4:	681a      	ldr	r2, [r3, #0]
 8001ee6:	697b      	ldr	r3, [r7, #20]
 8001ee8:	fa22 f303 	lsr.w	r3, r2, r3
 8001eec:	2b00      	cmp	r3, #0
 8001eee:	f47f aea3 	bne.w	8001c38 <HAL_GPIO_Init+0x18>
  }
}
 8001ef2:	bf00      	nop
 8001ef4:	371c      	adds	r7, #28
 8001ef6:	46bd      	mov	sp, r7
 8001ef8:	f85d 7b04 	ldr.w	r7, [sp], #4
 8001efc:	4770      	bx	lr
 8001efe:	bf00      	nop
 8001f00:	40021000 	.word	0x40021000
 8001f04:	40010000 	.word	0x40010000
 8001f08:	48000400 	.word	0x48000400
 8001f0c:	48000800 	.word	0x48000800
 8001f10:	48000c00 	.word	0x48000c00
 8001f14:	48001000 	.word	0x48001000
 8001f18:	40010400 	.word	0x40010400

08001f1c <HAL_GPIO_ReadPin>:
  * @param  GPIO_Pin: specifies the port bit to read.
  *         This parameter can be GPIO_PIN_x where x can be (0..15).
  * @retval The input port pin value.
  */
GPIO_PinState HAL_GPIO_ReadPin(GPIO_TypeDef* GPIOx, uint16_t GPIO_Pin)
{
 8001f1c:	b480      	push	{r7}
 8001f1e:	b085      	sub	sp, #20
 8001f20:	af00      	add	r7, sp, #0
 8001f22:	6078      	str	r0, [r7, #4]
 8001f24:	460b      	mov	r3, r1
 8001f26:	807b      	strh	r3, [r7, #2]
  GPIO_PinState bitstatus;

  /* Check the parameters */
  assert_param(IS_GPIO_PIN(GPIO_Pin));

  if((GPIOx->IDR & GPIO_Pin) != (uint32_t)GPIO_PIN_RESET)
 8001f28:	687b      	ldr	r3, [r7, #4]
 8001f2a:	691a      	ldr	r2, [r3, #16]
 8001f2c:	887b      	ldrh	r3, [r7, #2]
 8001f2e:	4013      	ands	r3, r2
 8001f30:	2b00      	cmp	r3, #0
 8001f32:	d002      	beq.n	8001f3a <HAL_GPIO_ReadPin+0x1e>
  {
    bitstatus = GPIO_PIN_SET;
 8001f34:	2301      	movs	r3, #1
 8001f36:	73fb      	strb	r3, [r7, #15]
 8001f38:	e001      	b.n	8001f3e <HAL_GPIO_ReadPin+0x22>
  }
  else
  {
    bitstatus = GPIO_PIN_RESET;
 8001f3a:	2300      	movs	r3, #0
 8001f3c:	73fb      	strb	r3, [r7, #15]
  }
  return bitstatus;
 8001f3e:	7bfb      	ldrb	r3, [r7, #15]
}
 8001f40:	4618      	mov	r0, r3
 8001f42:	3714      	adds	r7, #20
 8001f44:	46bd      	mov	sp, r7
 8001f46:	f85d 7b04 	ldr.w	r7, [sp], #4
 8001f4a:	4770      	bx	lr

08001f4c <HAL_GPIO_WritePin>:
  *            @arg GPIO_PIN_RESET: to clear the port pin
  *            @arg GPIO_PIN_SET: to set the port pin
  * @retval None
  */
void HAL_GPIO_WritePin(GPIO_TypeDef* GPIOx, uint16_t GPIO_Pin, GPIO_PinState PinState)
{
 8001f4c:	b480      	push	{r7}
 8001f4e:	b083      	sub	sp, #12
 8001f50:	af00      	add	r7, sp, #0
 8001f52:	6078      	str	r0, [r7, #4]
 8001f54:	460b      	mov	r3, r1
 8001f56:	807b      	strh	r3, [r7, #2]
 8001f58:	4613      	mov	r3, r2
 8001f5a:	707b      	strb	r3, [r7, #1]
  /* Check the parameters */
  assert_param(IS_GPIO_PIN(GPIO_Pin));
  assert_param(IS_GPIO_PIN_ACTION(PinState));

  if(PinState != GPIO_PIN_RESET)
 8001f5c:	787b      	ldrb	r3, [r7, #1]
 8001f5e:	2b00      	cmp	r3, #0
 8001f60:	d003      	beq.n	8001f6a <HAL_GPIO_WritePin+0x1e>
  {
    GPIOx->BSRR = (uint32_t)GPIO_Pin;
 8001f62:	887a      	ldrh	r2, [r7, #2]
 8001f64:	687b      	ldr	r3, [r7, #4]
 8001f66:	619a      	str	r2, [r3, #24]
  }
  else
  {
    GPIOx->BRR = (uint32_t)GPIO_Pin;
  }
}
 8001f68:	e002      	b.n	8001f70 <HAL_GPIO_WritePin+0x24>
    GPIOx->BRR = (uint32_t)GPIO_Pin;
 8001f6a:	887a      	ldrh	r2, [r7, #2]
 8001f6c:	687b      	ldr	r3, [r7, #4]
 8001f6e:	629a      	str	r2, [r3, #40]	; 0x28
}
 8001f70:	bf00      	nop
 8001f72:	370c      	adds	r7, #12
 8001f74:	46bd      	mov	sp, r7
 8001f76:	f85d 7b04 	ldr.w	r7, [sp], #4
 8001f7a:	4770      	bx	lr

08001f7c <HAL_I2C_Init>:
  * @param  hi2c Pointer to a I2C_HandleTypeDef structure that contains
  *                the configuration information for the specified I2C.
  * @retval HAL status
  */
HAL_StatusTypeDef HAL_I2C_Init(I2C_HandleTypeDef *hi2c)
{
 8001f7c:	b580      	push	{r7, lr}
 8001f7e:	b082      	sub	sp, #8
 8001f80:	af00      	add	r7, sp, #0
 8001f82:	6078      	str	r0, [r7, #4]
  /* Check the I2C handle allocation */
  if(hi2c == NULL)
 8001f84:	687b      	ldr	r3, [r7, #4]
 8001f86:	2b00      	cmp	r3, #0
 8001f88:	d101      	bne.n	8001f8e <HAL_I2C_Init+0x12>
  {
    return HAL_ERROR;
 8001f8a:	2301      	movs	r3, #1
 8001f8c:	e080      	b.n	8002090 <HAL_I2C_Init+0x114>
  assert_param(IS_I2C_OWN_ADDRESS2(hi2c->Init.OwnAddress2));
  assert_param(IS_I2C_OWN_ADDRESS2_MASK(hi2c->Init.OwnAddress2Masks));
  assert_param(IS_I2C_GENERAL_CALL(hi2c->Init.GeneralCallMode));
  assert_param(IS_I2C_NO_STRETCH(hi2c->Init.NoStretchMode));

  if(hi2c->State == HAL_I2C_STATE_RESET)
 8001f8e:	687b      	ldr	r3, [r7, #4]
 8001f90:	f893 3041 	ldrb.w	r3, [r3, #65]	; 0x41
 8001f94:	b2db      	uxtb	r3, r3
 8001f96:	2b00      	cmp	r3, #0
 8001f98:	d106      	bne.n	8001fa8 <HAL_I2C_Init+0x2c>
  {
    /* Allocate lock resource and initialize it */
    hi2c->Lock = HAL_UNLOCKED;
 8001f9a:	687b      	ldr	r3, [r7, #4]
 8001f9c:	2200      	movs	r2, #0
 8001f9e:	f883 2040 	strb.w	r2, [r3, #64]	; 0x40

    /* Init the low level hardware : GPIO, CLOCK, CORTEX...etc */
    HAL_I2C_MspInit(hi2c);
 8001fa2:	6878      	ldr	r0, [r7, #4]
 8001fa4:	f005 fc5c 	bl	8007860 <HAL_I2C_MspInit>
  }

  hi2c->State = HAL_I2C_STATE_BUSY;
 8001fa8:	687b      	ldr	r3, [r7, #4]
 8001faa:	2224      	movs	r2, #36	; 0x24
 8001fac:	f883 2041 	strb.w	r2, [r3, #65]	; 0x41

  /* Disable the selected I2C peripheral */
  __HAL_I2C_DISABLE(hi2c);
 8001fb0:	687b      	ldr	r3, [r7, #4]
 8001fb2:	681b      	ldr	r3, [r3, #0]
 8001fb4:	687a      	ldr	r2, [r7, #4]
 8001fb6:	6812      	ldr	r2, [r2, #0]
 8001fb8:	6812      	ldr	r2, [r2, #0]
 8001fba:	f022 0201 	bic.w	r2, r2, #1
 8001fbe:	601a      	str	r2, [r3, #0]

  /*---------------------------- I2Cx TIMINGR Configuration ------------------*/
  /* Configure I2Cx: Frequency range */
  hi2c->Instance->TIMINGR = hi2c->Init.Timing & TIMING_CLEAR_MASK;
 8001fc0:	687b      	ldr	r3, [r7, #4]
 8001fc2:	681b      	ldr	r3, [r3, #0]
 8001fc4:	687a      	ldr	r2, [r7, #4]
 8001fc6:	6852      	ldr	r2, [r2, #4]
 8001fc8:	f022 6270 	bic.w	r2, r2, #251658240	; 0xf000000
 8001fcc:	611a      	str	r2, [r3, #16]

  /*---------------------------- I2Cx OAR1 Configuration ---------------------*/
  /* Disable Own Address1 before set the Own Address1 configuration */
  hi2c->Instance->OAR1 &= ~I2C_OAR1_OA1EN;
 8001fce:	687b      	ldr	r3, [r7, #4]
 8001fd0:	681b      	ldr	r3, [r3, #0]
 8001fd2:	687a      	ldr	r2, [r7, #4]
 8001fd4:	6812      	ldr	r2, [r2, #0]
 8001fd6:	6892      	ldr	r2, [r2, #8]
 8001fd8:	f422 4200 	bic.w	r2, r2, #32768	; 0x8000
 8001fdc:	609a      	str	r2, [r3, #8]

  /* Configure I2Cx: Own Address1 and ack own address1 mode */
  if(hi2c->Init.AddressingMode == I2C_ADDRESSINGMODE_7BIT)
 8001fde:	687b      	ldr	r3, [r7, #4]
 8001fe0:	68db      	ldr	r3, [r3, #12]
 8001fe2:	2b01      	cmp	r3, #1
 8001fe4:	d107      	bne.n	8001ff6 <HAL_I2C_Init+0x7a>
  {
    hi2c->Instance->OAR1 = (I2C_OAR1_OA1EN | hi2c->Init.OwnAddress1);
 8001fe6:	687b      	ldr	r3, [r7, #4]
 8001fe8:	681b      	ldr	r3, [r3, #0]
 8001fea:	687a      	ldr	r2, [r7, #4]
 8001fec:	6892      	ldr	r2, [r2, #8]
 8001fee:	f442 4200 	orr.w	r2, r2, #32768	; 0x8000
 8001ff2:	609a      	str	r2, [r3, #8]
 8001ff4:	e006      	b.n	8002004 <HAL_I2C_Init+0x88>
  }
  else /* I2C_ADDRESSINGMODE_10BIT */
  {
    hi2c->Instance->OAR1 = (I2C_OAR1_OA1EN | I2C_OAR1_OA1MODE | hi2c->Init.OwnAddress1);
 8001ff6:	687b      	ldr	r3, [r7, #4]
 8001ff8:	681b      	ldr	r3, [r3, #0]
 8001ffa:	687a      	ldr	r2, [r7, #4]
 8001ffc:	6892      	ldr	r2, [r2, #8]
 8001ffe:	f442 4204 	orr.w	r2, r2, #33792	; 0x8400
 8002002:	609a      	str	r2, [r3, #8]
  }

  /*---------------------------- I2Cx CR2 Configuration ----------------------*/
  /* Configure I2Cx: Addressing Master mode */
  if(hi2c->Init.AddressingMode == I2C_ADDRESSINGMODE_10BIT)
 8002004:	687b      	ldr	r3, [r7, #4]
 8002006:	68db      	ldr	r3, [r3, #12]
 8002008:	2b02      	cmp	r3, #2
 800200a:	d104      	bne.n	8002016 <HAL_I2C_Init+0x9a>
  {
    hi2c->Instance->CR2 = (I2C_CR2_ADD10);
 800200c:	687b      	ldr	r3, [r7, #4]
 800200e:	681b      	ldr	r3, [r3, #0]
 8002010:	f44f 6200 	mov.w	r2, #2048	; 0x800
 8002014:	605a      	str	r2, [r3, #4]
  }
  /* Enable the AUTOEND by default, and enable NACK (should be disable only during Slave process */
  hi2c->Instance->CR2 |= (I2C_CR2_AUTOEND | I2C_CR2_NACK);
 8002016:	687b      	ldr	r3, [r7, #4]
 8002018:	681a      	ldr	r2, [r3, #0]
 800201a:	687b      	ldr	r3, [r7, #4]
 800201c:	681b      	ldr	r3, [r3, #0]
 800201e:	685b      	ldr	r3, [r3, #4]
 8002020:	f043 7300 	orr.w	r3, r3, #33554432	; 0x2000000
 8002024:	f443 4300 	orr.w	r3, r3, #32768	; 0x8000
 8002028:	6053      	str	r3, [r2, #4]

  /*---------------------------- I2Cx OAR2 Configuration ---------------------*/
  /* Disable Own Address2 before set the Own Address2 configuration */
  hi2c->Instance->OAR2 &= ~I2C_DUALADDRESS_ENABLE;
 800202a:	687b      	ldr	r3, [r7, #4]
 800202c:	681b      	ldr	r3, [r3, #0]
 800202e:	687a      	ldr	r2, [r7, #4]
 8002030:	6812      	ldr	r2, [r2, #0]
 8002032:	68d2      	ldr	r2, [r2, #12]
 8002034:	f422 4200 	bic.w	r2, r2, #32768	; 0x8000
 8002038:	60da      	str	r2, [r3, #12]

  /* Configure I2Cx: Dual mode and Own Address2 */
  hi2c->Instance->OAR2 = (hi2c->Init.DualAddressMode | hi2c->Init.OwnAddress2 | (hi2c->Init.OwnAddress2Masks << 8));
 800203a:	687b      	ldr	r3, [r7, #4]
 800203c:	681b      	ldr	r3, [r3, #0]
 800203e:	687a      	ldr	r2, [r7, #4]
 8002040:	6911      	ldr	r1, [r2, #16]
 8002042:	687a      	ldr	r2, [r7, #4]
 8002044:	6952      	ldr	r2, [r2, #20]
 8002046:	4311      	orrs	r1, r2
 8002048:	687a      	ldr	r2, [r7, #4]
 800204a:	6992      	ldr	r2, [r2, #24]
 800204c:	0212      	lsls	r2, r2, #8
 800204e:	430a      	orrs	r2, r1
 8002050:	60da      	str	r2, [r3, #12]

  /*---------------------------- I2Cx CR1 Configuration ----------------------*/
  /* Configure I2Cx: Generalcall and NoStretch mode */
  hi2c->Instance->CR1 = (hi2c->Init.GeneralCallMode | hi2c->Init.NoStretchMode);
 8002052:	687b      	ldr	r3, [r7, #4]
 8002054:	681b      	ldr	r3, [r3, #0]
 8002056:	687a      	ldr	r2, [r7, #4]
 8002058:	69d1      	ldr	r1, [r2, #28]
 800205a:	687a      	ldr	r2, [r7, #4]
 800205c:	6a12      	ldr	r2, [r2, #32]
 800205e:	430a      	orrs	r2, r1
 8002060:	601a      	str	r2, [r3, #0]

  /* Enable the selected I2C peripheral */
  __HAL_I2C_ENABLE(hi2c);
 8002062:	687b      	ldr	r3, [r7, #4]
 8002064:	681b      	ldr	r3, [r3, #0]
 8002066:	687a      	ldr	r2, [r7, #4]
 8002068:	6812      	ldr	r2, [r2, #0]
 800206a:	6812      	ldr	r2, [r2, #0]
 800206c:	f042 0201 	orr.w	r2, r2, #1
 8002070:	601a      	str	r2, [r3, #0]

  hi2c->ErrorCode = HAL_I2C_ERROR_NONE;
 8002072:	687b      	ldr	r3, [r7, #4]
 8002074:	2200      	movs	r2, #0
 8002076:	645a      	str	r2, [r3, #68]	; 0x44
  hi2c->State = HAL_I2C_STATE_READY;
 8002078:	687b      	ldr	r3, [r7, #4]
 800207a:	2220      	movs	r2, #32
 800207c:	f883 2041 	strb.w	r2, [r3, #65]	; 0x41
  hi2c->PreviousState = I2C_STATE_NONE;
 8002080:	687b      	ldr	r3, [r7, #4]
 8002082:	2200      	movs	r2, #0
 8002084:	631a      	str	r2, [r3, #48]	; 0x30
  hi2c->Mode = HAL_I2C_MODE_NONE;
 8002086:	687b      	ldr	r3, [r7, #4]
 8002088:	2200      	movs	r2, #0
 800208a:	f883 2042 	strb.w	r2, [r3, #66]	; 0x42

  return HAL_OK;
 800208e:	2300      	movs	r3, #0
}
 8002090:	4618      	mov	r0, r3
 8002092:	3708      	adds	r7, #8
 8002094:	46bd      	mov	sp, r7
 8002096:	bd80      	pop	{r7, pc}

08002098 <HAL_I2C_Master_Transmit>:
  * @param  Size Amount of data to be sent
  * @param  Timeout Timeout duration
  * @retval HAL status
  */
HAL_StatusTypeDef HAL_I2C_Master_Transmit(I2C_HandleTypeDef *hi2c, uint16_t DevAddress, uint8_t *pData, uint16_t Size, uint32_t Timeout)
{
 8002098:	b580      	push	{r7, lr}
 800209a:	b088      	sub	sp, #32
 800209c:	af02      	add	r7, sp, #8
 800209e:	60f8      	str	r0, [r7, #12]
 80020a0:	607a      	str	r2, [r7, #4]
 80020a2:	461a      	mov	r2, r3
 80020a4:	460b      	mov	r3, r1
 80020a6:	817b      	strh	r3, [r7, #10]
 80020a8:	4613      	mov	r3, r2
 80020aa:	813b      	strh	r3, [r7, #8]
  uint32_t tickstart = 0U;
 80020ac:	2300      	movs	r3, #0
 80020ae:	617b      	str	r3, [r7, #20]

  if(hi2c->State == HAL_I2C_STATE_READY)
 80020b0:	68fb      	ldr	r3, [r7, #12]
 80020b2:	f893 3041 	ldrb.w	r3, [r3, #65]	; 0x41
 80020b6:	b2db      	uxtb	r3, r3
 80020b8:	2b20      	cmp	r3, #32
 80020ba:	f040 80e6 	bne.w	800228a <HAL_I2C_Master_Transmit+0x1f2>
  {
    /* Process Locked */
    __HAL_LOCK(hi2c);
 80020be:	68fb      	ldr	r3, [r7, #12]
 80020c0:	f893 3040 	ldrb.w	r3, [r3, #64]	; 0x40
 80020c4:	2b01      	cmp	r3, #1
 80020c6:	d101      	bne.n	80020cc <HAL_I2C_Master_Transmit+0x34>
 80020c8:	2302      	movs	r3, #2
 80020ca:	e0df      	b.n	800228c <HAL_I2C_Master_Transmit+0x1f4>
 80020cc:	68fb      	ldr	r3, [r7, #12]
 80020ce:	2201      	movs	r2, #1
 80020d0:	f883 2040 	strb.w	r2, [r3, #64]	; 0x40

    /* Init tickstart for timeout management*/
    tickstart = HAL_GetTick();
 80020d4:	f7ff fc76 	bl	80019c4 <HAL_GetTick>
 80020d8:	6178      	str	r0, [r7, #20]

    if(I2C_WaitOnFlagUntilTimeout(hi2c, I2C_FLAG_BUSY, SET, I2C_TIMEOUT_BUSY, tickstart) != HAL_OK)
 80020da:	697b      	ldr	r3, [r7, #20]
 80020dc:	9300      	str	r3, [sp, #0]
 80020de:	2319      	movs	r3, #25
 80020e0:	2201      	movs	r2, #1
 80020e2:	f44f 4100 	mov.w	r1, #32768	; 0x8000
 80020e6:	68f8      	ldr	r0, [r7, #12]
 80020e8:	f000 fada 	bl	80026a0 <I2C_WaitOnFlagUntilTimeout>
 80020ec:	4603      	mov	r3, r0
 80020ee:	2b00      	cmp	r3, #0
 80020f0:	d001      	beq.n	80020f6 <HAL_I2C_Master_Transmit+0x5e>
    {
      return HAL_TIMEOUT;
 80020f2:	2303      	movs	r3, #3
 80020f4:	e0ca      	b.n	800228c <HAL_I2C_Master_Transmit+0x1f4>
    }

    hi2c->State     = HAL_I2C_STATE_BUSY_TX;
 80020f6:	68fb      	ldr	r3, [r7, #12]
 80020f8:	2221      	movs	r2, #33	; 0x21
 80020fa:	f883 2041 	strb.w	r2, [r3, #65]	; 0x41
    hi2c->Mode      = HAL_I2C_MODE_MASTER;
 80020fe:	68fb      	ldr	r3, [r7, #12]
 8002100:	2210      	movs	r2, #16
 8002102:	f883 2042 	strb.w	r2, [r3, #66]	; 0x42
    hi2c->ErrorCode = HAL_I2C_ERROR_NONE;
 8002106:	68fb      	ldr	r3, [r7, #12]
 8002108:	2200      	movs	r2, #0
 800210a:	645a      	str	r2, [r3, #68]	; 0x44
    
    /* Prepare transfer parameters */
    hi2c->pBuffPtr  = pData;
 800210c:	68fb      	ldr	r3, [r7, #12]
 800210e:	687a      	ldr	r2, [r7, #4]
 8002110:	625a      	str	r2, [r3, #36]	; 0x24
    hi2c->XferCount = Size;
 8002112:	68fb      	ldr	r3, [r7, #12]
 8002114:	893a      	ldrh	r2, [r7, #8]
 8002116:	855a      	strh	r2, [r3, #42]	; 0x2a
    hi2c->XferISR   = NULL;
 8002118:	68fb      	ldr	r3, [r7, #12]
 800211a:	2200      	movs	r2, #0
 800211c:	635a      	str	r2, [r3, #52]	; 0x34

    /* Send Slave Address */
    /* Set NBYTES to write and reload if hi2c->XferCount > MAX_NBYTE_SIZE and generate RESTART */
    if(hi2c->XferCount > MAX_NBYTE_SIZE)
 800211e:	68fb      	ldr	r3, [r7, #12]
 8002120:	8d5b      	ldrh	r3, [r3, #42]	; 0x2a
 8002122:	b29b      	uxth	r3, r3
 8002124:	2bff      	cmp	r3, #255	; 0xff
 8002126:	d90f      	bls.n	8002148 <HAL_I2C_Master_Transmit+0xb0>
    {
      hi2c->XferSize = MAX_NBYTE_SIZE;
 8002128:	68fb      	ldr	r3, [r7, #12]
 800212a:	22ff      	movs	r2, #255	; 0xff
 800212c:	851a      	strh	r2, [r3, #40]	; 0x28
      I2C_TransferConfig(hi2c, DevAddress, hi2c->XferSize, I2C_RELOAD_MODE, I2C_GENERATE_START_WRITE);
 800212e:	68fb      	ldr	r3, [r7, #12]
 8002130:	8d1b      	ldrh	r3, [r3, #40]	; 0x28
 8002132:	b2da      	uxtb	r2, r3
 8002134:	8979      	ldrh	r1, [r7, #10]
 8002136:	f44f 5300 	mov.w	r3, #8192	; 0x2000
 800213a:	9300      	str	r3, [sp, #0]
 800213c:	f04f 7380 	mov.w	r3, #16777216	; 0x1000000
 8002140:	68f8      	ldr	r0, [r7, #12]
 8002142:	f000 fc1f 	bl	8002984 <I2C_TransferConfig>
 8002146:	e071      	b.n	800222c <HAL_I2C_Master_Transmit+0x194>
    }
    else
    {
      hi2c->XferSize = hi2c->XferCount;
 8002148:	68fb      	ldr	r3, [r7, #12]
 800214a:	8d5b      	ldrh	r3, [r3, #42]	; 0x2a
 800214c:	b29a      	uxth	r2, r3
 800214e:	68fb      	ldr	r3, [r7, #12]
 8002150:	851a      	strh	r2, [r3, #40]	; 0x28
      I2C_TransferConfig(hi2c, DevAddress, hi2c->XferSize, I2C_AUTOEND_MODE, I2C_GENERATE_START_WRITE);
 8002152:	68fb      	ldr	r3, [r7, #12]
 8002154:	8d1b      	ldrh	r3, [r3, #40]	; 0x28
 8002156:	b2da      	uxtb	r2, r3
 8002158:	8979      	ldrh	r1, [r7, #10]
 800215a:	f44f 5300 	mov.w	r3, #8192	; 0x2000
 800215e:	9300      	str	r3, [sp, #0]
 8002160:	f04f 7300 	mov.w	r3, #33554432	; 0x2000000
 8002164:	68f8      	ldr	r0, [r7, #12]
 8002166:	f000 fc0d 	bl	8002984 <I2C_TransferConfig>
    }

    while(hi2c->XferCount > 0U)
 800216a:	e05f      	b.n	800222c <HAL_I2C_Master_Transmit+0x194>
    {
      /* Wait until TXIS flag is set */
      if(I2C_WaitOnTXISFlagUntilTimeout(hi2c, Timeout, tickstart) != HAL_OK)
 800216c:	697a      	ldr	r2, [r7, #20]
 800216e:	6a39      	ldr	r1, [r7, #32]
 8002170:	68f8      	ldr	r0, [r7, #12]
 8002172:	f000 facf 	bl	8002714 <I2C_WaitOnTXISFlagUntilTimeout>
 8002176:	4603      	mov	r3, r0
 8002178:	2b00      	cmp	r3, #0
 800217a:	d007      	beq.n	800218c <HAL_I2C_Master_Transmit+0xf4>
      {
        if(hi2c->ErrorCode == HAL_I2C_ERROR_AF)
 800217c:	68fb      	ldr	r3, [r7, #12]
 800217e:	6c5b      	ldr	r3, [r3, #68]	; 0x44
 8002180:	2b04      	cmp	r3, #4
 8002182:	d101      	bne.n	8002188 <HAL_I2C_Master_Transmit+0xf0>
        {
          return HAL_ERROR;
 8002184:	2301      	movs	r3, #1
 8002186:	e081      	b.n	800228c <HAL_I2C_Master_Transmit+0x1f4>
        }
        else
        {
          return HAL_TIMEOUT;
 8002188:	2303      	movs	r3, #3
 800218a:	e07f      	b.n	800228c <HAL_I2C_Master_Transmit+0x1f4>
        }
      }
      /* Write data to TXDR */
      hi2c->Instance->TXDR = (*hi2c->pBuffPtr++);
 800218c:	68fb      	ldr	r3, [r7, #12]
 800218e:	681a      	ldr	r2, [r3, #0]
 8002190:	68fb      	ldr	r3, [r7, #12]
 8002192:	6a5b      	ldr	r3, [r3, #36]	; 0x24
 8002194:	1c58      	adds	r0, r3, #1
 8002196:	68f9      	ldr	r1, [r7, #12]
 8002198:	6248      	str	r0, [r1, #36]	; 0x24
 800219a:	781b      	ldrb	r3, [r3, #0]
 800219c:	6293      	str	r3, [r2, #40]	; 0x28
      hi2c->XferCount--;
 800219e:	68fb      	ldr	r3, [r7, #12]
 80021a0:	8d5b      	ldrh	r3, [r3, #42]	; 0x2a
 80021a2:	b29b      	uxth	r3, r3
 80021a4:	3b01      	subs	r3, #1
 80021a6:	b29a      	uxth	r2, r3
 80021a8:	68fb      	ldr	r3, [r7, #12]
 80021aa:	855a      	strh	r2, [r3, #42]	; 0x2a
      hi2c->XferSize--;
 80021ac:	68fb      	ldr	r3, [r7, #12]
 80021ae:	8d1b      	ldrh	r3, [r3, #40]	; 0x28
 80021b0:	3b01      	subs	r3, #1
 80021b2:	b29a      	uxth	r2, r3
 80021b4:	68fb      	ldr	r3, [r7, #12]
 80021b6:	851a      	strh	r2, [r3, #40]	; 0x28

      if((hi2c->XferSize == 0U) && (hi2c->XferCount!=0U))
 80021b8:	68fb      	ldr	r3, [r7, #12]
 80021ba:	8d1b      	ldrh	r3, [r3, #40]	; 0x28
 80021bc:	2b00      	cmp	r3, #0
 80021be:	d135      	bne.n	800222c <HAL_I2C_Master_Transmit+0x194>
 80021c0:	68fb      	ldr	r3, [r7, #12]
 80021c2:	8d5b      	ldrh	r3, [r3, #42]	; 0x2a
 80021c4:	b29b      	uxth	r3, r3
 80021c6:	2b00      	cmp	r3, #0
 80021c8:	d030      	beq.n	800222c <HAL_I2C_Master_Transmit+0x194>
      {
        /* Wait until TCR flag is set */
        if(I2C_WaitOnFlagUntilTimeout(hi2c, I2C_FLAG_TCR, RESET, Timeout, tickstart) != HAL_OK)
 80021ca:	697b      	ldr	r3, [r7, #20]
 80021cc:	9300      	str	r3, [sp, #0]
 80021ce:	6a3b      	ldr	r3, [r7, #32]
 80021d0:	2200      	movs	r2, #0
 80021d2:	2180      	movs	r1, #128	; 0x80
 80021d4:	68f8      	ldr	r0, [r7, #12]
 80021d6:	f000 fa63 	bl	80026a0 <I2C_WaitOnFlagUntilTimeout>
 80021da:	4603      	mov	r3, r0
 80021dc:	2b00      	cmp	r3, #0
 80021de:	d001      	beq.n	80021e4 <HAL_I2C_Master_Transmit+0x14c>
        {
          return HAL_TIMEOUT;
 80021e0:	2303      	movs	r3, #3
 80021e2:	e053      	b.n	800228c <HAL_I2C_Master_Transmit+0x1f4>
        }

        if(hi2c->XferCount > MAX_NBYTE_SIZE)
 80021e4:	68fb      	ldr	r3, [r7, #12]
 80021e6:	8d5b      	ldrh	r3, [r3, #42]	; 0x2a
 80021e8:	b29b      	uxth	r3, r3
 80021ea:	2bff      	cmp	r3, #255	; 0xff
 80021ec:	d90e      	bls.n	800220c <HAL_I2C_Master_Transmit+0x174>
        {
          hi2c->XferSize = MAX_NBYTE_SIZE;
 80021ee:	68fb      	ldr	r3, [r7, #12]
 80021f0:	22ff      	movs	r2, #255	; 0xff
 80021f2:	851a      	strh	r2, [r3, #40]	; 0x28
          I2C_TransferConfig(hi2c, DevAddress, hi2c->XferSize, I2C_RELOAD_MODE, I2C_NO_STARTSTOP);
 80021f4:	68fb      	ldr	r3, [r7, #12]
 80021f6:	8d1b      	ldrh	r3, [r3, #40]	; 0x28
 80021f8:	b2da      	uxtb	r2, r3
 80021fa:	8979      	ldrh	r1, [r7, #10]
 80021fc:	2300      	movs	r3, #0
 80021fe:	9300      	str	r3, [sp, #0]
 8002200:	f04f 7380 	mov.w	r3, #16777216	; 0x1000000
 8002204:	68f8      	ldr	r0, [r7, #12]
 8002206:	f000 fbbd 	bl	8002984 <I2C_TransferConfig>
 800220a:	e00f      	b.n	800222c <HAL_I2C_Master_Transmit+0x194>
        }
        else
        {
          hi2c->XferSize = hi2c->XferCount;
 800220c:	68fb      	ldr	r3, [r7, #12]
 800220e:	8d5b      	ldrh	r3, [r3, #42]	; 0x2a
 8002210:	b29a      	uxth	r2, r3
 8002212:	68fb      	ldr	r3, [r7, #12]
 8002214:	851a      	strh	r2, [r3, #40]	; 0x28
          I2C_TransferConfig(hi2c, DevAddress, hi2c->XferSize, I2C_AUTOEND_MODE, I2C_NO_STARTSTOP);
 8002216:	68fb      	ldr	r3, [r7, #12]
 8002218:	8d1b      	ldrh	r3, [r3, #40]	; 0x28
 800221a:	b2da      	uxtb	r2, r3
 800221c:	8979      	ldrh	r1, [r7, #10]
 800221e:	2300      	movs	r3, #0
 8002220:	9300      	str	r3, [sp, #0]
 8002222:	f04f 7300 	mov.w	r3, #33554432	; 0x2000000
 8002226:	68f8      	ldr	r0, [r7, #12]
 8002228:	f000 fbac 	bl	8002984 <I2C_TransferConfig>
    while(hi2c->XferCount > 0U)
 800222c:	68fb      	ldr	r3, [r7, #12]
 800222e:	8d5b      	ldrh	r3, [r3, #42]	; 0x2a
 8002230:	b29b      	uxth	r3, r3
 8002232:	2b00      	cmp	r3, #0
 8002234:	d19a      	bne.n	800216c <HAL_I2C_Master_Transmit+0xd4>
      }
    }

    /* No need to Check TC flag, with AUTOEND mode the stop is automatically generated */
    /* Wait until STOPF flag is set */
    if(I2C_WaitOnSTOPFlagUntilTimeout(hi2c, Timeout, tickstart) != HAL_OK)
 8002236:	697a      	ldr	r2, [r7, #20]
 8002238:	6a39      	ldr	r1, [r7, #32]
 800223a:	68f8      	ldr	r0, [r7, #12]
 800223c:	f000 faaa 	bl	8002794 <I2C_WaitOnSTOPFlagUntilTimeout>
 8002240:	4603      	mov	r3, r0
 8002242:	2b00      	cmp	r3, #0
 8002244:	d007      	beq.n	8002256 <HAL_I2C_Master_Transmit+0x1be>
    {
      if(hi2c->ErrorCode == HAL_I2C_ERROR_AF)
 8002246:	68fb      	ldr	r3, [r7, #12]
 8002248:	6c5b      	ldr	r3, [r3, #68]	; 0x44
 800224a:	2b04      	cmp	r3, #4
 800224c:	d101      	bne.n	8002252 <HAL_I2C_Master_Transmit+0x1ba>
      {
        return HAL_ERROR;
 800224e:	2301      	movs	r3, #1
 8002250:	e01c      	b.n	800228c <HAL_I2C_Master_Transmit+0x1f4>
      }
      else
      {
        return HAL_TIMEOUT;
 8002252:	2303      	movs	r3, #3
 8002254:	e01a      	b.n	800228c <HAL_I2C_Master_Transmit+0x1f4>
      }
    }

    /* Clear STOP Flag */
    __HAL_I2C_CLEAR_FLAG(hi2c, I2C_FLAG_STOPF);
 8002256:	68fb      	ldr	r3, [r7, #12]
 8002258:	681b      	ldr	r3, [r3, #0]
 800225a:	2220      	movs	r2, #32
 800225c:	61da      	str	r2, [r3, #28]

    /* Clear Configuration Register 2 */
    I2C_RESET_CR2(hi2c);
 800225e:	68fb      	ldr	r3, [r7, #12]
 8002260:	681a      	ldr	r2, [r3, #0]
 8002262:	68fb      	ldr	r3, [r7, #12]
 8002264:	681b      	ldr	r3, [r3, #0]
 8002266:	6859      	ldr	r1, [r3, #4]
 8002268:	4b0a      	ldr	r3, [pc, #40]	; (8002294 <HAL_I2C_Master_Transmit+0x1fc>)
 800226a:	400b      	ands	r3, r1
 800226c:	6053      	str	r3, [r2, #4]

    hi2c->State = HAL_I2C_STATE_READY;
 800226e:	68fb      	ldr	r3, [r7, #12]
 8002270:	2220      	movs	r2, #32
 8002272:	f883 2041 	strb.w	r2, [r3, #65]	; 0x41
    hi2c->Mode  = HAL_I2C_MODE_NONE;
 8002276:	68fb      	ldr	r3, [r7, #12]
 8002278:	2200      	movs	r2, #0
 800227a:	f883 2042 	strb.w	r2, [r3, #66]	; 0x42

    /* Process Unlocked */
    __HAL_UNLOCK(hi2c);
 800227e:	68fb      	ldr	r3, [r7, #12]
 8002280:	2200      	movs	r2, #0
 8002282:	f883 2040 	strb.w	r2, [r3, #64]	; 0x40

    return HAL_OK;
 8002286:	2300      	movs	r3, #0
 8002288:	e000      	b.n	800228c <HAL_I2C_Master_Transmit+0x1f4>
  }
  else
  {
    return HAL_BUSY;
 800228a:	2302      	movs	r3, #2
  }
}
 800228c:	4618      	mov	r0, r3
 800228e:	3718      	adds	r7, #24
 8002290:	46bd      	mov	sp, r7
 8002292:	bd80      	pop	{r7, pc}
 8002294:	fe00e800 	.word	0xfe00e800

08002298 <HAL_I2C_Master_Receive>:
  * @param  Size Amount of data to be sent
  * @param  Timeout Timeout duration
  * @retval HAL status
  */
HAL_StatusTypeDef HAL_I2C_Master_Receive(I2C_HandleTypeDef *hi2c, uint16_t DevAddress, uint8_t *pData, uint16_t Size, uint32_t Timeout)
{
 8002298:	b580      	push	{r7, lr}
 800229a:	b088      	sub	sp, #32
 800229c:	af02      	add	r7, sp, #8
 800229e:	60f8      	str	r0, [r7, #12]
 80022a0:	607a      	str	r2, [r7, #4]
 80022a2:	461a      	mov	r2, r3
 80022a4:	460b      	mov	r3, r1
 80022a6:	817b      	strh	r3, [r7, #10]
 80022a8:	4613      	mov	r3, r2
 80022aa:	813b      	strh	r3, [r7, #8]
  uint32_t tickstart = 0U;
 80022ac:	2300      	movs	r3, #0
 80022ae:	617b      	str	r3, [r7, #20]

  if(hi2c->State == HAL_I2C_STATE_READY)
 80022b0:	68fb      	ldr	r3, [r7, #12]
 80022b2:	f893 3041 	ldrb.w	r3, [r3, #65]	; 0x41
 80022b6:	b2db      	uxtb	r3, r3
 80022b8:	2b20      	cmp	r3, #32
 80022ba:	f040 80e7 	bne.w	800248c <HAL_I2C_Master_Receive+0x1f4>
  {    
    /* Process Locked */
    __HAL_LOCK(hi2c);
 80022be:	68fb      	ldr	r3, [r7, #12]
 80022c0:	f893 3040 	ldrb.w	r3, [r3, #64]	; 0x40
 80022c4:	2b01      	cmp	r3, #1
 80022c6:	d101      	bne.n	80022cc <HAL_I2C_Master_Receive+0x34>
 80022c8:	2302      	movs	r3, #2
 80022ca:	e0e0      	b.n	800248e <HAL_I2C_Master_Receive+0x1f6>
 80022cc:	68fb      	ldr	r3, [r7, #12]
 80022ce:	2201      	movs	r2, #1
 80022d0:	f883 2040 	strb.w	r2, [r3, #64]	; 0x40

    /* Init tickstart for timeout management*/
    tickstart = HAL_GetTick();
 80022d4:	f7ff fb76 	bl	80019c4 <HAL_GetTick>
 80022d8:	6178      	str	r0, [r7, #20]

    if(I2C_WaitOnFlagUntilTimeout(hi2c, I2C_FLAG_BUSY, SET, I2C_TIMEOUT_BUSY, tickstart) != HAL_OK)
 80022da:	697b      	ldr	r3, [r7, #20]
 80022dc:	9300      	str	r3, [sp, #0]
 80022de:	2319      	movs	r3, #25
 80022e0:	2201      	movs	r2, #1
 80022e2:	f44f 4100 	mov.w	r1, #32768	; 0x8000
 80022e6:	68f8      	ldr	r0, [r7, #12]
 80022e8:	f000 f9da 	bl	80026a0 <I2C_WaitOnFlagUntilTimeout>
 80022ec:	4603      	mov	r3, r0
 80022ee:	2b00      	cmp	r3, #0
 80022f0:	d001      	beq.n	80022f6 <HAL_I2C_Master_Receive+0x5e>
    {
      return HAL_TIMEOUT;
 80022f2:	2303      	movs	r3, #3
 80022f4:	e0cb      	b.n	800248e <HAL_I2C_Master_Receive+0x1f6>
    }

    hi2c->State     = HAL_I2C_STATE_BUSY_RX;
 80022f6:	68fb      	ldr	r3, [r7, #12]
 80022f8:	2222      	movs	r2, #34	; 0x22
 80022fa:	f883 2041 	strb.w	r2, [r3, #65]	; 0x41
    hi2c->Mode      = HAL_I2C_MODE_MASTER;
 80022fe:	68fb      	ldr	r3, [r7, #12]
 8002300:	2210      	movs	r2, #16
 8002302:	f883 2042 	strb.w	r2, [r3, #66]	; 0x42
    hi2c->ErrorCode = HAL_I2C_ERROR_NONE;
 8002306:	68fb      	ldr	r3, [r7, #12]
 8002308:	2200      	movs	r2, #0
 800230a:	645a      	str	r2, [r3, #68]	; 0x44

    /* Prepare transfer parameters */
    hi2c->pBuffPtr  = pData;
 800230c:	68fb      	ldr	r3, [r7, #12]
 800230e:	687a      	ldr	r2, [r7, #4]
 8002310:	625a      	str	r2, [r3, #36]	; 0x24
    hi2c->XferCount = Size;
 8002312:	68fb      	ldr	r3, [r7, #12]
 8002314:	893a      	ldrh	r2, [r7, #8]
 8002316:	855a      	strh	r2, [r3, #42]	; 0x2a
    hi2c->XferISR   = NULL;
 8002318:	68fb      	ldr	r3, [r7, #12]
 800231a:	2200      	movs	r2, #0
 800231c:	635a      	str	r2, [r3, #52]	; 0x34

    /* Send Slave Address */
    /* Set NBYTES to write and reload if hi2c->XferCount > MAX_NBYTE_SIZE and generate RESTART */
    if(hi2c->XferCount > MAX_NBYTE_SIZE)
 800231e:	68fb      	ldr	r3, [r7, #12]
 8002320:	8d5b      	ldrh	r3, [r3, #42]	; 0x2a
 8002322:	b29b      	uxth	r3, r3
 8002324:	2bff      	cmp	r3, #255	; 0xff
 8002326:	d90f      	bls.n	8002348 <HAL_I2C_Master_Receive+0xb0>
    {
      hi2c->XferSize = MAX_NBYTE_SIZE;
 8002328:	68fb      	ldr	r3, [r7, #12]
 800232a:	22ff      	movs	r2, #255	; 0xff
 800232c:	851a      	strh	r2, [r3, #40]	; 0x28
      I2C_TransferConfig(hi2c, DevAddress, hi2c->XferSize, I2C_RELOAD_MODE, I2C_GENERATE_START_READ);
 800232e:	68fb      	ldr	r3, [r7, #12]
 8002330:	8d1b      	ldrh	r3, [r3, #40]	; 0x28
 8002332:	b2da      	uxtb	r2, r3
 8002334:	8979      	ldrh	r1, [r7, #10]
 8002336:	f44f 5310 	mov.w	r3, #9216	; 0x2400
 800233a:	9300      	str	r3, [sp, #0]
 800233c:	f04f 7380 	mov.w	r3, #16777216	; 0x1000000
 8002340:	68f8      	ldr	r0, [r7, #12]
 8002342:	f000 fb1f 	bl	8002984 <I2C_TransferConfig>
 8002346:	e072      	b.n	800242e <HAL_I2C_Master_Receive+0x196>
    }
    else
    {
      hi2c->XferSize = hi2c->XferCount;
 8002348:	68fb      	ldr	r3, [r7, #12]
 800234a:	8d5b      	ldrh	r3, [r3, #42]	; 0x2a
 800234c:	b29a      	uxth	r2, r3
 800234e:	68fb      	ldr	r3, [r7, #12]
 8002350:	851a      	strh	r2, [r3, #40]	; 0x28
      I2C_TransferConfig(hi2c, DevAddress, hi2c->XferSize, I2C_AUTOEND_MODE, I2C_GENERATE_START_READ);
 8002352:	68fb      	ldr	r3, [r7, #12]
 8002354:	8d1b      	ldrh	r3, [r3, #40]	; 0x28
 8002356:	b2da      	uxtb	r2, r3
 8002358:	8979      	ldrh	r1, [r7, #10]
 800235a:	f44f 5310 	mov.w	r3, #9216	; 0x2400
 800235e:	9300      	str	r3, [sp, #0]
 8002360:	f04f 7300 	mov.w	r3, #33554432	; 0x2000000
 8002364:	68f8      	ldr	r0, [r7, #12]
 8002366:	f000 fb0d 	bl	8002984 <I2C_TransferConfig>
    }

    while(hi2c->XferCount > 0U)
 800236a:	e060      	b.n	800242e <HAL_I2C_Master_Receive+0x196>
    {
      /* Wait until RXNE flag is set */
      if(I2C_WaitOnRXNEFlagUntilTimeout(hi2c, Timeout, tickstart) != HAL_OK)
 800236c:	697a      	ldr	r2, [r7, #20]
 800236e:	6a39      	ldr	r1, [r7, #32]
 8002370:	68f8      	ldr	r0, [r7, #12]
 8002372:	f000 fa4b 	bl	800280c <I2C_WaitOnRXNEFlagUntilTimeout>
 8002376:	4603      	mov	r3, r0
 8002378:	2b00      	cmp	r3, #0
 800237a:	d007      	beq.n	800238c <HAL_I2C_Master_Receive+0xf4>
      {
        if(hi2c->ErrorCode == HAL_I2C_ERROR_AF)
 800237c:	68fb      	ldr	r3, [r7, #12]
 800237e:	6c5b      	ldr	r3, [r3, #68]	; 0x44
 8002380:	2b04      	cmp	r3, #4
 8002382:	d101      	bne.n	8002388 <HAL_I2C_Master_Receive+0xf0>
        {
          return HAL_ERROR;
 8002384:	2301      	movs	r3, #1
 8002386:	e082      	b.n	800248e <HAL_I2C_Master_Receive+0x1f6>
        }
        else
        {
          return HAL_TIMEOUT;
 8002388:	2303      	movs	r3, #3
 800238a:	e080      	b.n	800248e <HAL_I2C_Master_Receive+0x1f6>
        }
      }

      /* Read data from RXDR */
      (*hi2c->pBuffPtr++) = hi2c->Instance->RXDR;
 800238c:	68fb      	ldr	r3, [r7, #12]
 800238e:	6a5b      	ldr	r3, [r3, #36]	; 0x24
 8002390:	1c59      	adds	r1, r3, #1
 8002392:	68fa      	ldr	r2, [r7, #12]
 8002394:	6251      	str	r1, [r2, #36]	; 0x24
 8002396:	68fa      	ldr	r2, [r7, #12]
 8002398:	6812      	ldr	r2, [r2, #0]
 800239a:	6a52      	ldr	r2, [r2, #36]	; 0x24
 800239c:	b2d2      	uxtb	r2, r2
 800239e:	701a      	strb	r2, [r3, #0]
      hi2c->XferSize--;
 80023a0:	68fb      	ldr	r3, [r7, #12]
 80023a2:	8d1b      	ldrh	r3, [r3, #40]	; 0x28
 80023a4:	3b01      	subs	r3, #1
 80023a6:	b29a      	uxth	r2, r3
 80023a8:	68fb      	ldr	r3, [r7, #12]
 80023aa:	851a      	strh	r2, [r3, #40]	; 0x28
      hi2c->XferCount--;
 80023ac:	68fb      	ldr	r3, [r7, #12]
 80023ae:	8d5b      	ldrh	r3, [r3, #42]	; 0x2a
 80023b0:	b29b      	uxth	r3, r3
 80023b2:	3b01      	subs	r3, #1
 80023b4:	b29a      	uxth	r2, r3
 80023b6:	68fb      	ldr	r3, [r7, #12]
 80023b8:	855a      	strh	r2, [r3, #42]	; 0x2a

      if((hi2c->XferSize == 0U) && (hi2c->XferCount != 0U))
 80023ba:	68fb      	ldr	r3, [r7, #12]
 80023bc:	8d1b      	ldrh	r3, [r3, #40]	; 0x28
 80023be:	2b00      	cmp	r3, #0
 80023c0:	d135      	bne.n	800242e <HAL_I2C_Master_Receive+0x196>
 80023c2:	68fb      	ldr	r3, [r7, #12]
 80023c4:	8d5b      	ldrh	r3, [r3, #42]	; 0x2a
 80023c6:	b29b      	uxth	r3, r3
 80023c8:	2b00      	cmp	r3, #0
 80023ca:	d030      	beq.n	800242e <HAL_I2C_Master_Receive+0x196>
      {
        /* Wait until TCR flag is set */
        if(I2C_WaitOnFlagUntilTimeout(hi2c, I2C_FLAG_TCR, RESET, Timeout, tickstart) != HAL_OK)
 80023cc:	697b      	ldr	r3, [r7, #20]
 80023ce:	9300      	str	r3, [sp, #0]
 80023d0:	6a3b      	ldr	r3, [r7, #32]
 80023d2:	2200      	movs	r2, #0
 80023d4:	2180      	movs	r1, #128	; 0x80
 80023d6:	68f8      	ldr	r0, [r7, #12]
 80023d8:	f000 f962 	bl	80026a0 <I2C_WaitOnFlagUntilTimeout>
 80023dc:	4603      	mov	r3, r0
 80023de:	2b00      	cmp	r3, #0
 80023e0:	d001      	beq.n	80023e6 <HAL_I2C_Master_Receive+0x14e>
        {
          return HAL_TIMEOUT;
 80023e2:	2303      	movs	r3, #3
 80023e4:	e053      	b.n	800248e <HAL_I2C_Master_Receive+0x1f6>
        }

        if(hi2c->XferCount > MAX_NBYTE_SIZE)
 80023e6:	68fb      	ldr	r3, [r7, #12]
 80023e8:	8d5b      	ldrh	r3, [r3, #42]	; 0x2a
 80023ea:	b29b      	uxth	r3, r3
 80023ec:	2bff      	cmp	r3, #255	; 0xff
 80023ee:	d90e      	bls.n	800240e <HAL_I2C_Master_Receive+0x176>
        {
          hi2c->XferSize = MAX_NBYTE_SIZE;
 80023f0:	68fb      	ldr	r3, [r7, #12]
 80023f2:	22ff      	movs	r2, #255	; 0xff
 80023f4:	851a      	strh	r2, [r3, #40]	; 0x28
          I2C_TransferConfig(hi2c, DevAddress, hi2c->XferSize, I2C_RELOAD_MODE, I2C_NO_STARTSTOP);
 80023f6:	68fb      	ldr	r3, [r7, #12]
 80023f8:	8d1b      	ldrh	r3, [r3, #40]	; 0x28
 80023fa:	b2da      	uxtb	r2, r3
 80023fc:	8979      	ldrh	r1, [r7, #10]
 80023fe:	2300      	movs	r3, #0
 8002400:	9300      	str	r3, [sp, #0]
 8002402:	f04f 7380 	mov.w	r3, #16777216	; 0x1000000
 8002406:	68f8      	ldr	r0, [r7, #12]
 8002408:	f000 fabc 	bl	8002984 <I2C_TransferConfig>
 800240c:	e00f      	b.n	800242e <HAL_I2C_Master_Receive+0x196>
        }
        else
        {
          hi2c->XferSize = hi2c->XferCount;
 800240e:	68fb      	ldr	r3, [r7, #12]
 8002410:	8d5b      	ldrh	r3, [r3, #42]	; 0x2a
 8002412:	b29a      	uxth	r2, r3
 8002414:	68fb      	ldr	r3, [r7, #12]
 8002416:	851a      	strh	r2, [r3, #40]	; 0x28
          I2C_TransferConfig(hi2c, DevAddress, hi2c->XferSize, I2C_AUTOEND_MODE, I2C_NO_STARTSTOP);
 8002418:	68fb      	ldr	r3, [r7, #12]
 800241a:	8d1b      	ldrh	r3, [r3, #40]	; 0x28
 800241c:	b2da      	uxtb	r2, r3
 800241e:	8979      	ldrh	r1, [r7, #10]
 8002420:	2300      	movs	r3, #0
 8002422:	9300      	str	r3, [sp, #0]
 8002424:	f04f 7300 	mov.w	r3, #33554432	; 0x2000000
 8002428:	68f8      	ldr	r0, [r7, #12]
 800242a:	f000 faab 	bl	8002984 <I2C_TransferConfig>
    while(hi2c->XferCount > 0U)
 800242e:	68fb      	ldr	r3, [r7, #12]
 8002430:	8d5b      	ldrh	r3, [r3, #42]	; 0x2a
 8002432:	b29b      	uxth	r3, r3
 8002434:	2b00      	cmp	r3, #0
 8002436:	d199      	bne.n	800236c <HAL_I2C_Master_Receive+0xd4>
      }
    }

    /* No need to Check TC flag, with AUTOEND mode the stop is automatically generated */
    /* Wait until STOPF flag is set */
    if(I2C_WaitOnSTOPFlagUntilTimeout(hi2c, Timeout, tickstart) != HAL_OK)
 8002438:	697a      	ldr	r2, [r7, #20]
 800243a:	6a39      	ldr	r1, [r7, #32]
 800243c:	68f8      	ldr	r0, [r7, #12]
 800243e:	f000 f9a9 	bl	8002794 <I2C_WaitOnSTOPFlagUntilTimeout>
 8002442:	4603      	mov	r3, r0
 8002444:	2b00      	cmp	r3, #0
 8002446:	d007      	beq.n	8002458 <HAL_I2C_Master_Receive+0x1c0>
    {
      if(hi2c->ErrorCode == HAL_I2C_ERROR_AF)
 8002448:	68fb      	ldr	r3, [r7, #12]
 800244a:	6c5b      	ldr	r3, [r3, #68]	; 0x44
 800244c:	2b04      	cmp	r3, #4
 800244e:	d101      	bne.n	8002454 <HAL_I2C_Master_Receive+0x1bc>
      {
        return HAL_ERROR;
 8002450:	2301      	movs	r3, #1
 8002452:	e01c      	b.n	800248e <HAL_I2C_Master_Receive+0x1f6>
      }
      else
      {
        return HAL_TIMEOUT;
 8002454:	2303      	movs	r3, #3
 8002456:	e01a      	b.n	800248e <HAL_I2C_Master_Receive+0x1f6>
      }
    }
    
    /* Clear STOP Flag */
    __HAL_I2C_CLEAR_FLAG(hi2c, I2C_FLAG_STOPF);
 8002458:	68fb      	ldr	r3, [r7, #12]
 800245a:	681b      	ldr	r3, [r3, #0]
 800245c:	2220      	movs	r2, #32
 800245e:	61da      	str	r2, [r3, #28]

    /* Clear Configuration Register 2 */
    I2C_RESET_CR2(hi2c);
 8002460:	68fb      	ldr	r3, [r7, #12]
 8002462:	681a      	ldr	r2, [r3, #0]
 8002464:	68fb      	ldr	r3, [r7, #12]
 8002466:	681b      	ldr	r3, [r3, #0]
 8002468:	6859      	ldr	r1, [r3, #4]
 800246a:	4b0b      	ldr	r3, [pc, #44]	; (8002498 <HAL_I2C_Master_Receive+0x200>)
 800246c:	400b      	ands	r3, r1
 800246e:	6053      	str	r3, [r2, #4]

    hi2c->State = HAL_I2C_STATE_READY;
 8002470:	68fb      	ldr	r3, [r7, #12]
 8002472:	2220      	movs	r2, #32
 8002474:	f883 2041 	strb.w	r2, [r3, #65]	; 0x41
    hi2c->Mode  = HAL_I2C_MODE_NONE;
 8002478:	68fb      	ldr	r3, [r7, #12]
 800247a:	2200      	movs	r2, #0
 800247c:	f883 2042 	strb.w	r2, [r3, #66]	; 0x42

    /* Process Unlocked */
    __HAL_UNLOCK(hi2c);
 8002480:	68fb      	ldr	r3, [r7, #12]
 8002482:	2200      	movs	r2, #0
 8002484:	f883 2040 	strb.w	r2, [r3, #64]	; 0x40

    return HAL_OK;
 8002488:	2300      	movs	r3, #0
 800248a:	e000      	b.n	800248e <HAL_I2C_Master_Receive+0x1f6>
  }
  else
  {
    return HAL_BUSY;
 800248c:	2302      	movs	r3, #2
  }
}
 800248e:	4618      	mov	r0, r3
 8002490:	3718      	adds	r7, #24
 8002492:	46bd      	mov	sp, r7
 8002494:	bd80      	pop	{r7, pc}
 8002496:	bf00      	nop
 8002498:	fe00e800 	.word	0xfe00e800

0800249c <HAL_I2C_IsDeviceReady>:
  * @param  Trials Number of trials
  * @param  Timeout Timeout duration
  * @retval HAL status
  */
HAL_StatusTypeDef HAL_I2C_IsDeviceReady(I2C_HandleTypeDef *hi2c, uint16_t DevAddress, uint32_t Trials, uint32_t Timeout)
{
 800249c:	b580      	push	{r7, lr}
 800249e:	b088      	sub	sp, #32
 80024a0:	af02      	add	r7, sp, #8
 80024a2:	60f8      	str	r0, [r7, #12]
 80024a4:	607a      	str	r2, [r7, #4]
 80024a6:	603b      	str	r3, [r7, #0]
 80024a8:	460b      	mov	r3, r1
 80024aa:	817b      	strh	r3, [r7, #10]
  uint32_t tickstart = 0U;
 80024ac:	2300      	movs	r3, #0
 80024ae:	617b      	str	r3, [r7, #20]

  __IO uint32_t I2C_Trials = 0U;
 80024b0:	2300      	movs	r3, #0
 80024b2:	613b      	str	r3, [r7, #16]

  if(hi2c->State == HAL_I2C_STATE_READY)
 80024b4:	68fb      	ldr	r3, [r7, #12]
 80024b6:	f893 3041 	ldrb.w	r3, [r3, #65]	; 0x41
 80024ba:	b2db      	uxtb	r3, r3
 80024bc:	2b20      	cmp	r3, #32
 80024be:	f040 80c6 	bne.w	800264e <HAL_I2C_IsDeviceReady+0x1b2>
  {
    if(__HAL_I2C_GET_FLAG(hi2c, I2C_FLAG_BUSY) == SET)
 80024c2:	68fb      	ldr	r3, [r7, #12]
 80024c4:	681b      	ldr	r3, [r3, #0]
 80024c6:	699b      	ldr	r3, [r3, #24]
 80024c8:	f403 4300 	and.w	r3, r3, #32768	; 0x8000
 80024cc:	f5b3 4f00 	cmp.w	r3, #32768	; 0x8000
 80024d0:	d101      	bne.n	80024d6 <HAL_I2C_IsDeviceReady+0x3a>
    {
      return HAL_BUSY;
 80024d2:	2302      	movs	r3, #2
 80024d4:	e0bc      	b.n	8002650 <HAL_I2C_IsDeviceReady+0x1b4>
    }

    /* Process Locked */
    __HAL_LOCK(hi2c);
 80024d6:	68fb      	ldr	r3, [r7, #12]
 80024d8:	f893 3040 	ldrb.w	r3, [r3, #64]	; 0x40
 80024dc:	2b01      	cmp	r3, #1
 80024de:	d101      	bne.n	80024e4 <HAL_I2C_IsDeviceReady+0x48>
 80024e0:	2302      	movs	r3, #2
 80024e2:	e0b5      	b.n	8002650 <HAL_I2C_IsDeviceReady+0x1b4>
 80024e4:	68fb      	ldr	r3, [r7, #12]
 80024e6:	2201      	movs	r2, #1
 80024e8:	f883 2040 	strb.w	r2, [r3, #64]	; 0x40

    hi2c->State = HAL_I2C_STATE_BUSY;
 80024ec:	68fb      	ldr	r3, [r7, #12]
 80024ee:	2224      	movs	r2, #36	; 0x24
 80024f0:	f883 2041 	strb.w	r2, [r3, #65]	; 0x41
    hi2c->ErrorCode = HAL_I2C_ERROR_NONE;
 80024f4:	68fb      	ldr	r3, [r7, #12]
 80024f6:	2200      	movs	r2, #0
 80024f8:	645a      	str	r2, [r3, #68]	; 0x44

    do
    {
      /* Generate Start */
      hi2c->Instance->CR2 = I2C_GENERATE_START(hi2c->Init.AddressingMode,DevAddress);
 80024fa:	68fb      	ldr	r3, [r7, #12]
 80024fc:	681a      	ldr	r2, [r3, #0]
 80024fe:	68fb      	ldr	r3, [r7, #12]
 8002500:	68db      	ldr	r3, [r3, #12]
 8002502:	2b01      	cmp	r3, #1
 8002504:	d107      	bne.n	8002516 <HAL_I2C_IsDeviceReady+0x7a>
 8002506:	897b      	ldrh	r3, [r7, #10]
 8002508:	f3c3 0309 	ubfx	r3, r3, #0, #10
 800250c:	f043 7300 	orr.w	r3, r3, #33554432	; 0x2000000
 8002510:	f443 5300 	orr.w	r3, r3, #8192	; 0x2000
 8002514:	e004      	b.n	8002520 <HAL_I2C_IsDeviceReady+0x84>
 8002516:	897b      	ldrh	r3, [r7, #10]
 8002518:	f3c3 0309 	ubfx	r3, r3, #0, #10
 800251c:	f443 5320 	orr.w	r3, r3, #10240	; 0x2800
 8002520:	6053      	str	r3, [r2, #4]

      /* No need to Check TC flag, with AUTOEND mode the stop is automatically generated */
      /* Wait until STOPF flag is set or a NACK flag is set*/
      tickstart = HAL_GetTick();
 8002522:	f7ff fa4f 	bl	80019c4 <HAL_GetTick>
 8002526:	6178      	str	r0, [r7, #20]
      while((__HAL_I2C_GET_FLAG(hi2c, I2C_FLAG_STOPF) == RESET) && (__HAL_I2C_GET_FLAG(hi2c, I2C_FLAG_AF) == RESET) && (hi2c->State != HAL_I2C_STATE_TIMEOUT))
 8002528:	e018      	b.n	800255c <HAL_I2C_IsDeviceReady+0xc0>
      {
      	if(Timeout != HAL_MAX_DELAY)
 800252a:	683b      	ldr	r3, [r7, #0]
 800252c:	f1b3 3fff 	cmp.w	r3, #4294967295
 8002530:	d014      	beq.n	800255c <HAL_I2C_IsDeviceReady+0xc0>
      	{
          if((Timeout == 0U) || ((HAL_GetTick() - tickstart) > Timeout))
 8002532:	683b      	ldr	r3, [r7, #0]
 8002534:	2b00      	cmp	r3, #0
 8002536:	d007      	beq.n	8002548 <HAL_I2C_IsDeviceReady+0xac>
 8002538:	f7ff fa44 	bl	80019c4 <HAL_GetTick>
 800253c:	4602      	mov	r2, r0
 800253e:	697b      	ldr	r3, [r7, #20]
 8002540:	1ad2      	subs	r2, r2, r3
 8002542:	683b      	ldr	r3, [r7, #0]
 8002544:	429a      	cmp	r2, r3
 8002546:	d909      	bls.n	800255c <HAL_I2C_IsDeviceReady+0xc0>
          {
            /* Device is ready */
            hi2c->State = HAL_I2C_STATE_READY;
 8002548:	68fb      	ldr	r3, [r7, #12]
 800254a:	2220      	movs	r2, #32
 800254c:	f883 2041 	strb.w	r2, [r3, #65]	; 0x41
            /* Process Unlocked */
            __HAL_UNLOCK(hi2c);
 8002550:	68fb      	ldr	r3, [r7, #12]
 8002552:	2200      	movs	r2, #0
 8002554:	f883 2040 	strb.w	r2, [r3, #64]	; 0x40
            return HAL_TIMEOUT;
 8002558:	2303      	movs	r3, #3
 800255a:	e079      	b.n	8002650 <HAL_I2C_IsDeviceReady+0x1b4>
      while((__HAL_I2C_GET_FLAG(hi2c, I2C_FLAG_STOPF) == RESET) && (__HAL_I2C_GET_FLAG(hi2c, I2C_FLAG_AF) == RESET) && (hi2c->State != HAL_I2C_STATE_TIMEOUT))
 800255c:	68fb      	ldr	r3, [r7, #12]
 800255e:	681b      	ldr	r3, [r3, #0]
 8002560:	699b      	ldr	r3, [r3, #24]
 8002562:	f003 0320 	and.w	r3, r3, #32
 8002566:	2b20      	cmp	r3, #32
 8002568:	d00c      	beq.n	8002584 <HAL_I2C_IsDeviceReady+0xe8>
 800256a:	68fb      	ldr	r3, [r7, #12]
 800256c:	681b      	ldr	r3, [r3, #0]
 800256e:	699b      	ldr	r3, [r3, #24]
 8002570:	f003 0310 	and.w	r3, r3, #16
 8002574:	2b10      	cmp	r3, #16
 8002576:	d005      	beq.n	8002584 <HAL_I2C_IsDeviceReady+0xe8>
 8002578:	68fb      	ldr	r3, [r7, #12]
 800257a:	f893 3041 	ldrb.w	r3, [r3, #65]	; 0x41
 800257e:	b2db      	uxtb	r3, r3
 8002580:	2ba0      	cmp	r3, #160	; 0xa0
 8002582:	d1d2      	bne.n	800252a <HAL_I2C_IsDeviceReady+0x8e>
          }
        } 
      }

      /* Check if the NACKF flag has not been set */
      if (__HAL_I2C_GET_FLAG(hi2c, I2C_FLAG_AF) == RESET)
 8002584:	68fb      	ldr	r3, [r7, #12]
 8002586:	681b      	ldr	r3, [r3, #0]
 8002588:	699b      	ldr	r3, [r3, #24]
 800258a:	f003 0310 	and.w	r3, r3, #16
 800258e:	2b10      	cmp	r3, #16
 8002590:	d01a      	beq.n	80025c8 <HAL_I2C_IsDeviceReady+0x12c>
      {
        /* Wait until STOPF flag is reset */ 
        if(I2C_WaitOnFlagUntilTimeout(hi2c, I2C_FLAG_STOPF, RESET, Timeout, tickstart) != HAL_OK)
 8002592:	697b      	ldr	r3, [r7, #20]
 8002594:	9300      	str	r3, [sp, #0]
 8002596:	683b      	ldr	r3, [r7, #0]
 8002598:	2200      	movs	r2, #0
 800259a:	2120      	movs	r1, #32
 800259c:	68f8      	ldr	r0, [r7, #12]
 800259e:	f000 f87f 	bl	80026a0 <I2C_WaitOnFlagUntilTimeout>
 80025a2:	4603      	mov	r3, r0
 80025a4:	2b00      	cmp	r3, #0
 80025a6:	d001      	beq.n	80025ac <HAL_I2C_IsDeviceReady+0x110>
        {
          return HAL_TIMEOUT;
 80025a8:	2303      	movs	r3, #3
 80025aa:	e051      	b.n	8002650 <HAL_I2C_IsDeviceReady+0x1b4>
        }

        /* Clear STOP Flag */
        __HAL_I2C_CLEAR_FLAG(hi2c, I2C_FLAG_STOPF);
 80025ac:	68fb      	ldr	r3, [r7, #12]
 80025ae:	681b      	ldr	r3, [r3, #0]
 80025b0:	2220      	movs	r2, #32
 80025b2:	61da      	str	r2, [r3, #28]

        /* Device is ready */
        hi2c->State = HAL_I2C_STATE_READY;
 80025b4:	68fb      	ldr	r3, [r7, #12]
 80025b6:	2220      	movs	r2, #32
 80025b8:	f883 2041 	strb.w	r2, [r3, #65]	; 0x41

        /* Process Unlocked */
        __HAL_UNLOCK(hi2c);
 80025bc:	68fb      	ldr	r3, [r7, #12]
 80025be:	2200      	movs	r2, #0
 80025c0:	f883 2040 	strb.w	r2, [r3, #64]	; 0x40

        return HAL_OK;
 80025c4:	2300      	movs	r3, #0
 80025c6:	e043      	b.n	8002650 <HAL_I2C_IsDeviceReady+0x1b4>
      }
      else
      {
        /* Wait until STOPF flag is reset */
        if(I2C_WaitOnFlagUntilTimeout(hi2c, I2C_FLAG_STOPF, RESET, Timeout, tickstart) != HAL_OK)
 80025c8:	697b      	ldr	r3, [r7, #20]
 80025ca:	9300      	str	r3, [sp, #0]
 80025cc:	683b      	ldr	r3, [r7, #0]
 80025ce:	2200      	movs	r2, #0
 80025d0:	2120      	movs	r1, #32
 80025d2:	68f8      	ldr	r0, [r7, #12]
 80025d4:	f000 f864 	bl	80026a0 <I2C_WaitOnFlagUntilTimeout>
 80025d8:	4603      	mov	r3, r0
 80025da:	2b00      	cmp	r3, #0
 80025dc:	d001      	beq.n	80025e2 <HAL_I2C_IsDeviceReady+0x146>
        {
          return HAL_TIMEOUT;
 80025de:	2303      	movs	r3, #3
 80025e0:	e036      	b.n	8002650 <HAL_I2C_IsDeviceReady+0x1b4>
        }

        /* Clear NACK Flag */
        __HAL_I2C_CLEAR_FLAG(hi2c, I2C_FLAG_AF);
 80025e2:	68fb      	ldr	r3, [r7, #12]
 80025e4:	681b      	ldr	r3, [r3, #0]
 80025e6:	2210      	movs	r2, #16
 80025e8:	61da      	str	r2, [r3, #28]

        /* Clear STOP Flag, auto generated with autoend*/
        __HAL_I2C_CLEAR_FLAG(hi2c, I2C_FLAG_STOPF);
 80025ea:	68fb      	ldr	r3, [r7, #12]
 80025ec:	681b      	ldr	r3, [r3, #0]
 80025ee:	2220      	movs	r2, #32
 80025f0:	61da      	str	r2, [r3, #28]
      }

      /* Check if the maximum allowed number of trials has been reached */
      if (I2C_Trials++ == Trials)
 80025f2:	693b      	ldr	r3, [r7, #16]
 80025f4:	1c5a      	adds	r2, r3, #1
 80025f6:	613a      	str	r2, [r7, #16]
 80025f8:	687a      	ldr	r2, [r7, #4]
 80025fa:	4293      	cmp	r3, r2
 80025fc:	d118      	bne.n	8002630 <HAL_I2C_IsDeviceReady+0x194>
      {
        /* Generate Stop */
        hi2c->Instance->CR2 |= I2C_CR2_STOP;
 80025fe:	68fb      	ldr	r3, [r7, #12]
 8002600:	681b      	ldr	r3, [r3, #0]
 8002602:	68fa      	ldr	r2, [r7, #12]
 8002604:	6812      	ldr	r2, [r2, #0]
 8002606:	6852      	ldr	r2, [r2, #4]
 8002608:	f442 4280 	orr.w	r2, r2, #16384	; 0x4000
 800260c:	605a      	str	r2, [r3, #4]

        /* Wait until STOPF flag is reset */ 
        if(I2C_WaitOnFlagUntilTimeout(hi2c, I2C_FLAG_STOPF, RESET, Timeout, tickstart) != HAL_OK)
 800260e:	697b      	ldr	r3, [r7, #20]
 8002610:	9300      	str	r3, [sp, #0]
 8002612:	683b      	ldr	r3, [r7, #0]
 8002614:	2200      	movs	r2, #0
 8002616:	2120      	movs	r1, #32
 8002618:	68f8      	ldr	r0, [r7, #12]
 800261a:	f000 f841 	bl	80026a0 <I2C_WaitOnFlagUntilTimeout>
 800261e:	4603      	mov	r3, r0
 8002620:	2b00      	cmp	r3, #0
 8002622:	d001      	beq.n	8002628 <HAL_I2C_IsDeviceReady+0x18c>
        {
          return HAL_TIMEOUT;
 8002624:	2303      	movs	r3, #3
 8002626:	e013      	b.n	8002650 <HAL_I2C_IsDeviceReady+0x1b4>
        }

        /* Clear STOP Flag */
        __HAL_I2C_CLEAR_FLAG(hi2c, I2C_FLAG_STOPF);
 8002628:	68fb      	ldr	r3, [r7, #12]
 800262a:	681b      	ldr	r3, [r3, #0]
 800262c:	2220      	movs	r2, #32
 800262e:	61da      	str	r2, [r3, #28]
      }
    }while(I2C_Trials < Trials);
 8002630:	693a      	ldr	r2, [r7, #16]
 8002632:	687b      	ldr	r3, [r7, #4]
 8002634:	429a      	cmp	r2, r3
 8002636:	f4ff af60 	bcc.w	80024fa <HAL_I2C_IsDeviceReady+0x5e>

    hi2c->State = HAL_I2C_STATE_READY;
 800263a:	68fb      	ldr	r3, [r7, #12]
 800263c:	2220      	movs	r2, #32
 800263e:	f883 2041 	strb.w	r2, [r3, #65]	; 0x41

    /* Process Unlocked */
    __HAL_UNLOCK(hi2c);
 8002642:	68fb      	ldr	r3, [r7, #12]
 8002644:	2200      	movs	r2, #0
 8002646:	f883 2040 	strb.w	r2, [r3, #64]	; 0x40

    return HAL_TIMEOUT;
 800264a:	2303      	movs	r3, #3
 800264c:	e000      	b.n	8002650 <HAL_I2C_IsDeviceReady+0x1b4>
  }
  else
  {
    return HAL_BUSY;
 800264e:	2302      	movs	r3, #2
  }
}
 8002650:	4618      	mov	r0, r3
 8002652:	3718      	adds	r7, #24
 8002654:	46bd      	mov	sp, r7
 8002656:	bd80      	pop	{r7, pc}

08002658 <I2C_Flush_TXDR>:
  * @brief  I2C Tx data register flush process.
  * @param  hi2c I2C handle.
  * @retval None
  */
static void I2C_Flush_TXDR(I2C_HandleTypeDef *hi2c)
{
 8002658:	b480      	push	{r7}
 800265a:	b083      	sub	sp, #12
 800265c:	af00      	add	r7, sp, #0
 800265e:	6078      	str	r0, [r7, #4]
  /* If a pending TXIS flag is set */
  /* Write a dummy data in TXDR to clear it */
  if(__HAL_I2C_GET_FLAG(hi2c, I2C_FLAG_TXIS) != RESET)
 8002660:	687b      	ldr	r3, [r7, #4]
 8002662:	681b      	ldr	r3, [r3, #0]
 8002664:	699b      	ldr	r3, [r3, #24]
 8002666:	f003 0302 	and.w	r3, r3, #2
 800266a:	2b02      	cmp	r3, #2
 800266c:	d103      	bne.n	8002676 <I2C_Flush_TXDR+0x1e>
  {
     hi2c->Instance->TXDR = 0x00U;
 800266e:	687b      	ldr	r3, [r7, #4]
 8002670:	681b      	ldr	r3, [r3, #0]
 8002672:	2200      	movs	r2, #0
 8002674:	629a      	str	r2, [r3, #40]	; 0x28
  }

  /* Flush TX register if not empty */
  if(__HAL_I2C_GET_FLAG(hi2c, I2C_FLAG_TXE) == RESET)
 8002676:	687b      	ldr	r3, [r7, #4]
 8002678:	681b      	ldr	r3, [r3, #0]
 800267a:	699b      	ldr	r3, [r3, #24]
 800267c:	f003 0301 	and.w	r3, r3, #1
 8002680:	2b01      	cmp	r3, #1
 8002682:	d007      	beq.n	8002694 <I2C_Flush_TXDR+0x3c>
  {
    __HAL_I2C_CLEAR_FLAG(hi2c, I2C_FLAG_TXE);
 8002684:	687b      	ldr	r3, [r7, #4]
 8002686:	681b      	ldr	r3, [r3, #0]
 8002688:	687a      	ldr	r2, [r7, #4]
 800268a:	6812      	ldr	r2, [r2, #0]
 800268c:	6992      	ldr	r2, [r2, #24]
 800268e:	f042 0201 	orr.w	r2, r2, #1
 8002692:	619a      	str	r2, [r3, #24]
  }
}
 8002694:	bf00      	nop
 8002696:	370c      	adds	r7, #12
 8002698:	46bd      	mov	sp, r7
 800269a:	f85d 7b04 	ldr.w	r7, [sp], #4
 800269e:	4770      	bx	lr

080026a0 <I2C_WaitOnFlagUntilTimeout>:
  * @param  Timeout Timeout duration
  * @param  Tickstart Tick start value
  * @retval HAL status
  */
static HAL_StatusTypeDef I2C_WaitOnFlagUntilTimeout(I2C_HandleTypeDef *hi2c, uint32_t Flag, FlagStatus Status, uint32_t Timeout, uint32_t Tickstart)
{
 80026a0:	b580      	push	{r7, lr}
 80026a2:	b084      	sub	sp, #16
 80026a4:	af00      	add	r7, sp, #0
 80026a6:	60f8      	str	r0, [r7, #12]
 80026a8:	60b9      	str	r1, [r7, #8]
 80026aa:	603b      	str	r3, [r7, #0]
 80026ac:	4613      	mov	r3, r2
 80026ae:	71fb      	strb	r3, [r7, #7]
  while(__HAL_I2C_GET_FLAG(hi2c, Flag) == Status)
 80026b0:	e01c      	b.n	80026ec <I2C_WaitOnFlagUntilTimeout+0x4c>
  {
    /* Check for the Timeout */
    if(Timeout != HAL_MAX_DELAY)
 80026b2:	683b      	ldr	r3, [r7, #0]
 80026b4:	f1b3 3fff 	cmp.w	r3, #4294967295
 80026b8:	d018      	beq.n	80026ec <I2C_WaitOnFlagUntilTimeout+0x4c>
    {
      if((Timeout == 0U)||((HAL_GetTick() - Tickstart ) > Timeout))
 80026ba:	683b      	ldr	r3, [r7, #0]
 80026bc:	2b00      	cmp	r3, #0
 80026be:	d007      	beq.n	80026d0 <I2C_WaitOnFlagUntilTimeout+0x30>
 80026c0:	f7ff f980 	bl	80019c4 <HAL_GetTick>
 80026c4:	4602      	mov	r2, r0
 80026c6:	69bb      	ldr	r3, [r7, #24]
 80026c8:	1ad2      	subs	r2, r2, r3
 80026ca:	683b      	ldr	r3, [r7, #0]
 80026cc:	429a      	cmp	r2, r3
 80026ce:	d90d      	bls.n	80026ec <I2C_WaitOnFlagUntilTimeout+0x4c>
      {
        hi2c->State= HAL_I2C_STATE_READY;
 80026d0:	68fb      	ldr	r3, [r7, #12]
 80026d2:	2220      	movs	r2, #32
 80026d4:	f883 2041 	strb.w	r2, [r3, #65]	; 0x41
        hi2c->Mode = HAL_I2C_MODE_NONE;
 80026d8:	68fb      	ldr	r3, [r7, #12]
 80026da:	2200      	movs	r2, #0
 80026dc:	f883 2042 	strb.w	r2, [r3, #66]	; 0x42

        /* Process Unlocked */
        __HAL_UNLOCK(hi2c);
 80026e0:	68fb      	ldr	r3, [r7, #12]
 80026e2:	2200      	movs	r2, #0
 80026e4:	f883 2040 	strb.w	r2, [r3, #64]	; 0x40
        return HAL_TIMEOUT;
 80026e8:	2303      	movs	r3, #3
 80026ea:	e00f      	b.n	800270c <I2C_WaitOnFlagUntilTimeout+0x6c>
  while(__HAL_I2C_GET_FLAG(hi2c, Flag) == Status)
 80026ec:	68fb      	ldr	r3, [r7, #12]
 80026ee:	681b      	ldr	r3, [r3, #0]
 80026f0:	699a      	ldr	r2, [r3, #24]
 80026f2:	68bb      	ldr	r3, [r7, #8]
 80026f4:	401a      	ands	r2, r3
 80026f6:	68bb      	ldr	r3, [r7, #8]
 80026f8:	429a      	cmp	r2, r3
 80026fa:	bf0c      	ite	eq
 80026fc:	2301      	moveq	r3, #1
 80026fe:	2300      	movne	r3, #0
 8002700:	b2db      	uxtb	r3, r3
 8002702:	461a      	mov	r2, r3
 8002704:	79fb      	ldrb	r3, [r7, #7]
 8002706:	429a      	cmp	r2, r3
 8002708:	d0d3      	beq.n	80026b2 <I2C_WaitOnFlagUntilTimeout+0x12>
      }
    }
  }
  return HAL_OK;
 800270a:	2300      	movs	r3, #0
}
 800270c:	4618      	mov	r0, r3
 800270e:	3710      	adds	r7, #16
 8002710:	46bd      	mov	sp, r7
 8002712:	bd80      	pop	{r7, pc}

08002714 <I2C_WaitOnTXISFlagUntilTimeout>:
  * @param  Timeout Timeout duration
  * @param  Tickstart Tick start value
  * @retval HAL status
  */
static HAL_StatusTypeDef I2C_WaitOnTXISFlagUntilTimeout(I2C_HandleTypeDef *hi2c, uint32_t Timeout, uint32_t Tickstart)
{
 8002714:	b580      	push	{r7, lr}
 8002716:	b084      	sub	sp, #16
 8002718:	af00      	add	r7, sp, #0
 800271a:	60f8      	str	r0, [r7, #12]
 800271c:	60b9      	str	r1, [r7, #8]
 800271e:	607a      	str	r2, [r7, #4]
  while(__HAL_I2C_GET_FLAG(hi2c, I2C_FLAG_TXIS) == RESET)
 8002720:	e02c      	b.n	800277c <I2C_WaitOnTXISFlagUntilTimeout+0x68>
  {
    /* Check if a NACK is detected */
    if(I2C_IsAcknowledgeFailed(hi2c, Timeout, Tickstart) != HAL_OK)
 8002722:	687a      	ldr	r2, [r7, #4]
 8002724:	68b9      	ldr	r1, [r7, #8]
 8002726:	68f8      	ldr	r0, [r7, #12]
 8002728:	f000 f8ce 	bl	80028c8 <I2C_IsAcknowledgeFailed>
 800272c:	4603      	mov	r3, r0
 800272e:	2b00      	cmp	r3, #0
 8002730:	d001      	beq.n	8002736 <I2C_WaitOnTXISFlagUntilTimeout+0x22>
    {
      return HAL_ERROR;
 8002732:	2301      	movs	r3, #1
 8002734:	e02a      	b.n	800278c <I2C_WaitOnTXISFlagUntilTimeout+0x78>
    }

    /* Check for the Timeout */
    if(Timeout != HAL_MAX_DELAY)
 8002736:	68bb      	ldr	r3, [r7, #8]
 8002738:	f1b3 3fff 	cmp.w	r3, #4294967295
 800273c:	d01e      	beq.n	800277c <I2C_WaitOnTXISFlagUntilTimeout+0x68>
    {
      if((Timeout == 0U)||((HAL_GetTick() - Tickstart) > Timeout))
 800273e:	68bb      	ldr	r3, [r7, #8]
 8002740:	2b00      	cmp	r3, #0
 8002742:	d007      	beq.n	8002754 <I2C_WaitOnTXISFlagUntilTimeout+0x40>
 8002744:	f7ff f93e 	bl	80019c4 <HAL_GetTick>
 8002748:	4602      	mov	r2, r0
 800274a:	687b      	ldr	r3, [r7, #4]
 800274c:	1ad2      	subs	r2, r2, r3
 800274e:	68bb      	ldr	r3, [r7, #8]
 8002750:	429a      	cmp	r2, r3
 8002752:	d913      	bls.n	800277c <I2C_WaitOnTXISFlagUntilTimeout+0x68>
      {
        hi2c->ErrorCode |= HAL_I2C_ERROR_TIMEOUT;
 8002754:	68fb      	ldr	r3, [r7, #12]
 8002756:	6c5b      	ldr	r3, [r3, #68]	; 0x44
 8002758:	f043 0220 	orr.w	r2, r3, #32
 800275c:	68fb      	ldr	r3, [r7, #12]
 800275e:	645a      	str	r2, [r3, #68]	; 0x44
        hi2c->State= HAL_I2C_STATE_READY;
 8002760:	68fb      	ldr	r3, [r7, #12]
 8002762:	2220      	movs	r2, #32
 8002764:	f883 2041 	strb.w	r2, [r3, #65]	; 0x41
        hi2c->Mode = HAL_I2C_MODE_NONE;
 8002768:	68fb      	ldr	r3, [r7, #12]
 800276a:	2200      	movs	r2, #0
 800276c:	f883 2042 	strb.w	r2, [r3, #66]	; 0x42

        /* Process Unlocked */
        __HAL_UNLOCK(hi2c);
 8002770:	68fb      	ldr	r3, [r7, #12]
 8002772:	2200      	movs	r2, #0
 8002774:	f883 2040 	strb.w	r2, [r3, #64]	; 0x40

        return HAL_TIMEOUT;
 8002778:	2303      	movs	r3, #3
 800277a:	e007      	b.n	800278c <I2C_WaitOnTXISFlagUntilTimeout+0x78>
  while(__HAL_I2C_GET_FLAG(hi2c, I2C_FLAG_TXIS) == RESET)
 800277c:	68fb      	ldr	r3, [r7, #12]
 800277e:	681b      	ldr	r3, [r3, #0]
 8002780:	699b      	ldr	r3, [r3, #24]
 8002782:	f003 0302 	and.w	r3, r3, #2
 8002786:	2b02      	cmp	r3, #2
 8002788:	d1cb      	bne.n	8002722 <I2C_WaitOnTXISFlagUntilTimeout+0xe>
      }
    }
  }
  return HAL_OK;
 800278a:	2300      	movs	r3, #0
}
 800278c:	4618      	mov	r0, r3
 800278e:	3710      	adds	r7, #16
 8002790:	46bd      	mov	sp, r7
 8002792:	bd80      	pop	{r7, pc}

08002794 <I2C_WaitOnSTOPFlagUntilTimeout>:
  * @param  Timeout Timeout duration
  * @param  Tickstart Tick start value
  * @retval HAL status
  */
static HAL_StatusTypeDef I2C_WaitOnSTOPFlagUntilTimeout(I2C_HandleTypeDef *hi2c, uint32_t Timeout, uint32_t Tickstart)
{
 8002794:	b580      	push	{r7, lr}
 8002796:	b084      	sub	sp, #16
 8002798:	af00      	add	r7, sp, #0
 800279a:	60f8      	str	r0, [r7, #12]
 800279c:	60b9      	str	r1, [r7, #8]
 800279e:	607a      	str	r2, [r7, #4]
  while(__HAL_I2C_GET_FLAG(hi2c, I2C_FLAG_STOPF) == RESET)
 80027a0:	e028      	b.n	80027f4 <I2C_WaitOnSTOPFlagUntilTimeout+0x60>
  {
    /* Check if a NACK is detected */
    if(I2C_IsAcknowledgeFailed(hi2c, Timeout, Tickstart) != HAL_OK)
 80027a2:	687a      	ldr	r2, [r7, #4]
 80027a4:	68b9      	ldr	r1, [r7, #8]
 80027a6:	68f8      	ldr	r0, [r7, #12]
 80027a8:	f000 f88e 	bl	80028c8 <I2C_IsAcknowledgeFailed>
 80027ac:	4603      	mov	r3, r0
 80027ae:	2b00      	cmp	r3, #0
 80027b0:	d001      	beq.n	80027b6 <I2C_WaitOnSTOPFlagUntilTimeout+0x22>
    {
      return HAL_ERROR;
 80027b2:	2301      	movs	r3, #1
 80027b4:	e026      	b.n	8002804 <I2C_WaitOnSTOPFlagUntilTimeout+0x70>
    }

    /* Check for the Timeout */
    if((Timeout == 0U)||((HAL_GetTick() - Tickstart) > Timeout))
 80027b6:	68bb      	ldr	r3, [r7, #8]
 80027b8:	2b00      	cmp	r3, #0
 80027ba:	d007      	beq.n	80027cc <I2C_WaitOnSTOPFlagUntilTimeout+0x38>
 80027bc:	f7ff f902 	bl	80019c4 <HAL_GetTick>
 80027c0:	4602      	mov	r2, r0
 80027c2:	687b      	ldr	r3, [r7, #4]
 80027c4:	1ad2      	subs	r2, r2, r3
 80027c6:	68bb      	ldr	r3, [r7, #8]
 80027c8:	429a      	cmp	r2, r3
 80027ca:	d913      	bls.n	80027f4 <I2C_WaitOnSTOPFlagUntilTimeout+0x60>
    {
      hi2c->ErrorCode |= HAL_I2C_ERROR_TIMEOUT;
 80027cc:	68fb      	ldr	r3, [r7, #12]
 80027ce:	6c5b      	ldr	r3, [r3, #68]	; 0x44
 80027d0:	f043 0220 	orr.w	r2, r3, #32
 80027d4:	68fb      	ldr	r3, [r7, #12]
 80027d6:	645a      	str	r2, [r3, #68]	; 0x44
      hi2c->State= HAL_I2C_STATE_READY;
 80027d8:	68fb      	ldr	r3, [r7, #12]
 80027da:	2220      	movs	r2, #32
 80027dc:	f883 2041 	strb.w	r2, [r3, #65]	; 0x41
      hi2c->Mode = HAL_I2C_MODE_NONE;
 80027e0:	68fb      	ldr	r3, [r7, #12]
 80027e2:	2200      	movs	r2, #0
 80027e4:	f883 2042 	strb.w	r2, [r3, #66]	; 0x42

      /* Process Unlocked */
      __HAL_UNLOCK(hi2c);
 80027e8:	68fb      	ldr	r3, [r7, #12]
 80027ea:	2200      	movs	r2, #0
 80027ec:	f883 2040 	strb.w	r2, [r3, #64]	; 0x40

      return HAL_TIMEOUT;
 80027f0:	2303      	movs	r3, #3
 80027f2:	e007      	b.n	8002804 <I2C_WaitOnSTOPFlagUntilTimeout+0x70>
  while(__HAL_I2C_GET_FLAG(hi2c, I2C_FLAG_STOPF) == RESET)
 80027f4:	68fb      	ldr	r3, [r7, #12]
 80027f6:	681b      	ldr	r3, [r3, #0]
 80027f8:	699b      	ldr	r3, [r3, #24]
 80027fa:	f003 0320 	and.w	r3, r3, #32
 80027fe:	2b20      	cmp	r3, #32
 8002800:	d1cf      	bne.n	80027a2 <I2C_WaitOnSTOPFlagUntilTimeout+0xe>
    }
  }
  return HAL_OK;
 8002802:	2300      	movs	r3, #0
}
 8002804:	4618      	mov	r0, r3
 8002806:	3710      	adds	r7, #16
 8002808:	46bd      	mov	sp, r7
 800280a:	bd80      	pop	{r7, pc}

0800280c <I2C_WaitOnRXNEFlagUntilTimeout>:
  * @param  Timeout Timeout duration
  * @param  Tickstart Tick start value
  * @retval HAL status
  */
static HAL_StatusTypeDef I2C_WaitOnRXNEFlagUntilTimeout(I2C_HandleTypeDef *hi2c, uint32_t Timeout, uint32_t Tickstart)
{
 800280c:	b580      	push	{r7, lr}
 800280e:	b084      	sub	sp, #16
 8002810:	af00      	add	r7, sp, #0
 8002812:	60f8      	str	r0, [r7, #12]
 8002814:	60b9      	str	r1, [r7, #8]
 8002816:	607a      	str	r2, [r7, #4]
  while(__HAL_I2C_GET_FLAG(hi2c, I2C_FLAG_RXNE) == RESET)
 8002818:	e048      	b.n	80028ac <I2C_WaitOnRXNEFlagUntilTimeout+0xa0>
  {
    /* Check if a NACK is detected */
    if(I2C_IsAcknowledgeFailed(hi2c, Timeout, Tickstart) != HAL_OK)
 800281a:	687a      	ldr	r2, [r7, #4]
 800281c:	68b9      	ldr	r1, [r7, #8]
 800281e:	68f8      	ldr	r0, [r7, #12]
 8002820:	f000 f852 	bl	80028c8 <I2C_IsAcknowledgeFailed>
 8002824:	4603      	mov	r3, r0
 8002826:	2b00      	cmp	r3, #0
 8002828:	d001      	beq.n	800282e <I2C_WaitOnRXNEFlagUntilTimeout+0x22>
    {
      return HAL_ERROR;
 800282a:	2301      	movs	r3, #1
 800282c:	e046      	b.n	80028bc <I2C_WaitOnRXNEFlagUntilTimeout+0xb0>
    }

    /* Check if a STOPF is detected */
    if(__HAL_I2C_GET_FLAG(hi2c, I2C_FLAG_STOPF) == SET)
 800282e:	68fb      	ldr	r3, [r7, #12]
 8002830:	681b      	ldr	r3, [r3, #0]
 8002832:	699b      	ldr	r3, [r3, #24]
 8002834:	f003 0320 	and.w	r3, r3, #32
 8002838:	2b20      	cmp	r3, #32
 800283a:	d11c      	bne.n	8002876 <I2C_WaitOnRXNEFlagUntilTimeout+0x6a>
    {
      /* Clear STOP Flag */
      __HAL_I2C_CLEAR_FLAG(hi2c, I2C_FLAG_STOPF);
 800283c:	68fb      	ldr	r3, [r7, #12]
 800283e:	681b      	ldr	r3, [r3, #0]
 8002840:	2220      	movs	r2, #32
 8002842:	61da      	str	r2, [r3, #28]

      /* Clear Configuration Register 2 */
      I2C_RESET_CR2(hi2c);
 8002844:	68fb      	ldr	r3, [r7, #12]
 8002846:	681a      	ldr	r2, [r3, #0]
 8002848:	68fb      	ldr	r3, [r7, #12]
 800284a:	681b      	ldr	r3, [r3, #0]
 800284c:	6859      	ldr	r1, [r3, #4]
 800284e:	4b1d      	ldr	r3, [pc, #116]	; (80028c4 <I2C_WaitOnRXNEFlagUntilTimeout+0xb8>)
 8002850:	400b      	ands	r3, r1
 8002852:	6053      	str	r3, [r2, #4]

      hi2c->ErrorCode = HAL_I2C_ERROR_NONE;
 8002854:	68fb      	ldr	r3, [r7, #12]
 8002856:	2200      	movs	r2, #0
 8002858:	645a      	str	r2, [r3, #68]	; 0x44
      hi2c->State= HAL_I2C_STATE_READY;
 800285a:	68fb      	ldr	r3, [r7, #12]
 800285c:	2220      	movs	r2, #32
 800285e:	f883 2041 	strb.w	r2, [r3, #65]	; 0x41
      hi2c->Mode = HAL_I2C_MODE_NONE;
 8002862:	68fb      	ldr	r3, [r7, #12]
 8002864:	2200      	movs	r2, #0
 8002866:	f883 2042 	strb.w	r2, [r3, #66]	; 0x42

      /* Process Unlocked */
      __HAL_UNLOCK(hi2c);
 800286a:	68fb      	ldr	r3, [r7, #12]
 800286c:	2200      	movs	r2, #0
 800286e:	f883 2040 	strb.w	r2, [r3, #64]	; 0x40

      return HAL_ERROR;
 8002872:	2301      	movs	r3, #1
 8002874:	e022      	b.n	80028bc <I2C_WaitOnRXNEFlagUntilTimeout+0xb0>
    }

    /* Check for the Timeout */
    if((Timeout == 0U)||((HAL_GetTick() - Tickstart) > Timeout))
 8002876:	68bb      	ldr	r3, [r7, #8]
 8002878:	2b00      	cmp	r3, #0
 800287a:	d007      	beq.n	800288c <I2C_WaitOnRXNEFlagUntilTimeout+0x80>
 800287c:	f7ff f8a2 	bl	80019c4 <HAL_GetTick>
 8002880:	4602      	mov	r2, r0
 8002882:	687b      	ldr	r3, [r7, #4]
 8002884:	1ad2      	subs	r2, r2, r3
 8002886:	68bb      	ldr	r3, [r7, #8]
 8002888:	429a      	cmp	r2, r3
 800288a:	d90f      	bls.n	80028ac <I2C_WaitOnRXNEFlagUntilTimeout+0xa0>
    {
      hi2c->ErrorCode |= HAL_I2C_ERROR_TIMEOUT;
 800288c:	68fb      	ldr	r3, [r7, #12]
 800288e:	6c5b      	ldr	r3, [r3, #68]	; 0x44
 8002890:	f043 0220 	orr.w	r2, r3, #32
 8002894:	68fb      	ldr	r3, [r7, #12]
 8002896:	645a      	str	r2, [r3, #68]	; 0x44
      hi2c->State= HAL_I2C_STATE_READY;
 8002898:	68fb      	ldr	r3, [r7, #12]
 800289a:	2220      	movs	r2, #32
 800289c:	f883 2041 	strb.w	r2, [r3, #65]	; 0x41

      /* Process Unlocked */
      __HAL_UNLOCK(hi2c);
 80028a0:	68fb      	ldr	r3, [r7, #12]
 80028a2:	2200      	movs	r2, #0
 80028a4:	f883 2040 	strb.w	r2, [r3, #64]	; 0x40

      return HAL_TIMEOUT;
 80028a8:	2303      	movs	r3, #3
 80028aa:	e007      	b.n	80028bc <I2C_WaitOnRXNEFlagUntilTimeout+0xb0>
  while(__HAL_I2C_GET_FLAG(hi2c, I2C_FLAG_RXNE) == RESET)
 80028ac:	68fb      	ldr	r3, [r7, #12]
 80028ae:	681b      	ldr	r3, [r3, #0]
 80028b0:	699b      	ldr	r3, [r3, #24]
 80028b2:	f003 0304 	and.w	r3, r3, #4
 80028b6:	2b04      	cmp	r3, #4
 80028b8:	d1af      	bne.n	800281a <I2C_WaitOnRXNEFlagUntilTimeout+0xe>
    }
  }
  return HAL_OK;
 80028ba:	2300      	movs	r3, #0
}
 80028bc:	4618      	mov	r0, r3
 80028be:	3710      	adds	r7, #16
 80028c0:	46bd      	mov	sp, r7
 80028c2:	bd80      	pop	{r7, pc}
 80028c4:	fe00e800 	.word	0xfe00e800

080028c8 <I2C_IsAcknowledgeFailed>:
  * @param  Timeout Timeout duration
  * @param  Tickstart Tick start value
  * @retval HAL status
  */
static HAL_StatusTypeDef I2C_IsAcknowledgeFailed(I2C_HandleTypeDef *hi2c, uint32_t Timeout, uint32_t Tickstart)
{
 80028c8:	b580      	push	{r7, lr}
 80028ca:	b084      	sub	sp, #16
 80028cc:	af00      	add	r7, sp, #0
 80028ce:	60f8      	str	r0, [r7, #12]
 80028d0:	60b9      	str	r1, [r7, #8]
 80028d2:	607a      	str	r2, [r7, #4]
  if(__HAL_I2C_GET_FLAG(hi2c, I2C_FLAG_AF) == SET)
 80028d4:	68fb      	ldr	r3, [r7, #12]
 80028d6:	681b      	ldr	r3, [r3, #0]
 80028d8:	699b      	ldr	r3, [r3, #24]
 80028da:	f003 0310 	and.w	r3, r3, #16
 80028de:	2b10      	cmp	r3, #16
 80028e0:	d148      	bne.n	8002974 <I2C_IsAcknowledgeFailed+0xac>
  {
    /* Wait until STOP Flag is reset */
    /* AutoEnd should be initiate after AF */
    while(__HAL_I2C_GET_FLAG(hi2c, I2C_FLAG_STOPF) == RESET)
 80028e2:	e01c      	b.n	800291e <I2C_IsAcknowledgeFailed+0x56>
    {
      /* Check for the Timeout */
      if(Timeout != HAL_MAX_DELAY)
 80028e4:	68bb      	ldr	r3, [r7, #8]
 80028e6:	f1b3 3fff 	cmp.w	r3, #4294967295
 80028ea:	d018      	beq.n	800291e <I2C_IsAcknowledgeFailed+0x56>
      {
      if((Timeout == 0U)||((HAL_GetTick() - Tickstart) > Timeout))
 80028ec:	68bb      	ldr	r3, [r7, #8]
 80028ee:	2b00      	cmp	r3, #0
 80028f0:	d007      	beq.n	8002902 <I2C_IsAcknowledgeFailed+0x3a>
 80028f2:	f7ff f867 	bl	80019c4 <HAL_GetTick>
 80028f6:	4602      	mov	r2, r0
 80028f8:	687b      	ldr	r3, [r7, #4]
 80028fa:	1ad2      	subs	r2, r2, r3
 80028fc:	68bb      	ldr	r3, [r7, #8]
 80028fe:	429a      	cmp	r2, r3
 8002900:	d90d      	bls.n	800291e <I2C_IsAcknowledgeFailed+0x56>
        {
          hi2c->State= HAL_I2C_STATE_READY;
 8002902:	68fb      	ldr	r3, [r7, #12]
 8002904:	2220      	movs	r2, #32
 8002906:	f883 2041 	strb.w	r2, [r3, #65]	; 0x41
          hi2c->Mode = HAL_I2C_MODE_NONE;
 800290a:	68fb      	ldr	r3, [r7, #12]
 800290c:	2200      	movs	r2, #0
 800290e:	f883 2042 	strb.w	r2, [r3, #66]	; 0x42

          /* Process Unlocked */
          __HAL_UNLOCK(hi2c);
 8002912:	68fb      	ldr	r3, [r7, #12]
 8002914:	2200      	movs	r2, #0
 8002916:	f883 2040 	strb.w	r2, [r3, #64]	; 0x40
          return HAL_TIMEOUT;
 800291a:	2303      	movs	r3, #3
 800291c:	e02b      	b.n	8002976 <I2C_IsAcknowledgeFailed+0xae>
    while(__HAL_I2C_GET_FLAG(hi2c, I2C_FLAG_STOPF) == RESET)
 800291e:	68fb      	ldr	r3, [r7, #12]
 8002920:	681b      	ldr	r3, [r3, #0]
 8002922:	699b      	ldr	r3, [r3, #24]
 8002924:	f003 0320 	and.w	r3, r3, #32
 8002928:	2b20      	cmp	r3, #32
 800292a:	d1db      	bne.n	80028e4 <I2C_IsAcknowledgeFailed+0x1c>
        }
      }
    }

    /* Clear NACKF Flag */
    __HAL_I2C_CLEAR_FLAG(hi2c, I2C_FLAG_AF);
 800292c:	68fb      	ldr	r3, [r7, #12]
 800292e:	681b      	ldr	r3, [r3, #0]
 8002930:	2210      	movs	r2, #16
 8002932:	61da      	str	r2, [r3, #28]

    /* Clear STOP Flag */
    __HAL_I2C_CLEAR_FLAG(hi2c, I2C_FLAG_STOPF);
 8002934:	68fb      	ldr	r3, [r7, #12]
 8002936:	681b      	ldr	r3, [r3, #0]
 8002938:	2220      	movs	r2, #32
 800293a:	61da      	str	r2, [r3, #28]

    /* Flush TX register */
    I2C_Flush_TXDR(hi2c);
 800293c:	68f8      	ldr	r0, [r7, #12]
 800293e:	f7ff fe8b 	bl	8002658 <I2C_Flush_TXDR>

    /* Clear Configuration Register 2 */
    I2C_RESET_CR2(hi2c);
 8002942:	68fb      	ldr	r3, [r7, #12]
 8002944:	681a      	ldr	r2, [r3, #0]
 8002946:	68fb      	ldr	r3, [r7, #12]
 8002948:	681b      	ldr	r3, [r3, #0]
 800294a:	6859      	ldr	r1, [r3, #4]
 800294c:	4b0c      	ldr	r3, [pc, #48]	; (8002980 <I2C_IsAcknowledgeFailed+0xb8>)
 800294e:	400b      	ands	r3, r1
 8002950:	6053      	str	r3, [r2, #4]

    hi2c->ErrorCode = HAL_I2C_ERROR_AF;
 8002952:	68fb      	ldr	r3, [r7, #12]
 8002954:	2204      	movs	r2, #4
 8002956:	645a      	str	r2, [r3, #68]	; 0x44
    hi2c->State= HAL_I2C_STATE_READY;
 8002958:	68fb      	ldr	r3, [r7, #12]
 800295a:	2220      	movs	r2, #32
 800295c:	f883 2041 	strb.w	r2, [r3, #65]	; 0x41
    hi2c->Mode = HAL_I2C_MODE_NONE;
 8002960:	68fb      	ldr	r3, [r7, #12]
 8002962:	2200      	movs	r2, #0
 8002964:	f883 2042 	strb.w	r2, [r3, #66]	; 0x42

    /* Process Unlocked */
    __HAL_UNLOCK(hi2c);
 8002968:	68fb      	ldr	r3, [r7, #12]
 800296a:	2200      	movs	r2, #0
 800296c:	f883 2040 	strb.w	r2, [r3, #64]	; 0x40

    return HAL_ERROR;
 8002970:	2301      	movs	r3, #1
 8002972:	e000      	b.n	8002976 <I2C_IsAcknowledgeFailed+0xae>
  }
  return HAL_OK;
 8002974:	2300      	movs	r3, #0
}
 8002976:	4618      	mov	r0, r3
 8002978:	3710      	adds	r7, #16
 800297a:	46bd      	mov	sp, r7
 800297c:	bd80      	pop	{r7, pc}
 800297e:	bf00      	nop
 8002980:	fe00e800 	.word	0xfe00e800

08002984 <I2C_TransferConfig>:
  *     @arg @ref I2C_GENERATE_START_READ Generate Restart for read request.
  *     @arg @ref I2C_GENERATE_START_WRITE Generate Restart for write request.
  * @retval None
  */
static void I2C_TransferConfig(I2C_HandleTypeDef *hi2c,  uint16_t DevAddress, uint8_t Size, uint32_t Mode, uint32_t Request)
{
 8002984:	b480      	push	{r7}
 8002986:	b087      	sub	sp, #28
 8002988:	af00      	add	r7, sp, #0
 800298a:	60f8      	str	r0, [r7, #12]
 800298c:	607b      	str	r3, [r7, #4]
 800298e:	460b      	mov	r3, r1
 8002990:	817b      	strh	r3, [r7, #10]
 8002992:	4613      	mov	r3, r2
 8002994:	727b      	strb	r3, [r7, #9]
  uint32_t tmpreg = 0U;
 8002996:	2300      	movs	r3, #0
 8002998:	617b      	str	r3, [r7, #20]
  assert_param(IS_I2C_ALL_INSTANCE(hi2c->Instance));
  assert_param(IS_TRANSFER_MODE(Mode));
  assert_param(IS_TRANSFER_REQUEST(Request));

  /* Get the CR2 register value */
  tmpreg = hi2c->Instance->CR2;
 800299a:	68fb      	ldr	r3, [r7, #12]
 800299c:	681b      	ldr	r3, [r3, #0]
 800299e:	685b      	ldr	r3, [r3, #4]
 80029a0:	617b      	str	r3, [r7, #20]

  /* clear tmpreg specific bits */
  tmpreg &= (uint32_t)~((uint32_t)(I2C_CR2_SADD | I2C_CR2_NBYTES | I2C_CR2_RELOAD | I2C_CR2_AUTOEND | I2C_CR2_RD_WRN | I2C_CR2_START | I2C_CR2_STOP));
 80029a2:	697a      	ldr	r2, [r7, #20]
 80029a4:	4b0d      	ldr	r3, [pc, #52]	; (80029dc <I2C_TransferConfig+0x58>)
 80029a6:	4013      	ands	r3, r2
 80029a8:	617b      	str	r3, [r7, #20]

  /* update tmpreg */
  tmpreg |= (uint32_t)(((uint32_t)DevAddress & I2C_CR2_SADD) | (((uint32_t)Size << 16 ) & I2C_CR2_NBYTES) | \
 80029aa:	897b      	ldrh	r3, [r7, #10]
 80029ac:	f3c3 0209 	ubfx	r2, r3, #0, #10
 80029b0:	7a7b      	ldrb	r3, [r7, #9]
 80029b2:	041b      	lsls	r3, r3, #16
 80029b4:	f403 037f 	and.w	r3, r3, #16711680	; 0xff0000
 80029b8:	431a      	orrs	r2, r3
 80029ba:	687b      	ldr	r3, [r7, #4]
 80029bc:	431a      	orrs	r2, r3
 80029be:	6a3b      	ldr	r3, [r7, #32]
 80029c0:	4313      	orrs	r3, r2
 80029c2:	697a      	ldr	r2, [r7, #20]
 80029c4:	4313      	orrs	r3, r2
 80029c6:	617b      	str	r3, [r7, #20]
            (uint32_t)Mode | (uint32_t)Request);

  /* update CR2 register */
  hi2c->Instance->CR2 = tmpreg;
 80029c8:	68fb      	ldr	r3, [r7, #12]
 80029ca:	681b      	ldr	r3, [r3, #0]
 80029cc:	697a      	ldr	r2, [r7, #20]
 80029ce:	605a      	str	r2, [r3, #4]
}
 80029d0:	bf00      	nop
 80029d2:	371c      	adds	r7, #28
 80029d4:	46bd      	mov	sp, r7
 80029d6:	f85d 7b04 	ldr.w	r7, [sp], #4
 80029da:	4770      	bx	lr
 80029dc:	fc009800 	.word	0xfc009800

080029e0 <HAL_I2CEx_ConfigAnalogFilter>:
  *                the configuration information for the specified I2Cx peripheral.
  * @param  AnalogFilter New state of the Analog filter.
  * @retval HAL status
  */
HAL_StatusTypeDef HAL_I2CEx_ConfigAnalogFilter(I2C_HandleTypeDef *hi2c, uint32_t AnalogFilter)
{
 80029e0:	b480      	push	{r7}
 80029e2:	b083      	sub	sp, #12
 80029e4:	af00      	add	r7, sp, #0
 80029e6:	6078      	str	r0, [r7, #4]
 80029e8:	6039      	str	r1, [r7, #0]
  /* Check the parameters */
  assert_param(IS_I2C_ALL_INSTANCE(hi2c->Instance));
  assert_param(IS_I2C_ANALOG_FILTER(AnalogFilter));

  if(hi2c->State == HAL_I2C_STATE_READY)
 80029ea:	687b      	ldr	r3, [r7, #4]
 80029ec:	f893 3041 	ldrb.w	r3, [r3, #65]	; 0x41
 80029f0:	b2db      	uxtb	r3, r3
 80029f2:	2b20      	cmp	r3, #32
 80029f4:	d138      	bne.n	8002a68 <HAL_I2CEx_ConfigAnalogFilter+0x88>
  {
    /* Process Locked */
    __HAL_LOCK(hi2c);
 80029f6:	687b      	ldr	r3, [r7, #4]
 80029f8:	f893 3040 	ldrb.w	r3, [r3, #64]	; 0x40
 80029fc:	2b01      	cmp	r3, #1
 80029fe:	d101      	bne.n	8002a04 <HAL_I2CEx_ConfigAnalogFilter+0x24>
 8002a00:	2302      	movs	r3, #2
 8002a02:	e032      	b.n	8002a6a <HAL_I2CEx_ConfigAnalogFilter+0x8a>
 8002a04:	687b      	ldr	r3, [r7, #4]
 8002a06:	2201      	movs	r2, #1
 8002a08:	f883 2040 	strb.w	r2, [r3, #64]	; 0x40

    hi2c->State = HAL_I2C_STATE_BUSY;
 8002a0c:	687b      	ldr	r3, [r7, #4]
 8002a0e:	2224      	movs	r2, #36	; 0x24
 8002a10:	f883 2041 	strb.w	r2, [r3, #65]	; 0x41

    /* Disable the selected I2C peripheral */
    __HAL_I2C_DISABLE(hi2c);
 8002a14:	687b      	ldr	r3, [r7, #4]
 8002a16:	681b      	ldr	r3, [r3, #0]
 8002a18:	687a      	ldr	r2, [r7, #4]
 8002a1a:	6812      	ldr	r2, [r2, #0]
 8002a1c:	6812      	ldr	r2, [r2, #0]
 8002a1e:	f022 0201 	bic.w	r2, r2, #1
 8002a22:	601a      	str	r2, [r3, #0]

    /* Reset I2Cx ANOFF bit */
    hi2c->Instance->CR1 &= ~(I2C_CR1_ANFOFF);
 8002a24:	687b      	ldr	r3, [r7, #4]
 8002a26:	681b      	ldr	r3, [r3, #0]
 8002a28:	687a      	ldr	r2, [r7, #4]
 8002a2a:	6812      	ldr	r2, [r2, #0]
 8002a2c:	6812      	ldr	r2, [r2, #0]
 8002a2e:	f422 5280 	bic.w	r2, r2, #4096	; 0x1000
 8002a32:	601a      	str	r2, [r3, #0]

    /* Set analog filter bit*/
    hi2c->Instance->CR1 |= AnalogFilter;
 8002a34:	687b      	ldr	r3, [r7, #4]
 8002a36:	681b      	ldr	r3, [r3, #0]
 8002a38:	687a      	ldr	r2, [r7, #4]
 8002a3a:	6812      	ldr	r2, [r2, #0]
 8002a3c:	6811      	ldr	r1, [r2, #0]
 8002a3e:	683a      	ldr	r2, [r7, #0]
 8002a40:	430a      	orrs	r2, r1
 8002a42:	601a      	str	r2, [r3, #0]

    __HAL_I2C_ENABLE(hi2c);
 8002a44:	687b      	ldr	r3, [r7, #4]
 8002a46:	681b      	ldr	r3, [r3, #0]
 8002a48:	687a      	ldr	r2, [r7, #4]
 8002a4a:	6812      	ldr	r2, [r2, #0]
 8002a4c:	6812      	ldr	r2, [r2, #0]
 8002a4e:	f042 0201 	orr.w	r2, r2, #1
 8002a52:	601a      	str	r2, [r3, #0]

    hi2c->State = HAL_I2C_STATE_READY;
 8002a54:	687b      	ldr	r3, [r7, #4]
 8002a56:	2220      	movs	r2, #32
 8002a58:	f883 2041 	strb.w	r2, [r3, #65]	; 0x41

    /* Process Unlocked */
    __HAL_UNLOCK(hi2c);
 8002a5c:	687b      	ldr	r3, [r7, #4]
 8002a5e:	2200      	movs	r2, #0
 8002a60:	f883 2040 	strb.w	r2, [r3, #64]	; 0x40

    return HAL_OK;
 8002a64:	2300      	movs	r3, #0
 8002a66:	e000      	b.n	8002a6a <HAL_I2CEx_ConfigAnalogFilter+0x8a>
  }
  else
  {
    return HAL_BUSY;
 8002a68:	2302      	movs	r3, #2
  }
}
 8002a6a:	4618      	mov	r0, r3
 8002a6c:	370c      	adds	r7, #12
 8002a6e:	46bd      	mov	sp, r7
 8002a70:	f85d 7b04 	ldr.w	r7, [sp], #4
 8002a74:	4770      	bx	lr

08002a76 <HAL_I2CEx_ConfigDigitalFilter>:
  *                the configuration information for the specified I2Cx peripheral.
  * @param  DigitalFilter Coefficient of digital noise filter between Min_Data=0x00 and Max_Data=0x0F.
  * @retval HAL status
  */
HAL_StatusTypeDef HAL_I2CEx_ConfigDigitalFilter(I2C_HandleTypeDef *hi2c, uint32_t DigitalFilter)
{
 8002a76:	b480      	push	{r7}
 8002a78:	b085      	sub	sp, #20
 8002a7a:	af00      	add	r7, sp, #0
 8002a7c:	6078      	str	r0, [r7, #4]
 8002a7e:	6039      	str	r1, [r7, #0]
  uint32_t tmpreg = 0U;
 8002a80:	2300      	movs	r3, #0
 8002a82:	60fb      	str	r3, [r7, #12]

  /* Check the parameters */
  assert_param(IS_I2C_ALL_INSTANCE(hi2c->Instance));
  assert_param(IS_I2C_DIGITAL_FILTER(DigitalFilter));

  if(hi2c->State == HAL_I2C_STATE_READY)
 8002a84:	687b      	ldr	r3, [r7, #4]
 8002a86:	f893 3041 	ldrb.w	r3, [r3, #65]	; 0x41
 8002a8a:	b2db      	uxtb	r3, r3
 8002a8c:	2b20      	cmp	r3, #32
 8002a8e:	d139      	bne.n	8002b04 <HAL_I2CEx_ConfigDigitalFilter+0x8e>
  {
    /* Process Locked */
    __HAL_LOCK(hi2c);
 8002a90:	687b      	ldr	r3, [r7, #4]
 8002a92:	f893 3040 	ldrb.w	r3, [r3, #64]	; 0x40
 8002a96:	2b01      	cmp	r3, #1
 8002a98:	d101      	bne.n	8002a9e <HAL_I2CEx_ConfigDigitalFilter+0x28>
 8002a9a:	2302      	movs	r3, #2
 8002a9c:	e033      	b.n	8002b06 <HAL_I2CEx_ConfigDigitalFilter+0x90>
 8002a9e:	687b      	ldr	r3, [r7, #4]
 8002aa0:	2201      	movs	r2, #1
 8002aa2:	f883 2040 	strb.w	r2, [r3, #64]	; 0x40

    hi2c->State = HAL_I2C_STATE_BUSY;
 8002aa6:	687b      	ldr	r3, [r7, #4]
 8002aa8:	2224      	movs	r2, #36	; 0x24
 8002aaa:	f883 2041 	strb.w	r2, [r3, #65]	; 0x41

    /* Disable the selected I2C peripheral */
    __HAL_I2C_DISABLE(hi2c);
 8002aae:	687b      	ldr	r3, [r7, #4]
 8002ab0:	681b      	ldr	r3, [r3, #0]
 8002ab2:	687a      	ldr	r2, [r7, #4]
 8002ab4:	6812      	ldr	r2, [r2, #0]
 8002ab6:	6812      	ldr	r2, [r2, #0]
 8002ab8:	f022 0201 	bic.w	r2, r2, #1
 8002abc:	601a      	str	r2, [r3, #0]

    /* Get the old register value */
    tmpreg = hi2c->Instance->CR1;
 8002abe:	687b      	ldr	r3, [r7, #4]
 8002ac0:	681b      	ldr	r3, [r3, #0]
 8002ac2:	681b      	ldr	r3, [r3, #0]
 8002ac4:	60fb      	str	r3, [r7, #12]

    /* Reset I2Cx DNF bits [11:8] */
    tmpreg &= ~(I2C_CR1_DNF);
 8002ac6:	68fb      	ldr	r3, [r7, #12]
 8002ac8:	f423 6370 	bic.w	r3, r3, #3840	; 0xf00
 8002acc:	60fb      	str	r3, [r7, #12]

    /* Set I2Cx DNF coefficient */
    tmpreg |= DigitalFilter << 8U;
 8002ace:	683b      	ldr	r3, [r7, #0]
 8002ad0:	021b      	lsls	r3, r3, #8
 8002ad2:	68fa      	ldr	r2, [r7, #12]
 8002ad4:	4313      	orrs	r3, r2
 8002ad6:	60fb      	str	r3, [r7, #12]

    /* Store the new register value */
    hi2c->Instance->CR1 = tmpreg;
 8002ad8:	687b      	ldr	r3, [r7, #4]
 8002ada:	681b      	ldr	r3, [r3, #0]
 8002adc:	68fa      	ldr	r2, [r7, #12]
 8002ade:	601a      	str	r2, [r3, #0]

    __HAL_I2C_ENABLE(hi2c);
 8002ae0:	687b      	ldr	r3, [r7, #4]
 8002ae2:	681b      	ldr	r3, [r3, #0]
 8002ae4:	687a      	ldr	r2, [r7, #4]
 8002ae6:	6812      	ldr	r2, [r2, #0]
 8002ae8:	6812      	ldr	r2, [r2, #0]
 8002aea:	f042 0201 	orr.w	r2, r2, #1
 8002aee:	601a      	str	r2, [r3, #0]

    hi2c->State = HAL_I2C_STATE_READY;
 8002af0:	687b      	ldr	r3, [r7, #4]
 8002af2:	2220      	movs	r2, #32
 8002af4:	f883 2041 	strb.w	r2, [r3, #65]	; 0x41

    /* Process Unlocked */
    __HAL_UNLOCK(hi2c);
 8002af8:	687b      	ldr	r3, [r7, #4]
 8002afa:	2200      	movs	r2, #0
 8002afc:	f883 2040 	strb.w	r2, [r3, #64]	; 0x40

    return HAL_OK;
 8002b00:	2300      	movs	r3, #0
 8002b02:	e000      	b.n	8002b06 <HAL_I2CEx_ConfigDigitalFilter+0x90>
  }
  else
  {
    return HAL_BUSY;
 8002b04:	2302      	movs	r3, #2
  }
}
 8002b06:	4618      	mov	r0, r3
 8002b08:	3714      	adds	r7, #20
 8002b0a:	46bd      	mov	sp, r7
 8002b0c:	f85d 7b04 	ldr.w	r7, [sp], #4
 8002b10:	4770      	bx	lr
	...

08002b14 <HAL_PWR_EnableBkUpAccess>:
  * @note  LSEON bit that switches on and off the LSE crystal belongs as well to the
  *        back-up domain.                
  * @retval None
  */
void HAL_PWR_EnableBkUpAccess(void)
{
 8002b14:	b480      	push	{r7}
 8002b16:	af00      	add	r7, sp, #0
  SET_BIT(PWR->CR1, PWR_CR1_DBP);    
 8002b18:	4a05      	ldr	r2, [pc, #20]	; (8002b30 <HAL_PWR_EnableBkUpAccess+0x1c>)
 8002b1a:	4b05      	ldr	r3, [pc, #20]	; (8002b30 <HAL_PWR_EnableBkUpAccess+0x1c>)
 8002b1c:	681b      	ldr	r3, [r3, #0]
 8002b1e:	f443 7380 	orr.w	r3, r3, #256	; 0x100
 8002b22:	6013      	str	r3, [r2, #0]
}
 8002b24:	bf00      	nop
 8002b26:	46bd      	mov	sp, r7
 8002b28:	f85d 7b04 	ldr.w	r7, [sp], #4
 8002b2c:	4770      	bx	lr
 8002b2e:	bf00      	nop
 8002b30:	40007000 	.word	0x40007000

08002b34 <HAL_PWREx_GetVoltageRange>:
/**
  * @brief Return Voltage Scaling Range.
  * @retval VOS bit field (PWR_REGULATOR_VOLTAGE_RANGE1 or PWR_REGULATOR_VOLTAGE_RANGE2)
  */  
uint32_t HAL_PWREx_GetVoltageRange(void)
{
 8002b34:	b480      	push	{r7}
 8002b36:	af00      	add	r7, sp, #0
  return  (PWR->CR1 & PWR_CR1_VOS);
 8002b38:	4b04      	ldr	r3, [pc, #16]	; (8002b4c <HAL_PWREx_GetVoltageRange+0x18>)
 8002b3a:	681b      	ldr	r3, [r3, #0]
 8002b3c:	f403 63c0 	and.w	r3, r3, #1536	; 0x600
}
 8002b40:	4618      	mov	r0, r3
 8002b42:	46bd      	mov	sp, r7
 8002b44:	f85d 7b04 	ldr.w	r7, [sp], #4
 8002b48:	4770      	bx	lr
 8002b4a:	bf00      	nop
 8002b4c:	40007000 	.word	0x40007000

08002b50 <HAL_PWREx_ControlVoltageScaling>:
  *        cleared before returning the status. If the flag is not cleared within
  *        50 microseconds, HAL_TIMEOUT status is reported.                    
  * @retval HAL Status
  */
HAL_StatusTypeDef HAL_PWREx_ControlVoltageScaling(uint32_t VoltageScaling)
{
 8002b50:	b480      	push	{r7}
 8002b52:	b085      	sub	sp, #20
 8002b54:	af00      	add	r7, sp, #0
 8002b56:	6078      	str	r0, [r7, #4]
  uint32_t wait_loop_index = 0;  
 8002b58:	2300      	movs	r3, #0
 8002b5a:	60fb      	str	r3, [r7, #12]

  assert_param(IS_PWR_VOLTAGE_SCALING_RANGE(VoltageScaling));
  
  /* If Set Range 1 */
  if (VoltageScaling == PWR_REGULATOR_VOLTAGE_SCALE1)
 8002b5c:	687b      	ldr	r3, [r7, #4]
 8002b5e:	f5b3 7f00 	cmp.w	r3, #512	; 0x200
 8002b62:	d12f      	bne.n	8002bc4 <HAL_PWREx_ControlVoltageScaling+0x74>
  {
    if (READ_BIT(PWR->CR1, PWR_CR1_VOS) != PWR_REGULATOR_VOLTAGE_SCALE1)
 8002b64:	4b22      	ldr	r3, [pc, #136]	; (8002bf0 <HAL_PWREx_ControlVoltageScaling+0xa0>)
 8002b66:	681b      	ldr	r3, [r3, #0]
 8002b68:	f403 63c0 	and.w	r3, r3, #1536	; 0x600
 8002b6c:	f5b3 7f00 	cmp.w	r3, #512	; 0x200
 8002b70:	d037      	beq.n	8002be2 <HAL_PWREx_ControlVoltageScaling+0x92>
    {
      /* Set Range 1 */
      MODIFY_REG(PWR->CR1, PWR_CR1_VOS, PWR_REGULATOR_VOLTAGE_SCALE1);
 8002b72:	4a1f      	ldr	r2, [pc, #124]	; (8002bf0 <HAL_PWREx_ControlVoltageScaling+0xa0>)
 8002b74:	4b1e      	ldr	r3, [pc, #120]	; (8002bf0 <HAL_PWREx_ControlVoltageScaling+0xa0>)
 8002b76:	681b      	ldr	r3, [r3, #0]
 8002b78:	f423 63c0 	bic.w	r3, r3, #1536	; 0x600
 8002b7c:	f443 7300 	orr.w	r3, r3, #512	; 0x200
 8002b80:	6013      	str	r3, [r2, #0]
      
      /* Wait until VOSF is cleared */      
      wait_loop_index = (PWR_FLAG_SETTING_DELAY_US * (SystemCoreClock / 1000000));
 8002b82:	4b1c      	ldr	r3, [pc, #112]	; (8002bf4 <HAL_PWREx_ControlVoltageScaling+0xa4>)
 8002b84:	681b      	ldr	r3, [r3, #0]
 8002b86:	4a1c      	ldr	r2, [pc, #112]	; (8002bf8 <HAL_PWREx_ControlVoltageScaling+0xa8>)
 8002b88:	fba2 2303 	umull	r2, r3, r2, r3
 8002b8c:	0c9b      	lsrs	r3, r3, #18
 8002b8e:	2232      	movs	r2, #50	; 0x32
 8002b90:	fb02 f303 	mul.w	r3, r2, r3
 8002b94:	60fb      	str	r3, [r7, #12]
      while ((wait_loop_index != 0) && (HAL_IS_BIT_SET(PWR->SR2, PWR_SR2_VOSF)))
 8002b96:	e002      	b.n	8002b9e <HAL_PWREx_ControlVoltageScaling+0x4e>
      {
        wait_loop_index--;
 8002b98:	68fb      	ldr	r3, [r7, #12]
 8002b9a:	3b01      	subs	r3, #1
 8002b9c:	60fb      	str	r3, [r7, #12]
      while ((wait_loop_index != 0) && (HAL_IS_BIT_SET(PWR->SR2, PWR_SR2_VOSF)))
 8002b9e:	68fb      	ldr	r3, [r7, #12]
 8002ba0:	2b00      	cmp	r3, #0
 8002ba2:	d006      	beq.n	8002bb2 <HAL_PWREx_ControlVoltageScaling+0x62>
 8002ba4:	4b12      	ldr	r3, [pc, #72]	; (8002bf0 <HAL_PWREx_ControlVoltageScaling+0xa0>)
 8002ba6:	695b      	ldr	r3, [r3, #20]
 8002ba8:	f403 6380 	and.w	r3, r3, #1024	; 0x400
 8002bac:	f5b3 6f80 	cmp.w	r3, #1024	; 0x400
 8002bb0:	d0f2      	beq.n	8002b98 <HAL_PWREx_ControlVoltageScaling+0x48>
      }
      if (HAL_IS_BIT_SET(PWR->SR2, PWR_SR2_VOSF))
 8002bb2:	4b0f      	ldr	r3, [pc, #60]	; (8002bf0 <HAL_PWREx_ControlVoltageScaling+0xa0>)
 8002bb4:	695b      	ldr	r3, [r3, #20]
 8002bb6:	f403 6380 	and.w	r3, r3, #1024	; 0x400
 8002bba:	f5b3 6f80 	cmp.w	r3, #1024	; 0x400
 8002bbe:	d110      	bne.n	8002be2 <HAL_PWREx_ControlVoltageScaling+0x92>
      {
        return HAL_TIMEOUT;
 8002bc0:	2303      	movs	r3, #3
 8002bc2:	e00f      	b.n	8002be4 <HAL_PWREx_ControlVoltageScaling+0x94>
      }
    }
  }
  else
  {
    if (READ_BIT(PWR->CR1, PWR_CR1_VOS) != PWR_REGULATOR_VOLTAGE_SCALE2)
 8002bc4:	4b0a      	ldr	r3, [pc, #40]	; (8002bf0 <HAL_PWREx_ControlVoltageScaling+0xa0>)
 8002bc6:	681b      	ldr	r3, [r3, #0]
 8002bc8:	f403 63c0 	and.w	r3, r3, #1536	; 0x600
 8002bcc:	f5b3 6f80 	cmp.w	r3, #1024	; 0x400
 8002bd0:	d007      	beq.n	8002be2 <HAL_PWREx_ControlVoltageScaling+0x92>
    {
      /* Set Range 2 */
      MODIFY_REG(PWR->CR1, PWR_CR1_VOS, PWR_REGULATOR_VOLTAGE_SCALE2);
 8002bd2:	4a07      	ldr	r2, [pc, #28]	; (8002bf0 <HAL_PWREx_ControlVoltageScaling+0xa0>)
 8002bd4:	4b06      	ldr	r3, [pc, #24]	; (8002bf0 <HAL_PWREx_ControlVoltageScaling+0xa0>)
 8002bd6:	681b      	ldr	r3, [r3, #0]
 8002bd8:	f423 63c0 	bic.w	r3, r3, #1536	; 0x600
 8002bdc:	f443 6380 	orr.w	r3, r3, #1024	; 0x400
 8002be0:	6013      	str	r3, [r2, #0]
      /* No need to wait for VOSF to be cleared for this transition */
    }
  }
  
  return HAL_OK;
 8002be2:	2300      	movs	r3, #0
}  
 8002be4:	4618      	mov	r0, r3
 8002be6:	3714      	adds	r7, #20
 8002be8:	46bd      	mov	sp, r7
 8002bea:	f85d 7b04 	ldr.w	r7, [sp], #4
 8002bee:	4770      	bx	lr
 8002bf0:	40007000 	.word	0x40007000
 8002bf4:	20000044 	.word	0x20000044
 8002bf8:	431bde83 	.word	0x431bde83

08002bfc <HAL_RCC_OscConfig>:
  *         supported by this macro. User should request a transition to HSE Off
  *         first and then HSE On or HSE Bypass.
  * @retval HAL status
  */
HAL_StatusTypeDef HAL_RCC_OscConfig(RCC_OscInitTypeDef  *RCC_OscInitStruct)
{
 8002bfc:	b580      	push	{r7, lr}
 8002bfe:	b08c      	sub	sp, #48	; 0x30
 8002c00:	af00      	add	r7, sp, #0
 8002c02:	6078      	str	r0, [r7, #4]
  uint32_t tickstart = 0;
 8002c04:	2300      	movs	r3, #0
 8002c06:	62bb      	str	r3, [r7, #40]	; 0x28
  /* Check the parameters */
  assert_param(RCC_OscInitStruct != NULL);
  assert_param(IS_RCC_OSCILLATORTYPE(RCC_OscInitStruct->OscillatorType));

  /*----------------------------- MSI Configuration --------------------------*/
  if(((RCC_OscInitStruct->OscillatorType) & RCC_OSCILLATORTYPE_MSI) == RCC_OSCILLATORTYPE_MSI)
 8002c08:	687b      	ldr	r3, [r7, #4]
 8002c0a:	681b      	ldr	r3, [r3, #0]
 8002c0c:	f003 0310 	and.w	r3, r3, #16
 8002c10:	2b00      	cmp	r3, #0
 8002c12:	f000 80db 	beq.w	8002dcc <HAL_RCC_OscConfig+0x1d0>
    assert_param(IS_RCC_MSI(RCC_OscInitStruct->MSIState));
    assert_param(IS_RCC_MSICALIBRATION_VALUE(RCC_OscInitStruct->MSICalibrationValue));
    assert_param(IS_RCC_MSI_CLOCK_RANGE(RCC_OscInitStruct->MSIClockRange));

    /* When the MSI is used as system clock it will not be disabled */
    if((__HAL_RCC_GET_SYSCLK_SOURCE() == RCC_CFGR_SWS_MSI) )
 8002c16:	4ba2      	ldr	r3, [pc, #648]	; (8002ea0 <HAL_RCC_OscConfig+0x2a4>)
 8002c18:	689b      	ldr	r3, [r3, #8]
 8002c1a:	f003 030c 	and.w	r3, r3, #12
 8002c1e:	2b00      	cmp	r3, #0
 8002c20:	f040 8084 	bne.w	8002d2c <HAL_RCC_OscConfig+0x130>
    {
      if((READ_BIT(RCC->CR, RCC_CR_MSIRDY) != RESET) && (RCC_OscInitStruct->MSIState == RCC_MSI_OFF))
 8002c24:	4b9e      	ldr	r3, [pc, #632]	; (8002ea0 <HAL_RCC_OscConfig+0x2a4>)
 8002c26:	681b      	ldr	r3, [r3, #0]
 8002c28:	f003 0302 	and.w	r3, r3, #2
 8002c2c:	2b00      	cmp	r3, #0
 8002c2e:	d005      	beq.n	8002c3c <HAL_RCC_OscConfig+0x40>
 8002c30:	687b      	ldr	r3, [r7, #4]
 8002c32:	699b      	ldr	r3, [r3, #24]
 8002c34:	2b00      	cmp	r3, #0
 8002c36:	d101      	bne.n	8002c3c <HAL_RCC_OscConfig+0x40>
      {
        return HAL_ERROR;
 8002c38:	2301      	movs	r3, #1
 8002c3a:	e39b      	b.n	8003374 <HAL_RCC_OscConfig+0x778>
      else
      {
        /* To correctly read data from FLASH memory, the number of wait states (LATENCY)
           must be correctly programmed according to the frequency of the CPU clock
           (HCLK) and the supply voltage of the device. */
        if(RCC_OscInitStruct->MSIClockRange > __HAL_RCC_GET_MSI_RANGE())
 8002c3c:	687b      	ldr	r3, [r7, #4]
 8002c3e:	6a1a      	ldr	r2, [r3, #32]
 8002c40:	4b97      	ldr	r3, [pc, #604]	; (8002ea0 <HAL_RCC_OscConfig+0x2a4>)
 8002c42:	681b      	ldr	r3, [r3, #0]
 8002c44:	f003 0308 	and.w	r3, r3, #8
 8002c48:	2b00      	cmp	r3, #0
 8002c4a:	d004      	beq.n	8002c56 <HAL_RCC_OscConfig+0x5a>
 8002c4c:	4b94      	ldr	r3, [pc, #592]	; (8002ea0 <HAL_RCC_OscConfig+0x2a4>)
 8002c4e:	681b      	ldr	r3, [r3, #0]
 8002c50:	f003 03f0 	and.w	r3, r3, #240	; 0xf0
 8002c54:	e005      	b.n	8002c62 <HAL_RCC_OscConfig+0x66>
 8002c56:	4b92      	ldr	r3, [pc, #584]	; (8002ea0 <HAL_RCC_OscConfig+0x2a4>)
 8002c58:	f8d3 3094 	ldr.w	r3, [r3, #148]	; 0x94
 8002c5c:	091b      	lsrs	r3, r3, #4
 8002c5e:	f003 03f0 	and.w	r3, r3, #240	; 0xf0
 8002c62:	429a      	cmp	r2, r3
 8002c64:	d923      	bls.n	8002cae <HAL_RCC_OscConfig+0xb2>
        {
          /* First increase number of wait states update if necessary */
          if(RCC_SetFlashLatencyFromMSIRange(RCC_OscInitStruct->MSIClockRange) != HAL_OK)
 8002c66:	687b      	ldr	r3, [r7, #4]
 8002c68:	6a1b      	ldr	r3, [r3, #32]
 8002c6a:	4618      	mov	r0, r3
 8002c6c:	f000 fdf4 	bl	8003858 <RCC_SetFlashLatencyFromMSIRange>
 8002c70:	4603      	mov	r3, r0
 8002c72:	2b00      	cmp	r3, #0
 8002c74:	d001      	beq.n	8002c7a <HAL_RCC_OscConfig+0x7e>
          {
            return HAL_ERROR;
 8002c76:	2301      	movs	r3, #1
 8002c78:	e37c      	b.n	8003374 <HAL_RCC_OscConfig+0x778>
          }

          /* Selects the Multiple Speed oscillator (MSI) clock range .*/
          __HAL_RCC_MSI_RANGE_CONFIG(RCC_OscInitStruct->MSIClockRange);
 8002c7a:	4a89      	ldr	r2, [pc, #548]	; (8002ea0 <HAL_RCC_OscConfig+0x2a4>)
 8002c7c:	4b88      	ldr	r3, [pc, #544]	; (8002ea0 <HAL_RCC_OscConfig+0x2a4>)
 8002c7e:	681b      	ldr	r3, [r3, #0]
 8002c80:	f043 0308 	orr.w	r3, r3, #8
 8002c84:	6013      	str	r3, [r2, #0]
 8002c86:	4986      	ldr	r1, [pc, #536]	; (8002ea0 <HAL_RCC_OscConfig+0x2a4>)
 8002c88:	4b85      	ldr	r3, [pc, #532]	; (8002ea0 <HAL_RCC_OscConfig+0x2a4>)
 8002c8a:	681b      	ldr	r3, [r3, #0]
 8002c8c:	f023 02f0 	bic.w	r2, r3, #240	; 0xf0
 8002c90:	687b      	ldr	r3, [r7, #4]
 8002c92:	6a1b      	ldr	r3, [r3, #32]
 8002c94:	4313      	orrs	r3, r2
 8002c96:	600b      	str	r3, [r1, #0]
          /* Adjusts the Multiple Speed oscillator (MSI) calibration value.*/
          __HAL_RCC_MSI_CALIBRATIONVALUE_ADJUST(RCC_OscInitStruct->MSICalibrationValue);
 8002c98:	4981      	ldr	r1, [pc, #516]	; (8002ea0 <HAL_RCC_OscConfig+0x2a4>)
 8002c9a:	4b81      	ldr	r3, [pc, #516]	; (8002ea0 <HAL_RCC_OscConfig+0x2a4>)
 8002c9c:	685b      	ldr	r3, [r3, #4]
 8002c9e:	f423 427f 	bic.w	r2, r3, #65280	; 0xff00
 8002ca2:	687b      	ldr	r3, [r7, #4]
 8002ca4:	69db      	ldr	r3, [r3, #28]
 8002ca6:	021b      	lsls	r3, r3, #8
 8002ca8:	4313      	orrs	r3, r2
 8002caa:	604b      	str	r3, [r1, #4]
 8002cac:	e022      	b.n	8002cf4 <HAL_RCC_OscConfig+0xf8>
        }
        else
        {
          /* Else, keep current flash latency while decreasing applies */
          /* Selects the Multiple Speed oscillator (MSI) clock range .*/
          __HAL_RCC_MSI_RANGE_CONFIG(RCC_OscInitStruct->MSIClockRange);
 8002cae:	4a7c      	ldr	r2, [pc, #496]	; (8002ea0 <HAL_RCC_OscConfig+0x2a4>)
 8002cb0:	4b7b      	ldr	r3, [pc, #492]	; (8002ea0 <HAL_RCC_OscConfig+0x2a4>)
 8002cb2:	681b      	ldr	r3, [r3, #0]
 8002cb4:	f043 0308 	orr.w	r3, r3, #8
 8002cb8:	6013      	str	r3, [r2, #0]
 8002cba:	4979      	ldr	r1, [pc, #484]	; (8002ea0 <HAL_RCC_OscConfig+0x2a4>)
 8002cbc:	4b78      	ldr	r3, [pc, #480]	; (8002ea0 <HAL_RCC_OscConfig+0x2a4>)
 8002cbe:	681b      	ldr	r3, [r3, #0]
 8002cc0:	f023 02f0 	bic.w	r2, r3, #240	; 0xf0
 8002cc4:	687b      	ldr	r3, [r7, #4]
 8002cc6:	6a1b      	ldr	r3, [r3, #32]
 8002cc8:	4313      	orrs	r3, r2
 8002cca:	600b      	str	r3, [r1, #0]
          /* Adjusts the Multiple Speed oscillator (MSI) calibration value.*/
          __HAL_RCC_MSI_CALIBRATIONVALUE_ADJUST(RCC_OscInitStruct->MSICalibrationValue);
 8002ccc:	4974      	ldr	r1, [pc, #464]	; (8002ea0 <HAL_RCC_OscConfig+0x2a4>)
 8002cce:	4b74      	ldr	r3, [pc, #464]	; (8002ea0 <HAL_RCC_OscConfig+0x2a4>)
 8002cd0:	685b      	ldr	r3, [r3, #4]
 8002cd2:	f423 427f 	bic.w	r2, r3, #65280	; 0xff00
 8002cd6:	687b      	ldr	r3, [r7, #4]
 8002cd8:	69db      	ldr	r3, [r3, #28]
 8002cda:	021b      	lsls	r3, r3, #8
 8002cdc:	4313      	orrs	r3, r2
 8002cde:	604b      	str	r3, [r1, #4]

          /* Decrease number of wait states update if necessary */
          if(RCC_SetFlashLatencyFromMSIRange(RCC_OscInitStruct->MSIClockRange) != HAL_OK)
 8002ce0:	687b      	ldr	r3, [r7, #4]
 8002ce2:	6a1b      	ldr	r3, [r3, #32]
 8002ce4:	4618      	mov	r0, r3
 8002ce6:	f000 fdb7 	bl	8003858 <RCC_SetFlashLatencyFromMSIRange>
 8002cea:	4603      	mov	r3, r0
 8002cec:	2b00      	cmp	r3, #0
 8002cee:	d001      	beq.n	8002cf4 <HAL_RCC_OscConfig+0xf8>
          {
            return HAL_ERROR;
 8002cf0:	2301      	movs	r3, #1
 8002cf2:	e33f      	b.n	8003374 <HAL_RCC_OscConfig+0x778>
          }          
        }

        /* Update the SystemCoreClock global variable */
        SystemCoreClock = HAL_RCC_GetSysClockFreq() >> AHBPrescTable[(RCC->CFGR & RCC_CFGR_HPRE)>> POSITION_VAL(RCC_CFGR_HPRE)];
 8002cf4:	f000 fc66 	bl	80035c4 <HAL_RCC_GetSysClockFreq>
 8002cf8:	4601      	mov	r1, r0
 8002cfa:	4b69      	ldr	r3, [pc, #420]	; (8002ea0 <HAL_RCC_OscConfig+0x2a4>)
 8002cfc:	689b      	ldr	r3, [r3, #8]
 8002cfe:	f003 02f0 	and.w	r2, r3, #240	; 0xf0
 8002d02:	23f0      	movs	r3, #240	; 0xf0
 8002d04:	627b      	str	r3, [r7, #36]	; 0x24
__attribute__((always_inline)) __STATIC_INLINE uint32_t __RBIT(uint32_t value)
{
  uint32_t result;

#if       (__CORTEX_M >= 0x03U) || (__CORTEX_SC >= 300U)
   __ASM volatile ("rbit %0, %1" : "=r" (result) : "r" (value) );
 8002d06:	6a7b      	ldr	r3, [r7, #36]	; 0x24
 8002d08:	fa93 f3a3 	rbit	r3, r3
 8002d0c:	623b      	str	r3, [r7, #32]
    result |= value & 1U;
    s--;
  }
  result <<= s;                        /* shift when v's highest bits are zero */
#endif
  return(result);
 8002d0e:	6a3b      	ldr	r3, [r7, #32]
 8002d10:	fab3 f383 	clz	r3, r3
 8002d14:	fa22 f303 	lsr.w	r3, r2, r3
 8002d18:	4a62      	ldr	r2, [pc, #392]	; (8002ea4 <HAL_RCC_OscConfig+0x2a8>)
 8002d1a:	5cd3      	ldrb	r3, [r2, r3]
 8002d1c:	fa21 f303 	lsr.w	r3, r1, r3
 8002d20:	4a61      	ldr	r2, [pc, #388]	; (8002ea8 <HAL_RCC_OscConfig+0x2ac>)
 8002d22:	6013      	str	r3, [r2, #0]
        
        /* Configure the source of time base considering new system clocks settings*/
        HAL_InitTick (TICK_INT_PRIORITY);
 8002d24:	2000      	movs	r0, #0
 8002d26:	f7fe fe23 	bl	8001970 <HAL_InitTick>
 8002d2a:	e04f      	b.n	8002dcc <HAL_RCC_OscConfig+0x1d0>
      }
    }
    else
    {
      /* Check the MSI State */
      if(RCC_OscInitStruct->MSIState != RCC_MSI_OFF)
 8002d2c:	687b      	ldr	r3, [r7, #4]
 8002d2e:	699b      	ldr	r3, [r3, #24]
 8002d30:	2b00      	cmp	r3, #0
 8002d32:	d032      	beq.n	8002d9a <HAL_RCC_OscConfig+0x19e>
      {
        /* Enable the Internal High Speed oscillator (MSI). */
        __HAL_RCC_MSI_ENABLE();
 8002d34:	4a5a      	ldr	r2, [pc, #360]	; (8002ea0 <HAL_RCC_OscConfig+0x2a4>)
 8002d36:	4b5a      	ldr	r3, [pc, #360]	; (8002ea0 <HAL_RCC_OscConfig+0x2a4>)
 8002d38:	681b      	ldr	r3, [r3, #0]
 8002d3a:	f043 0301 	orr.w	r3, r3, #1
 8002d3e:	6013      	str	r3, [r2, #0]

        /* Get timeout */
        tickstart = HAL_GetTick();
 8002d40:	f7fe fe40 	bl	80019c4 <HAL_GetTick>
 8002d44:	62b8      	str	r0, [r7, #40]	; 0x28

        /* Wait till MSI is ready */
        while(READ_BIT(RCC->CR, RCC_CR_MSIRDY) == RESET)
 8002d46:	e008      	b.n	8002d5a <HAL_RCC_OscConfig+0x15e>
        {
          if((HAL_GetTick() - tickstart) > MSI_TIMEOUT_VALUE)
 8002d48:	f7fe fe3c 	bl	80019c4 <HAL_GetTick>
 8002d4c:	4602      	mov	r2, r0
 8002d4e:	6abb      	ldr	r3, [r7, #40]	; 0x28
 8002d50:	1ad3      	subs	r3, r2, r3
 8002d52:	2b02      	cmp	r3, #2
 8002d54:	d901      	bls.n	8002d5a <HAL_RCC_OscConfig+0x15e>
          {
            return HAL_TIMEOUT;
 8002d56:	2303      	movs	r3, #3
 8002d58:	e30c      	b.n	8003374 <HAL_RCC_OscConfig+0x778>
        while(READ_BIT(RCC->CR, RCC_CR_MSIRDY) == RESET)
 8002d5a:	4b51      	ldr	r3, [pc, #324]	; (8002ea0 <HAL_RCC_OscConfig+0x2a4>)
 8002d5c:	681b      	ldr	r3, [r3, #0]
 8002d5e:	f003 0302 	and.w	r3, r3, #2
 8002d62:	2b00      	cmp	r3, #0
 8002d64:	d0f0      	beq.n	8002d48 <HAL_RCC_OscConfig+0x14c>
          }
        }
         /* Selects the Multiple Speed oscillator (MSI) clock range .*/
        __HAL_RCC_MSI_RANGE_CONFIG(RCC_OscInitStruct->MSIClockRange);
 8002d66:	4a4e      	ldr	r2, [pc, #312]	; (8002ea0 <HAL_RCC_OscConfig+0x2a4>)
 8002d68:	4b4d      	ldr	r3, [pc, #308]	; (8002ea0 <HAL_RCC_OscConfig+0x2a4>)
 8002d6a:	681b      	ldr	r3, [r3, #0]
 8002d6c:	f043 0308 	orr.w	r3, r3, #8
 8002d70:	6013      	str	r3, [r2, #0]
 8002d72:	494b      	ldr	r1, [pc, #300]	; (8002ea0 <HAL_RCC_OscConfig+0x2a4>)
 8002d74:	4b4a      	ldr	r3, [pc, #296]	; (8002ea0 <HAL_RCC_OscConfig+0x2a4>)
 8002d76:	681b      	ldr	r3, [r3, #0]
 8002d78:	f023 02f0 	bic.w	r2, r3, #240	; 0xf0
 8002d7c:	687b      	ldr	r3, [r7, #4]
 8002d7e:	6a1b      	ldr	r3, [r3, #32]
 8002d80:	4313      	orrs	r3, r2
 8002d82:	600b      	str	r3, [r1, #0]
         /* Adjusts the Multiple Speed oscillator (MSI) calibration value.*/
        __HAL_RCC_MSI_CALIBRATIONVALUE_ADJUST(RCC_OscInitStruct->MSICalibrationValue);
 8002d84:	4946      	ldr	r1, [pc, #280]	; (8002ea0 <HAL_RCC_OscConfig+0x2a4>)
 8002d86:	4b46      	ldr	r3, [pc, #280]	; (8002ea0 <HAL_RCC_OscConfig+0x2a4>)
 8002d88:	685b      	ldr	r3, [r3, #4]
 8002d8a:	f423 427f 	bic.w	r2, r3, #65280	; 0xff00
 8002d8e:	687b      	ldr	r3, [r7, #4]
 8002d90:	69db      	ldr	r3, [r3, #28]
 8002d92:	021b      	lsls	r3, r3, #8
 8002d94:	4313      	orrs	r3, r2
 8002d96:	604b      	str	r3, [r1, #4]
 8002d98:	e018      	b.n	8002dcc <HAL_RCC_OscConfig+0x1d0>

      }
      else
      {
        /* Disable the Internal High Speed oscillator (MSI). */
        __HAL_RCC_MSI_DISABLE();
 8002d9a:	4a41      	ldr	r2, [pc, #260]	; (8002ea0 <HAL_RCC_OscConfig+0x2a4>)
 8002d9c:	4b40      	ldr	r3, [pc, #256]	; (8002ea0 <HAL_RCC_OscConfig+0x2a4>)
 8002d9e:	681b      	ldr	r3, [r3, #0]
 8002da0:	f023 0301 	bic.w	r3, r3, #1
 8002da4:	6013      	str	r3, [r2, #0]

        /* Get timeout */
        tickstart = HAL_GetTick();
 8002da6:	f7fe fe0d 	bl	80019c4 <HAL_GetTick>
 8002daa:	62b8      	str	r0, [r7, #40]	; 0x28

        /* Wait till MSI is ready */
        while(READ_BIT(RCC->CR, RCC_CR_MSIRDY) != RESET)
 8002dac:	e008      	b.n	8002dc0 <HAL_RCC_OscConfig+0x1c4>
        {
          if((HAL_GetTick() - tickstart) > MSI_TIMEOUT_VALUE)
 8002dae:	f7fe fe09 	bl	80019c4 <HAL_GetTick>
 8002db2:	4602      	mov	r2, r0
 8002db4:	6abb      	ldr	r3, [r7, #40]	; 0x28
 8002db6:	1ad3      	subs	r3, r2, r3
 8002db8:	2b02      	cmp	r3, #2
 8002dba:	d901      	bls.n	8002dc0 <HAL_RCC_OscConfig+0x1c4>
          {
            return HAL_TIMEOUT;
 8002dbc:	2303      	movs	r3, #3
 8002dbe:	e2d9      	b.n	8003374 <HAL_RCC_OscConfig+0x778>
        while(READ_BIT(RCC->CR, RCC_CR_MSIRDY) != RESET)
 8002dc0:	4b37      	ldr	r3, [pc, #220]	; (8002ea0 <HAL_RCC_OscConfig+0x2a4>)
 8002dc2:	681b      	ldr	r3, [r3, #0]
 8002dc4:	f003 0302 	and.w	r3, r3, #2
 8002dc8:	2b00      	cmp	r3, #0
 8002dca:	d1f0      	bne.n	8002dae <HAL_RCC_OscConfig+0x1b2>
        }
      }
    }
  }
  /*------------------------------- HSE Configuration ------------------------*/
  if(((RCC_OscInitStruct->OscillatorType) & RCC_OSCILLATORTYPE_HSE) == RCC_OSCILLATORTYPE_HSE)
 8002dcc:	687b      	ldr	r3, [r7, #4]
 8002dce:	681b      	ldr	r3, [r3, #0]
 8002dd0:	f003 0301 	and.w	r3, r3, #1
 8002dd4:	2b00      	cmp	r3, #0
 8002dd6:	d07a      	beq.n	8002ece <HAL_RCC_OscConfig+0x2d2>
  {
    /* Check the parameters */
    assert_param(IS_RCC_HSE(RCC_OscInitStruct->HSEState));

    /* When the HSE is used as system clock or clock source for PLL in these cases it is not allowed to be disabled */
    if((__HAL_RCC_GET_SYSCLK_SOURCE() == RCC_CFGR_SWS_HSE) || 
 8002dd8:	4b31      	ldr	r3, [pc, #196]	; (8002ea0 <HAL_RCC_OscConfig+0x2a4>)
 8002dda:	689b      	ldr	r3, [r3, #8]
 8002ddc:	f003 030c 	and.w	r3, r3, #12
 8002de0:	2b08      	cmp	r3, #8
 8002de2:	d00b      	beq.n	8002dfc <HAL_RCC_OscConfig+0x200>
       ((__HAL_RCC_GET_SYSCLK_SOURCE() == RCC_CFGR_SWS_PLL) && (__HAL_RCC_GET_PLL_OSCSOURCE() == RCC_PLLSOURCE_HSE)))
 8002de4:	4b2e      	ldr	r3, [pc, #184]	; (8002ea0 <HAL_RCC_OscConfig+0x2a4>)
 8002de6:	689b      	ldr	r3, [r3, #8]
 8002de8:	f003 030c 	and.w	r3, r3, #12
    if((__HAL_RCC_GET_SYSCLK_SOURCE() == RCC_CFGR_SWS_HSE) || 
 8002dec:	2b0c      	cmp	r3, #12
 8002dee:	d111      	bne.n	8002e14 <HAL_RCC_OscConfig+0x218>
       ((__HAL_RCC_GET_SYSCLK_SOURCE() == RCC_CFGR_SWS_PLL) && (__HAL_RCC_GET_PLL_OSCSOURCE() == RCC_PLLSOURCE_HSE)))
 8002df0:	4b2b      	ldr	r3, [pc, #172]	; (8002ea0 <HAL_RCC_OscConfig+0x2a4>)
 8002df2:	68db      	ldr	r3, [r3, #12]
 8002df4:	f003 0303 	and.w	r3, r3, #3
 8002df8:	2b03      	cmp	r3, #3
 8002dfa:	d10b      	bne.n	8002e14 <HAL_RCC_OscConfig+0x218>
    {
      if((READ_BIT(RCC->CR, RCC_CR_HSERDY) != RESET) && (RCC_OscInitStruct->HSEState == RCC_HSE_OFF))
 8002dfc:	4b28      	ldr	r3, [pc, #160]	; (8002ea0 <HAL_RCC_OscConfig+0x2a4>)
 8002dfe:	681b      	ldr	r3, [r3, #0]
 8002e00:	f403 3300 	and.w	r3, r3, #131072	; 0x20000
 8002e04:	2b00      	cmp	r3, #0
 8002e06:	d061      	beq.n	8002ecc <HAL_RCC_OscConfig+0x2d0>
 8002e08:	687b      	ldr	r3, [r7, #4]
 8002e0a:	685b      	ldr	r3, [r3, #4]
 8002e0c:	2b00      	cmp	r3, #0
 8002e0e:	d15d      	bne.n	8002ecc <HAL_RCC_OscConfig+0x2d0>
      {
        return HAL_ERROR;
 8002e10:	2301      	movs	r3, #1
 8002e12:	e2af      	b.n	8003374 <HAL_RCC_OscConfig+0x778>
      }
    }
    else
    {
      /* Set the new HSE configuration ---------------------------------------*/
      __HAL_RCC_HSE_CONFIG(RCC_OscInitStruct->HSEState);
 8002e14:	687b      	ldr	r3, [r7, #4]
 8002e16:	685b      	ldr	r3, [r3, #4]
 8002e18:	f5b3 3f80 	cmp.w	r3, #65536	; 0x10000
 8002e1c:	d106      	bne.n	8002e2c <HAL_RCC_OscConfig+0x230>
 8002e1e:	4a20      	ldr	r2, [pc, #128]	; (8002ea0 <HAL_RCC_OscConfig+0x2a4>)
 8002e20:	4b1f      	ldr	r3, [pc, #124]	; (8002ea0 <HAL_RCC_OscConfig+0x2a4>)
 8002e22:	681b      	ldr	r3, [r3, #0]
 8002e24:	f443 3380 	orr.w	r3, r3, #65536	; 0x10000
 8002e28:	6013      	str	r3, [r2, #0]
 8002e2a:	e01d      	b.n	8002e68 <HAL_RCC_OscConfig+0x26c>
 8002e2c:	687b      	ldr	r3, [r7, #4]
 8002e2e:	685b      	ldr	r3, [r3, #4]
 8002e30:	f5b3 2fa0 	cmp.w	r3, #327680	; 0x50000
 8002e34:	d10c      	bne.n	8002e50 <HAL_RCC_OscConfig+0x254>
 8002e36:	4a1a      	ldr	r2, [pc, #104]	; (8002ea0 <HAL_RCC_OscConfig+0x2a4>)
 8002e38:	4b19      	ldr	r3, [pc, #100]	; (8002ea0 <HAL_RCC_OscConfig+0x2a4>)
 8002e3a:	681b      	ldr	r3, [r3, #0]
 8002e3c:	f443 2380 	orr.w	r3, r3, #262144	; 0x40000
 8002e40:	6013      	str	r3, [r2, #0]
 8002e42:	4a17      	ldr	r2, [pc, #92]	; (8002ea0 <HAL_RCC_OscConfig+0x2a4>)
 8002e44:	4b16      	ldr	r3, [pc, #88]	; (8002ea0 <HAL_RCC_OscConfig+0x2a4>)
 8002e46:	681b      	ldr	r3, [r3, #0]
 8002e48:	f443 3380 	orr.w	r3, r3, #65536	; 0x10000
 8002e4c:	6013      	str	r3, [r2, #0]
 8002e4e:	e00b      	b.n	8002e68 <HAL_RCC_OscConfig+0x26c>
 8002e50:	4a13      	ldr	r2, [pc, #76]	; (8002ea0 <HAL_RCC_OscConfig+0x2a4>)
 8002e52:	4b13      	ldr	r3, [pc, #76]	; (8002ea0 <HAL_RCC_OscConfig+0x2a4>)
 8002e54:	681b      	ldr	r3, [r3, #0]
 8002e56:	f423 3380 	bic.w	r3, r3, #65536	; 0x10000
 8002e5a:	6013      	str	r3, [r2, #0]
 8002e5c:	4a10      	ldr	r2, [pc, #64]	; (8002ea0 <HAL_RCC_OscConfig+0x2a4>)
 8002e5e:	4b10      	ldr	r3, [pc, #64]	; (8002ea0 <HAL_RCC_OscConfig+0x2a4>)
 8002e60:	681b      	ldr	r3, [r3, #0]
 8002e62:	f423 2380 	bic.w	r3, r3, #262144	; 0x40000
 8002e66:	6013      	str	r3, [r2, #0]

      /* Check the HSE State */
      if(RCC_OscInitStruct->HSEState != RCC_HSE_OFF)
 8002e68:	687b      	ldr	r3, [r7, #4]
 8002e6a:	685b      	ldr	r3, [r3, #4]
 8002e6c:	2b00      	cmp	r3, #0
 8002e6e:	d013      	beq.n	8002e98 <HAL_RCC_OscConfig+0x29c>
      {
        /* Get Start Tick*/
        tickstart = HAL_GetTick();
 8002e70:	f7fe fda8 	bl	80019c4 <HAL_GetTick>
 8002e74:	62b8      	str	r0, [r7, #40]	; 0x28

        /* Wait till HSE is ready */
        while(READ_BIT(RCC->CR, RCC_CR_HSERDY) == RESET)
 8002e76:	e008      	b.n	8002e8a <HAL_RCC_OscConfig+0x28e>
        {
          if((HAL_GetTick() - tickstart) > HSE_TIMEOUT_VALUE)
 8002e78:	f7fe fda4 	bl	80019c4 <HAL_GetTick>
 8002e7c:	4602      	mov	r2, r0
 8002e7e:	6abb      	ldr	r3, [r7, #40]	; 0x28
 8002e80:	1ad3      	subs	r3, r2, r3
 8002e82:	2b64      	cmp	r3, #100	; 0x64
 8002e84:	d901      	bls.n	8002e8a <HAL_RCC_OscConfig+0x28e>
          {
            return HAL_TIMEOUT;
 8002e86:	2303      	movs	r3, #3
 8002e88:	e274      	b.n	8003374 <HAL_RCC_OscConfig+0x778>
        while(READ_BIT(RCC->CR, RCC_CR_HSERDY) == RESET)
 8002e8a:	4b05      	ldr	r3, [pc, #20]	; (8002ea0 <HAL_RCC_OscConfig+0x2a4>)
 8002e8c:	681b      	ldr	r3, [r3, #0]
 8002e8e:	f403 3300 	and.w	r3, r3, #131072	; 0x20000
 8002e92:	2b00      	cmp	r3, #0
 8002e94:	d0f0      	beq.n	8002e78 <HAL_RCC_OscConfig+0x27c>
 8002e96:	e01a      	b.n	8002ece <HAL_RCC_OscConfig+0x2d2>
        }
      }
      else
      {
        /* Get Start Tick*/
        tickstart = HAL_GetTick();
 8002e98:	f7fe fd94 	bl	80019c4 <HAL_GetTick>
 8002e9c:	62b8      	str	r0, [r7, #40]	; 0x28

        /* Wait till HSE is disabled */
        while(READ_BIT(RCC->CR, RCC_CR_HSERDY) != RESET)
 8002e9e:	e00e      	b.n	8002ebe <HAL_RCC_OscConfig+0x2c2>
 8002ea0:	40021000 	.word	0x40021000
 8002ea4:	0800834c 	.word	0x0800834c
 8002ea8:	20000044 	.word	0x20000044
        {
          if((HAL_GetTick() - tickstart) > HSE_TIMEOUT_VALUE)
 8002eac:	f7fe fd8a 	bl	80019c4 <HAL_GetTick>
 8002eb0:	4602      	mov	r2, r0
 8002eb2:	6abb      	ldr	r3, [r7, #40]	; 0x28
 8002eb4:	1ad3      	subs	r3, r2, r3
 8002eb6:	2b64      	cmp	r3, #100	; 0x64
 8002eb8:	d901      	bls.n	8002ebe <HAL_RCC_OscConfig+0x2c2>
          {
            return HAL_TIMEOUT;
 8002eba:	2303      	movs	r3, #3
 8002ebc:	e25a      	b.n	8003374 <HAL_RCC_OscConfig+0x778>
        while(READ_BIT(RCC->CR, RCC_CR_HSERDY) != RESET)
 8002ebe:	4bb0      	ldr	r3, [pc, #704]	; (8003180 <HAL_RCC_OscConfig+0x584>)
 8002ec0:	681b      	ldr	r3, [r3, #0]
 8002ec2:	f403 3300 	and.w	r3, r3, #131072	; 0x20000
 8002ec6:	2b00      	cmp	r3, #0
 8002ec8:	d1f0      	bne.n	8002eac <HAL_RCC_OscConfig+0x2b0>
 8002eca:	e000      	b.n	8002ece <HAL_RCC_OscConfig+0x2d2>
      if((READ_BIT(RCC->CR, RCC_CR_HSERDY) != RESET) && (RCC_OscInitStruct->HSEState == RCC_HSE_OFF))
 8002ecc:	bf00      	nop
        }
      }
    }
  }
  /*----------------------------- HSI Configuration --------------------------*/
  if(((RCC_OscInitStruct->OscillatorType) & RCC_OSCILLATORTYPE_HSI) == RCC_OSCILLATORTYPE_HSI)
 8002ece:	687b      	ldr	r3, [r7, #4]
 8002ed0:	681b      	ldr	r3, [r3, #0]
 8002ed2:	f003 0302 	and.w	r3, r3, #2
 8002ed6:	2b00      	cmp	r3, #0
 8002ed8:	d07f      	beq.n	8002fda <HAL_RCC_OscConfig+0x3de>
    /* Check the parameters */
    assert_param(IS_RCC_HSI(RCC_OscInitStruct->HSIState));
    assert_param(IS_RCC_HSI_CALIBRATION_VALUE(RCC_OscInitStruct->HSICalibrationValue));

    /* Check if HSI is used as system clock or as PLL source when PLL is selected as system clock */ 
    if((__HAL_RCC_GET_SYSCLK_SOURCE() == RCC_CFGR_SWS_HSI) ||
 8002eda:	4ba9      	ldr	r3, [pc, #676]	; (8003180 <HAL_RCC_OscConfig+0x584>)
 8002edc:	689b      	ldr	r3, [r3, #8]
 8002ede:	f003 030c 	and.w	r3, r3, #12
 8002ee2:	2b04      	cmp	r3, #4
 8002ee4:	d00b      	beq.n	8002efe <HAL_RCC_OscConfig+0x302>
       ((__HAL_RCC_GET_SYSCLK_SOURCE() == RCC_CFGR_SWS_PLL) && (__HAL_RCC_GET_PLL_OSCSOURCE() == RCC_PLLSOURCE_HSI)))
 8002ee6:	4ba6      	ldr	r3, [pc, #664]	; (8003180 <HAL_RCC_OscConfig+0x584>)
 8002ee8:	689b      	ldr	r3, [r3, #8]
 8002eea:	f003 030c 	and.w	r3, r3, #12
    if((__HAL_RCC_GET_SYSCLK_SOURCE() == RCC_CFGR_SWS_HSI) ||
 8002eee:	2b0c      	cmp	r3, #12
 8002ef0:	d127      	bne.n	8002f42 <HAL_RCC_OscConfig+0x346>
       ((__HAL_RCC_GET_SYSCLK_SOURCE() == RCC_CFGR_SWS_PLL) && (__HAL_RCC_GET_PLL_OSCSOURCE() == RCC_PLLSOURCE_HSI)))
 8002ef2:	4ba3      	ldr	r3, [pc, #652]	; (8003180 <HAL_RCC_OscConfig+0x584>)
 8002ef4:	68db      	ldr	r3, [r3, #12]
 8002ef6:	f003 0303 	and.w	r3, r3, #3
 8002efa:	2b02      	cmp	r3, #2
 8002efc:	d121      	bne.n	8002f42 <HAL_RCC_OscConfig+0x346>
    {
      /* When HSI is used as system clock it will not be disabled */
      if((READ_BIT(RCC->CR, RCC_CR_HSIRDY) != RESET) && (RCC_OscInitStruct->HSIState == RCC_HSI_OFF))
 8002efe:	4ba0      	ldr	r3, [pc, #640]	; (8003180 <HAL_RCC_OscConfig+0x584>)
 8002f00:	681b      	ldr	r3, [r3, #0]
 8002f02:	f403 6380 	and.w	r3, r3, #1024	; 0x400
 8002f06:	2b00      	cmp	r3, #0
 8002f08:	d005      	beq.n	8002f16 <HAL_RCC_OscConfig+0x31a>
 8002f0a:	687b      	ldr	r3, [r7, #4]
 8002f0c:	68db      	ldr	r3, [r3, #12]
 8002f0e:	2b00      	cmp	r3, #0
 8002f10:	d101      	bne.n	8002f16 <HAL_RCC_OscConfig+0x31a>
      {
        return HAL_ERROR;
 8002f12:	2301      	movs	r3, #1
 8002f14:	e22e      	b.n	8003374 <HAL_RCC_OscConfig+0x778>
      }
      /* Otherwise, just the calibration is allowed */
      else
      {
        /* Adjusts the Internal High Speed oscillator (HSI) calibration value.*/
        __HAL_RCC_HSI_CALIBRATIONVALUE_ADJUST(RCC_OscInitStruct->HSICalibrationValue);
 8002f16:	489a      	ldr	r0, [pc, #616]	; (8003180 <HAL_RCC_OscConfig+0x584>)
 8002f18:	4b99      	ldr	r3, [pc, #612]	; (8003180 <HAL_RCC_OscConfig+0x584>)
 8002f1a:	685b      	ldr	r3, [r3, #4]
 8002f1c:	f023 52f8 	bic.w	r2, r3, #520093696	; 0x1f000000
 8002f20:	687b      	ldr	r3, [r7, #4]
 8002f22:	6919      	ldr	r1, [r3, #16]
 8002f24:	f04f 53f8 	mov.w	r3, #520093696	; 0x1f000000
 8002f28:	61fb      	str	r3, [r7, #28]
   __ASM volatile ("rbit %0, %1" : "=r" (result) : "r" (value) );
 8002f2a:	69fb      	ldr	r3, [r7, #28]
 8002f2c:	fa93 f3a3 	rbit	r3, r3
 8002f30:	61bb      	str	r3, [r7, #24]
  return(result);
 8002f32:	69bb      	ldr	r3, [r7, #24]
 8002f34:	fab3 f383 	clz	r3, r3
 8002f38:	fa01 f303 	lsl.w	r3, r1, r3
 8002f3c:	4313      	orrs	r3, r2
 8002f3e:	6043      	str	r3, [r0, #4]
      if((READ_BIT(RCC->CR, RCC_CR_HSIRDY) != RESET) && (RCC_OscInitStruct->HSIState == RCC_HSI_OFF))
 8002f40:	e04b      	b.n	8002fda <HAL_RCC_OscConfig+0x3de>
      }
    }
    else
    {
      /* Check the HSI State */
      if(RCC_OscInitStruct->HSIState != RCC_HSI_OFF)
 8002f42:	687b      	ldr	r3, [r7, #4]
 8002f44:	68db      	ldr	r3, [r3, #12]
 8002f46:	2b00      	cmp	r3, #0
 8002f48:	d02e      	beq.n	8002fa8 <HAL_RCC_OscConfig+0x3ac>
      {
        /* Enable the Internal High Speed oscillator (HSI). */
        __HAL_RCC_HSI_ENABLE();
 8002f4a:	4a8d      	ldr	r2, [pc, #564]	; (8003180 <HAL_RCC_OscConfig+0x584>)
 8002f4c:	4b8c      	ldr	r3, [pc, #560]	; (8003180 <HAL_RCC_OscConfig+0x584>)
 8002f4e:	681b      	ldr	r3, [r3, #0]
 8002f50:	f443 7380 	orr.w	r3, r3, #256	; 0x100
 8002f54:	6013      	str	r3, [r2, #0]

        /* Get Start Tick*/
        tickstart = HAL_GetTick();
 8002f56:	f7fe fd35 	bl	80019c4 <HAL_GetTick>
 8002f5a:	62b8      	str	r0, [r7, #40]	; 0x28

        /* Wait till HSI is ready */
        while(READ_BIT(RCC->CR, RCC_CR_HSIRDY) == RESET)
 8002f5c:	e008      	b.n	8002f70 <HAL_RCC_OscConfig+0x374>
        {
          if((HAL_GetTick() - tickstart) > HSI_TIMEOUT_VALUE)
 8002f5e:	f7fe fd31 	bl	80019c4 <HAL_GetTick>
 8002f62:	4602      	mov	r2, r0
 8002f64:	6abb      	ldr	r3, [r7, #40]	; 0x28
 8002f66:	1ad3      	subs	r3, r2, r3
 8002f68:	2b02      	cmp	r3, #2
 8002f6a:	d901      	bls.n	8002f70 <HAL_RCC_OscConfig+0x374>
          {
            return HAL_TIMEOUT;
 8002f6c:	2303      	movs	r3, #3
 8002f6e:	e201      	b.n	8003374 <HAL_RCC_OscConfig+0x778>
        while(READ_BIT(RCC->CR, RCC_CR_HSIRDY) == RESET)
 8002f70:	4b83      	ldr	r3, [pc, #524]	; (8003180 <HAL_RCC_OscConfig+0x584>)
 8002f72:	681b      	ldr	r3, [r3, #0]
 8002f74:	f403 6380 	and.w	r3, r3, #1024	; 0x400
 8002f78:	2b00      	cmp	r3, #0
 8002f7a:	d0f0      	beq.n	8002f5e <HAL_RCC_OscConfig+0x362>
          }
        }

        /* Adjusts the Internal High Speed oscillator (HSI) calibration value.*/
        __HAL_RCC_HSI_CALIBRATIONVALUE_ADJUST(RCC_OscInitStruct->HSICalibrationValue);
 8002f7c:	4880      	ldr	r0, [pc, #512]	; (8003180 <HAL_RCC_OscConfig+0x584>)
 8002f7e:	4b80      	ldr	r3, [pc, #512]	; (8003180 <HAL_RCC_OscConfig+0x584>)
 8002f80:	685b      	ldr	r3, [r3, #4]
 8002f82:	f023 52f8 	bic.w	r2, r3, #520093696	; 0x1f000000
 8002f86:	687b      	ldr	r3, [r7, #4]
 8002f88:	6919      	ldr	r1, [r3, #16]
 8002f8a:	f04f 53f8 	mov.w	r3, #520093696	; 0x1f000000
 8002f8e:	617b      	str	r3, [r7, #20]
   __ASM volatile ("rbit %0, %1" : "=r" (result) : "r" (value) );
 8002f90:	697b      	ldr	r3, [r7, #20]
 8002f92:	fa93 f3a3 	rbit	r3, r3
 8002f96:	613b      	str	r3, [r7, #16]
  return(result);
 8002f98:	693b      	ldr	r3, [r7, #16]
 8002f9a:	fab3 f383 	clz	r3, r3
 8002f9e:	fa01 f303 	lsl.w	r3, r1, r3
 8002fa2:	4313      	orrs	r3, r2
 8002fa4:	6043      	str	r3, [r0, #4]
 8002fa6:	e018      	b.n	8002fda <HAL_RCC_OscConfig+0x3de>
      }
      else
      {
        /* Disable the Internal High Speed oscillator (HSI). */
        __HAL_RCC_HSI_DISABLE();
 8002fa8:	4a75      	ldr	r2, [pc, #468]	; (8003180 <HAL_RCC_OscConfig+0x584>)
 8002faa:	4b75      	ldr	r3, [pc, #468]	; (8003180 <HAL_RCC_OscConfig+0x584>)
 8002fac:	681b      	ldr	r3, [r3, #0]
 8002fae:	f423 7380 	bic.w	r3, r3, #256	; 0x100
 8002fb2:	6013      	str	r3, [r2, #0]

        /* Get Start Tick*/
        tickstart = HAL_GetTick();
 8002fb4:	f7fe fd06 	bl	80019c4 <HAL_GetTick>
 8002fb8:	62b8      	str	r0, [r7, #40]	; 0x28

        /* Wait till HSI is disabled */
        while(READ_BIT(RCC->CR, RCC_CR_HSIRDY) != RESET)
 8002fba:	e008      	b.n	8002fce <HAL_RCC_OscConfig+0x3d2>
        {
          if((HAL_GetTick() - tickstart) > HSI_TIMEOUT_VALUE)
 8002fbc:	f7fe fd02 	bl	80019c4 <HAL_GetTick>
 8002fc0:	4602      	mov	r2, r0
 8002fc2:	6abb      	ldr	r3, [r7, #40]	; 0x28
 8002fc4:	1ad3      	subs	r3, r2, r3
 8002fc6:	2b02      	cmp	r3, #2
 8002fc8:	d901      	bls.n	8002fce <HAL_RCC_OscConfig+0x3d2>
          {
            return HAL_TIMEOUT;
 8002fca:	2303      	movs	r3, #3
 8002fcc:	e1d2      	b.n	8003374 <HAL_RCC_OscConfig+0x778>
        while(READ_BIT(RCC->CR, RCC_CR_HSIRDY) != RESET)
 8002fce:	4b6c      	ldr	r3, [pc, #432]	; (8003180 <HAL_RCC_OscConfig+0x584>)
 8002fd0:	681b      	ldr	r3, [r3, #0]
 8002fd2:	f403 6380 	and.w	r3, r3, #1024	; 0x400
 8002fd6:	2b00      	cmp	r3, #0
 8002fd8:	d1f0      	bne.n	8002fbc <HAL_RCC_OscConfig+0x3c0>
        }
      }
    }
  }
  /*------------------------------ LSI Configuration -------------------------*/
  if(((RCC_OscInitStruct->OscillatorType) & RCC_OSCILLATORTYPE_LSI) == RCC_OSCILLATORTYPE_LSI)
 8002fda:	687b      	ldr	r3, [r7, #4]
 8002fdc:	681b      	ldr	r3, [r3, #0]
 8002fde:	f003 0308 	and.w	r3, r3, #8
 8002fe2:	2b00      	cmp	r3, #0
 8002fe4:	d03c      	beq.n	8003060 <HAL_RCC_OscConfig+0x464>
  {
    /* Check the parameters */
    assert_param(IS_RCC_LSI(RCC_OscInitStruct->LSIState));

    /* Check the LSI State */
    if(RCC_OscInitStruct->LSIState != RCC_LSI_OFF)
 8002fe6:	687b      	ldr	r3, [r7, #4]
 8002fe8:	695b      	ldr	r3, [r3, #20]
 8002fea:	2b00      	cmp	r3, #0
 8002fec:	d01c      	beq.n	8003028 <HAL_RCC_OscConfig+0x42c>
    {
      /* Enable the Internal Low Speed oscillator (LSI). */
      __HAL_RCC_LSI_ENABLE();
 8002fee:	4a64      	ldr	r2, [pc, #400]	; (8003180 <HAL_RCC_OscConfig+0x584>)
 8002ff0:	4b63      	ldr	r3, [pc, #396]	; (8003180 <HAL_RCC_OscConfig+0x584>)
 8002ff2:	f8d3 3094 	ldr.w	r3, [r3, #148]	; 0x94
 8002ff6:	f043 0301 	orr.w	r3, r3, #1
 8002ffa:	f8c2 3094 	str.w	r3, [r2, #148]	; 0x94

      /* Get Start Tick*/
      tickstart = HAL_GetTick();
 8002ffe:	f7fe fce1 	bl	80019c4 <HAL_GetTick>
 8003002:	62b8      	str	r0, [r7, #40]	; 0x28

      /* Wait till LSI is ready */
      while(READ_BIT(RCC->CSR, RCC_CSR_LSIRDY) == RESET)
 8003004:	e008      	b.n	8003018 <HAL_RCC_OscConfig+0x41c>
      {
        if((HAL_GetTick() - tickstart) > LSI_TIMEOUT_VALUE)
 8003006:	f7fe fcdd 	bl	80019c4 <HAL_GetTick>
 800300a:	4602      	mov	r2, r0
 800300c:	6abb      	ldr	r3, [r7, #40]	; 0x28
 800300e:	1ad3      	subs	r3, r2, r3
 8003010:	2b02      	cmp	r3, #2
 8003012:	d901      	bls.n	8003018 <HAL_RCC_OscConfig+0x41c>
        {
          return HAL_TIMEOUT;
 8003014:	2303      	movs	r3, #3
 8003016:	e1ad      	b.n	8003374 <HAL_RCC_OscConfig+0x778>
      while(READ_BIT(RCC->CSR, RCC_CSR_LSIRDY) == RESET)
 8003018:	4b59      	ldr	r3, [pc, #356]	; (8003180 <HAL_RCC_OscConfig+0x584>)
 800301a:	f8d3 3094 	ldr.w	r3, [r3, #148]	; 0x94
 800301e:	f003 0302 	and.w	r3, r3, #2
 8003022:	2b00      	cmp	r3, #0
 8003024:	d0ef      	beq.n	8003006 <HAL_RCC_OscConfig+0x40a>
 8003026:	e01b      	b.n	8003060 <HAL_RCC_OscConfig+0x464>
      }
    }
    else
    {
      /* Disable the Internal Low Speed oscillator (LSI). */
      __HAL_RCC_LSI_DISABLE();
 8003028:	4a55      	ldr	r2, [pc, #340]	; (8003180 <HAL_RCC_OscConfig+0x584>)
 800302a:	4b55      	ldr	r3, [pc, #340]	; (8003180 <HAL_RCC_OscConfig+0x584>)
 800302c:	f8d3 3094 	ldr.w	r3, [r3, #148]	; 0x94
 8003030:	f023 0301 	bic.w	r3, r3, #1
 8003034:	f8c2 3094 	str.w	r3, [r2, #148]	; 0x94

      /* Get Start Tick*/
      tickstart = HAL_GetTick();
 8003038:	f7fe fcc4 	bl	80019c4 <HAL_GetTick>
 800303c:	62b8      	str	r0, [r7, #40]	; 0x28

      /* Wait till LSI is disabled */
      while(READ_BIT(RCC->CSR, RCC_CSR_LSIRDY) != RESET)
 800303e:	e008      	b.n	8003052 <HAL_RCC_OscConfig+0x456>
      {
        if((HAL_GetTick() - tickstart) > LSI_TIMEOUT_VALUE)
 8003040:	f7fe fcc0 	bl	80019c4 <HAL_GetTick>
 8003044:	4602      	mov	r2, r0
 8003046:	6abb      	ldr	r3, [r7, #40]	; 0x28
 8003048:	1ad3      	subs	r3, r2, r3
 800304a:	2b02      	cmp	r3, #2
 800304c:	d901      	bls.n	8003052 <HAL_RCC_OscConfig+0x456>
        {
          return HAL_TIMEOUT;
 800304e:	2303      	movs	r3, #3
 8003050:	e190      	b.n	8003374 <HAL_RCC_OscConfig+0x778>
      while(READ_BIT(RCC->CSR, RCC_CSR_LSIRDY) != RESET)
 8003052:	4b4b      	ldr	r3, [pc, #300]	; (8003180 <HAL_RCC_OscConfig+0x584>)
 8003054:	f8d3 3094 	ldr.w	r3, [r3, #148]	; 0x94
 8003058:	f003 0302 	and.w	r3, r3, #2
 800305c:	2b00      	cmp	r3, #0
 800305e:	d1ef      	bne.n	8003040 <HAL_RCC_OscConfig+0x444>
        }
      }
    }
  }
  /*------------------------------ LSE Configuration -------------------------*/
  if(((RCC_OscInitStruct->OscillatorType) & RCC_OSCILLATORTYPE_LSE) == RCC_OSCILLATORTYPE_LSE)
 8003060:	687b      	ldr	r3, [r7, #4]
 8003062:	681b      	ldr	r3, [r3, #0]
 8003064:	f003 0304 	and.w	r3, r3, #4
 8003068:	2b00      	cmp	r3, #0
 800306a:	f000 80a9 	beq.w	80031c0 <HAL_RCC_OscConfig+0x5c4>
  {
    FlagStatus       pwrclkchanged = RESET;
 800306e:	2300      	movs	r3, #0
 8003070:	f887 302f 	strb.w	r3, [r7, #47]	; 0x2f
    /* Check the parameters */
    assert_param(IS_RCC_LSE(RCC_OscInitStruct->LSEState));

    /* Update LSE configuration in Backup Domain control register    */
    /* Requires to enable write access to Backup Domain of necessary */
    if(HAL_IS_BIT_CLR(RCC->APB1ENR1, RCC_APB1ENR1_PWREN))
 8003074:	4b42      	ldr	r3, [pc, #264]	; (8003180 <HAL_RCC_OscConfig+0x584>)
 8003076:	6d9b      	ldr	r3, [r3, #88]	; 0x58
 8003078:	f003 5380 	and.w	r3, r3, #268435456	; 0x10000000
 800307c:	2b00      	cmp	r3, #0
 800307e:	d10e      	bne.n	800309e <HAL_RCC_OscConfig+0x4a2>
    {
      __HAL_RCC_PWR_CLK_ENABLE();
 8003080:	4a3f      	ldr	r2, [pc, #252]	; (8003180 <HAL_RCC_OscConfig+0x584>)
 8003082:	4b3f      	ldr	r3, [pc, #252]	; (8003180 <HAL_RCC_OscConfig+0x584>)
 8003084:	6d9b      	ldr	r3, [r3, #88]	; 0x58
 8003086:	f043 5380 	orr.w	r3, r3, #268435456	; 0x10000000
 800308a:	6593      	str	r3, [r2, #88]	; 0x58
 800308c:	4b3c      	ldr	r3, [pc, #240]	; (8003180 <HAL_RCC_OscConfig+0x584>)
 800308e:	6d9b      	ldr	r3, [r3, #88]	; 0x58
 8003090:	f003 5380 	and.w	r3, r3, #268435456	; 0x10000000
 8003094:	60fb      	str	r3, [r7, #12]
 8003096:	68fb      	ldr	r3, [r7, #12]
      pwrclkchanged = SET;
 8003098:	2301      	movs	r3, #1
 800309a:	f887 302f 	strb.w	r3, [r7, #47]	; 0x2f
    }
    
    if(HAL_IS_BIT_CLR(PWR->CR1, PWR_CR1_DBP))
 800309e:	4b39      	ldr	r3, [pc, #228]	; (8003184 <HAL_RCC_OscConfig+0x588>)
 80030a0:	681b      	ldr	r3, [r3, #0]
 80030a2:	f403 7380 	and.w	r3, r3, #256	; 0x100
 80030a6:	2b00      	cmp	r3, #0
 80030a8:	d118      	bne.n	80030dc <HAL_RCC_OscConfig+0x4e0>
    {
      /* Enable write access to Backup domain */
      SET_BIT(PWR->CR1, PWR_CR1_DBP);
 80030aa:	4a36      	ldr	r2, [pc, #216]	; (8003184 <HAL_RCC_OscConfig+0x588>)
 80030ac:	4b35      	ldr	r3, [pc, #212]	; (8003184 <HAL_RCC_OscConfig+0x588>)
 80030ae:	681b      	ldr	r3, [r3, #0]
 80030b0:	f443 7380 	orr.w	r3, r3, #256	; 0x100
 80030b4:	6013      	str	r3, [r2, #0]
      
      /* Wait for Backup domain Write protection disable */
      tickstart = HAL_GetTick();
 80030b6:	f7fe fc85 	bl	80019c4 <HAL_GetTick>
 80030ba:	62b8      	str	r0, [r7, #40]	; 0x28

      while(HAL_IS_BIT_CLR(PWR->CR1, PWR_CR1_DBP))
 80030bc:	e008      	b.n	80030d0 <HAL_RCC_OscConfig+0x4d4>
      {
        if((HAL_GetTick() - tickstart) > RCC_DBP_TIMEOUT_VALUE)
 80030be:	f7fe fc81 	bl	80019c4 <HAL_GetTick>
 80030c2:	4602      	mov	r2, r0
 80030c4:	6abb      	ldr	r3, [r7, #40]	; 0x28
 80030c6:	1ad3      	subs	r3, r2, r3
 80030c8:	2b02      	cmp	r3, #2
 80030ca:	d901      	bls.n	80030d0 <HAL_RCC_OscConfig+0x4d4>
        {
          return HAL_TIMEOUT;
 80030cc:	2303      	movs	r3, #3
 80030ce:	e151      	b.n	8003374 <HAL_RCC_OscConfig+0x778>
      while(HAL_IS_BIT_CLR(PWR->CR1, PWR_CR1_DBP))
 80030d0:	4b2c      	ldr	r3, [pc, #176]	; (8003184 <HAL_RCC_OscConfig+0x588>)
 80030d2:	681b      	ldr	r3, [r3, #0]
 80030d4:	f403 7380 	and.w	r3, r3, #256	; 0x100
 80030d8:	2b00      	cmp	r3, #0
 80030da:	d0f0      	beq.n	80030be <HAL_RCC_OscConfig+0x4c2>
        }
      }
    }

    /* Set the new LSE configuration -----------------------------------------*/
    __HAL_RCC_LSE_CONFIG(RCC_OscInitStruct->LSEState);
 80030dc:	687b      	ldr	r3, [r7, #4]
 80030de:	689b      	ldr	r3, [r3, #8]
 80030e0:	2b01      	cmp	r3, #1
 80030e2:	d108      	bne.n	80030f6 <HAL_RCC_OscConfig+0x4fa>
 80030e4:	4a26      	ldr	r2, [pc, #152]	; (8003180 <HAL_RCC_OscConfig+0x584>)
 80030e6:	4b26      	ldr	r3, [pc, #152]	; (8003180 <HAL_RCC_OscConfig+0x584>)
 80030e8:	f8d3 3090 	ldr.w	r3, [r3, #144]	; 0x90
 80030ec:	f043 0301 	orr.w	r3, r3, #1
 80030f0:	f8c2 3090 	str.w	r3, [r2, #144]	; 0x90
 80030f4:	e024      	b.n	8003140 <HAL_RCC_OscConfig+0x544>
 80030f6:	687b      	ldr	r3, [r7, #4]
 80030f8:	689b      	ldr	r3, [r3, #8]
 80030fa:	2b05      	cmp	r3, #5
 80030fc:	d110      	bne.n	8003120 <HAL_RCC_OscConfig+0x524>
 80030fe:	4a20      	ldr	r2, [pc, #128]	; (8003180 <HAL_RCC_OscConfig+0x584>)
 8003100:	4b1f      	ldr	r3, [pc, #124]	; (8003180 <HAL_RCC_OscConfig+0x584>)
 8003102:	f8d3 3090 	ldr.w	r3, [r3, #144]	; 0x90
 8003106:	f043 0304 	orr.w	r3, r3, #4
 800310a:	f8c2 3090 	str.w	r3, [r2, #144]	; 0x90
 800310e:	4a1c      	ldr	r2, [pc, #112]	; (8003180 <HAL_RCC_OscConfig+0x584>)
 8003110:	4b1b      	ldr	r3, [pc, #108]	; (8003180 <HAL_RCC_OscConfig+0x584>)
 8003112:	f8d3 3090 	ldr.w	r3, [r3, #144]	; 0x90
 8003116:	f043 0301 	orr.w	r3, r3, #1
 800311a:	f8c2 3090 	str.w	r3, [r2, #144]	; 0x90
 800311e:	e00f      	b.n	8003140 <HAL_RCC_OscConfig+0x544>
 8003120:	4a17      	ldr	r2, [pc, #92]	; (8003180 <HAL_RCC_OscConfig+0x584>)
 8003122:	4b17      	ldr	r3, [pc, #92]	; (8003180 <HAL_RCC_OscConfig+0x584>)
 8003124:	f8d3 3090 	ldr.w	r3, [r3, #144]	; 0x90
 8003128:	f023 0301 	bic.w	r3, r3, #1
 800312c:	f8c2 3090 	str.w	r3, [r2, #144]	; 0x90
 8003130:	4a13      	ldr	r2, [pc, #76]	; (8003180 <HAL_RCC_OscConfig+0x584>)
 8003132:	4b13      	ldr	r3, [pc, #76]	; (8003180 <HAL_RCC_OscConfig+0x584>)
 8003134:	f8d3 3090 	ldr.w	r3, [r3, #144]	; 0x90
 8003138:	f023 0304 	bic.w	r3, r3, #4
 800313c:	f8c2 3090 	str.w	r3, [r2, #144]	; 0x90

    /* Check the LSE State */
    if(RCC_OscInitStruct->LSEState != RCC_LSE_OFF)
 8003140:	687b      	ldr	r3, [r7, #4]
 8003142:	689b      	ldr	r3, [r3, #8]
 8003144:	2b00      	cmp	r3, #0
 8003146:	d016      	beq.n	8003176 <HAL_RCC_OscConfig+0x57a>
    {
      /* Get Start Tick*/
      tickstart = HAL_GetTick();
 8003148:	f7fe fc3c 	bl	80019c4 <HAL_GetTick>
 800314c:	62b8      	str	r0, [r7, #40]	; 0x28

      /* Wait till LSE is ready */
      while(READ_BIT(RCC->BDCR, RCC_BDCR_LSERDY) == RESET)
 800314e:	e00a      	b.n	8003166 <HAL_RCC_OscConfig+0x56a>
      {
        if((HAL_GetTick() - tickstart) > RCC_LSE_TIMEOUT_VALUE)
 8003150:	f7fe fc38 	bl	80019c4 <HAL_GetTick>
 8003154:	4602      	mov	r2, r0
 8003156:	6abb      	ldr	r3, [r7, #40]	; 0x28
 8003158:	1ad3      	subs	r3, r2, r3
 800315a:	f241 3288 	movw	r2, #5000	; 0x1388
 800315e:	4293      	cmp	r3, r2
 8003160:	d901      	bls.n	8003166 <HAL_RCC_OscConfig+0x56a>
        {
          return HAL_TIMEOUT;
 8003162:	2303      	movs	r3, #3
 8003164:	e106      	b.n	8003374 <HAL_RCC_OscConfig+0x778>
      while(READ_BIT(RCC->BDCR, RCC_BDCR_LSERDY) == RESET)
 8003166:	4b06      	ldr	r3, [pc, #24]	; (8003180 <HAL_RCC_OscConfig+0x584>)
 8003168:	f8d3 3090 	ldr.w	r3, [r3, #144]	; 0x90
 800316c:	f003 0302 	and.w	r3, r3, #2
 8003170:	2b00      	cmp	r3, #0
 8003172:	d0ed      	beq.n	8003150 <HAL_RCC_OscConfig+0x554>
 8003174:	e01a      	b.n	80031ac <HAL_RCC_OscConfig+0x5b0>
      }
    }
    else
    {
      /* Get Start Tick*/
      tickstart = HAL_GetTick();
 8003176:	f7fe fc25 	bl	80019c4 <HAL_GetTick>
 800317a:	62b8      	str	r0, [r7, #40]	; 0x28

      /* Wait till LSE is disabled */
      while(READ_BIT(RCC->BDCR, RCC_BDCR_LSERDY) != RESET)
 800317c:	e00f      	b.n	800319e <HAL_RCC_OscConfig+0x5a2>
 800317e:	bf00      	nop
 8003180:	40021000 	.word	0x40021000
 8003184:	40007000 	.word	0x40007000
      {
        if((HAL_GetTick() - tickstart) > RCC_LSE_TIMEOUT_VALUE)
 8003188:	f7fe fc1c 	bl	80019c4 <HAL_GetTick>
 800318c:	4602      	mov	r2, r0
 800318e:	6abb      	ldr	r3, [r7, #40]	; 0x28
 8003190:	1ad3      	subs	r3, r2, r3
 8003192:	f241 3288 	movw	r2, #5000	; 0x1388
 8003196:	4293      	cmp	r3, r2
 8003198:	d901      	bls.n	800319e <HAL_RCC_OscConfig+0x5a2>
        {
          return HAL_TIMEOUT;
 800319a:	2303      	movs	r3, #3
 800319c:	e0ea      	b.n	8003374 <HAL_RCC_OscConfig+0x778>
      while(READ_BIT(RCC->BDCR, RCC_BDCR_LSERDY) != RESET)
 800319e:	4b77      	ldr	r3, [pc, #476]	; (800337c <HAL_RCC_OscConfig+0x780>)
 80031a0:	f8d3 3090 	ldr.w	r3, [r3, #144]	; 0x90
 80031a4:	f003 0302 	and.w	r3, r3, #2
 80031a8:	2b00      	cmp	r3, #0
 80031aa:	d1ed      	bne.n	8003188 <HAL_RCC_OscConfig+0x58c>
        }
      }
    }

    /* Restore clock configuration if changed */
    if(pwrclkchanged == SET)
 80031ac:	f897 302f 	ldrb.w	r3, [r7, #47]	; 0x2f
 80031b0:	2b01      	cmp	r3, #1
 80031b2:	d105      	bne.n	80031c0 <HAL_RCC_OscConfig+0x5c4>
    {
      __HAL_RCC_PWR_CLK_DISABLE();
 80031b4:	4a71      	ldr	r2, [pc, #452]	; (800337c <HAL_RCC_OscConfig+0x780>)
 80031b6:	4b71      	ldr	r3, [pc, #452]	; (800337c <HAL_RCC_OscConfig+0x780>)
 80031b8:	6d9b      	ldr	r3, [r3, #88]	; 0x58
 80031ba:	f023 5380 	bic.w	r3, r3, #268435456	; 0x10000000
 80031be:	6593      	str	r3, [r2, #88]	; 0x58
    }
  }
#if defined(RCC_HSI48_SUPPORT)
  /*------------------------------ HSI48 Configuration -----------------------*/
  if(((RCC_OscInitStruct->OscillatorType) & RCC_OSCILLATORTYPE_HSI48) == RCC_OSCILLATORTYPE_HSI48)
 80031c0:	687b      	ldr	r3, [r7, #4]
 80031c2:	681b      	ldr	r3, [r3, #0]
 80031c4:	f003 0320 	and.w	r3, r3, #32
 80031c8:	2b00      	cmp	r3, #0
 80031ca:	d03c      	beq.n	8003246 <HAL_RCC_OscConfig+0x64a>
  {
    /* Check the parameters */
    assert_param(IS_RCC_HSI48(RCC_OscInitStruct->HSI48State));

    /* Check the LSI State */
    if(RCC_OscInitStruct->HSI48State != RCC_HSI48_OFF)
 80031cc:	687b      	ldr	r3, [r7, #4]
 80031ce:	6a5b      	ldr	r3, [r3, #36]	; 0x24
 80031d0:	2b00      	cmp	r3, #0
 80031d2:	d01c      	beq.n	800320e <HAL_RCC_OscConfig+0x612>
    {
      /* Enable the Internal Low Speed oscillator (HSI48). */
      __HAL_RCC_HSI48_ENABLE();
 80031d4:	4a69      	ldr	r2, [pc, #420]	; (800337c <HAL_RCC_OscConfig+0x780>)
 80031d6:	4b69      	ldr	r3, [pc, #420]	; (800337c <HAL_RCC_OscConfig+0x780>)
 80031d8:	f8d3 3098 	ldr.w	r3, [r3, #152]	; 0x98
 80031dc:	f043 0301 	orr.w	r3, r3, #1
 80031e0:	f8c2 3098 	str.w	r3, [r2, #152]	; 0x98

      /* Get Start Tick*/
      tickstart = HAL_GetTick();
 80031e4:	f7fe fbee 	bl	80019c4 <HAL_GetTick>
 80031e8:	62b8      	str	r0, [r7, #40]	; 0x28

      /* Wait till HSI48 is ready */
      while(READ_BIT(RCC->CRRCR, RCC_CRRCR_HSI48RDY) == RESET)
 80031ea:	e008      	b.n	80031fe <HAL_RCC_OscConfig+0x602>
      {
        if((HAL_GetTick() - tickstart) > HSI48_TIMEOUT_VALUE)
 80031ec:	f7fe fbea 	bl	80019c4 <HAL_GetTick>
 80031f0:	4602      	mov	r2, r0
 80031f2:	6abb      	ldr	r3, [r7, #40]	; 0x28
 80031f4:	1ad3      	subs	r3, r2, r3
 80031f6:	2b02      	cmp	r3, #2
 80031f8:	d901      	bls.n	80031fe <HAL_RCC_OscConfig+0x602>
        {
          return HAL_TIMEOUT;
 80031fa:	2303      	movs	r3, #3
 80031fc:	e0ba      	b.n	8003374 <HAL_RCC_OscConfig+0x778>
      while(READ_BIT(RCC->CRRCR, RCC_CRRCR_HSI48RDY) == RESET)
 80031fe:	4b5f      	ldr	r3, [pc, #380]	; (800337c <HAL_RCC_OscConfig+0x780>)
 8003200:	f8d3 3098 	ldr.w	r3, [r3, #152]	; 0x98
 8003204:	f003 0302 	and.w	r3, r3, #2
 8003208:	2b00      	cmp	r3, #0
 800320a:	d0ef      	beq.n	80031ec <HAL_RCC_OscConfig+0x5f0>
 800320c:	e01b      	b.n	8003246 <HAL_RCC_OscConfig+0x64a>
      }
    }
    else
    {
      /* Disable the Internal Low Speed oscillator (HSI48). */
      __HAL_RCC_HSI48_DISABLE();
 800320e:	4a5b      	ldr	r2, [pc, #364]	; (800337c <HAL_RCC_OscConfig+0x780>)
 8003210:	4b5a      	ldr	r3, [pc, #360]	; (800337c <HAL_RCC_OscConfig+0x780>)
 8003212:	f8d3 3098 	ldr.w	r3, [r3, #152]	; 0x98
 8003216:	f023 0301 	bic.w	r3, r3, #1
 800321a:	f8c2 3098 	str.w	r3, [r2, #152]	; 0x98

      /* Get Start Tick*/
      tickstart = HAL_GetTick();
 800321e:	f7fe fbd1 	bl	80019c4 <HAL_GetTick>
 8003222:	62b8      	str	r0, [r7, #40]	; 0x28

      /* Wait till HSI48 is disabled */
      while(READ_BIT(RCC->CRRCR, RCC_CRRCR_HSI48RDY) != RESET)
 8003224:	e008      	b.n	8003238 <HAL_RCC_OscConfig+0x63c>
      {
        if((HAL_GetTick() - tickstart) > HSI48_TIMEOUT_VALUE)
 8003226:	f7fe fbcd 	bl	80019c4 <HAL_GetTick>
 800322a:	4602      	mov	r2, r0
 800322c:	6abb      	ldr	r3, [r7, #40]	; 0x28
 800322e:	1ad3      	subs	r3, r2, r3
 8003230:	2b02      	cmp	r3, #2
 8003232:	d901      	bls.n	8003238 <HAL_RCC_OscConfig+0x63c>
        {
          return HAL_TIMEOUT;
 8003234:	2303      	movs	r3, #3
 8003236:	e09d      	b.n	8003374 <HAL_RCC_OscConfig+0x778>
      while(READ_BIT(RCC->CRRCR, RCC_CRRCR_HSI48RDY) != RESET)
 8003238:	4b50      	ldr	r3, [pc, #320]	; (800337c <HAL_RCC_OscConfig+0x780>)
 800323a:	f8d3 3098 	ldr.w	r3, [r3, #152]	; 0x98
 800323e:	f003 0302 	and.w	r3, r3, #2
 8003242:	2b00      	cmp	r3, #0
 8003244:	d1ef      	bne.n	8003226 <HAL_RCC_OscConfig+0x62a>
#endif /* RCC_HSI48_SUPPORT */
  /*-------------------------------- PLL Configuration -----------------------*/
  /* Check the parameters */
  assert_param(IS_RCC_PLL(RCC_OscInitStruct->PLL.PLLState));

  if(RCC_OscInitStruct->PLL.PLLState != RCC_PLL_NONE)
 8003246:	687b      	ldr	r3, [r7, #4]
 8003248:	6a9b      	ldr	r3, [r3, #40]	; 0x28
 800324a:	2b00      	cmp	r3, #0
 800324c:	f000 8091 	beq.w	8003372 <HAL_RCC_OscConfig+0x776>
  {
    /* Check if the PLL is used as system clock or not */
    if(__HAL_RCC_GET_SYSCLK_SOURCE() != RCC_CFGR_SWS_PLL)
 8003250:	4b4a      	ldr	r3, [pc, #296]	; (800337c <HAL_RCC_OscConfig+0x780>)
 8003252:	689b      	ldr	r3, [r3, #8]
 8003254:	f003 030c 	and.w	r3, r3, #12
 8003258:	2b0c      	cmp	r3, #12
 800325a:	f000 8088 	beq.w	800336e <HAL_RCC_OscConfig+0x772>
    {
      if(RCC_OscInitStruct->PLL.PLLState == RCC_PLL_ON)
 800325e:	687b      	ldr	r3, [r7, #4]
 8003260:	6a9b      	ldr	r3, [r3, #40]	; 0x28
 8003262:	2b02      	cmp	r3, #2
 8003264:	d155      	bne.n	8003312 <HAL_RCC_OscConfig+0x716>
        assert_param(IS_RCC_PLLP_VALUE(RCC_OscInitStruct->PLL.PLLP));
        assert_param(IS_RCC_PLLQ_VALUE(RCC_OscInitStruct->PLL.PLLQ));
        assert_param(IS_RCC_PLLR_VALUE(RCC_OscInitStruct->PLL.PLLR));

        /* Disable the main PLL. */
        __HAL_RCC_PLL_DISABLE();
 8003266:	4a45      	ldr	r2, [pc, #276]	; (800337c <HAL_RCC_OscConfig+0x780>)
 8003268:	4b44      	ldr	r3, [pc, #272]	; (800337c <HAL_RCC_OscConfig+0x780>)
 800326a:	681b      	ldr	r3, [r3, #0]
 800326c:	f023 7380 	bic.w	r3, r3, #16777216	; 0x1000000
 8003270:	6013      	str	r3, [r2, #0]

        /* Get Start Tick*/
        tickstart = HAL_GetTick();
 8003272:	f7fe fba7 	bl	80019c4 <HAL_GetTick>
 8003276:	62b8      	str	r0, [r7, #40]	; 0x28

        /* Wait till PLL is ready */
        while(READ_BIT(RCC->CR, RCC_CR_PLLRDY) != RESET)
 8003278:	e008      	b.n	800328c <HAL_RCC_OscConfig+0x690>
        {
          if((HAL_GetTick() - tickstart) > PLL_TIMEOUT_VALUE)
 800327a:	f7fe fba3 	bl	80019c4 <HAL_GetTick>
 800327e:	4602      	mov	r2, r0
 8003280:	6abb      	ldr	r3, [r7, #40]	; 0x28
 8003282:	1ad3      	subs	r3, r2, r3
 8003284:	2b02      	cmp	r3, #2
 8003286:	d901      	bls.n	800328c <HAL_RCC_OscConfig+0x690>
          {
            return HAL_TIMEOUT;
 8003288:	2303      	movs	r3, #3
 800328a:	e073      	b.n	8003374 <HAL_RCC_OscConfig+0x778>
        while(READ_BIT(RCC->CR, RCC_CR_PLLRDY) != RESET)
 800328c:	4b3b      	ldr	r3, [pc, #236]	; (800337c <HAL_RCC_OscConfig+0x780>)
 800328e:	681b      	ldr	r3, [r3, #0]
 8003290:	f003 7300 	and.w	r3, r3, #33554432	; 0x2000000
 8003294:	2b00      	cmp	r3, #0
 8003296:	d1f0      	bne.n	800327a <HAL_RCC_OscConfig+0x67e>
          }
        }

        /* Configure the main PLL clock source, multiplication and division factors. */
        __HAL_RCC_PLL_CONFIG(RCC_OscInitStruct->PLL.PLLSource,
 8003298:	4938      	ldr	r1, [pc, #224]	; (800337c <HAL_RCC_OscConfig+0x780>)
 800329a:	687b      	ldr	r3, [r7, #4]
 800329c:	6b1b      	ldr	r3, [r3, #48]	; 0x30
 800329e:	3b01      	subs	r3, #1
 80032a0:	011a      	lsls	r2, r3, #4
 80032a2:	687b      	ldr	r3, [r7, #4]
 80032a4:	6b5b      	ldr	r3, [r3, #52]	; 0x34
 80032a6:	021b      	lsls	r3, r3, #8
 80032a8:	431a      	orrs	r2, r3
 80032aa:	687b      	ldr	r3, [r7, #4]
 80032ac:	6adb      	ldr	r3, [r3, #44]	; 0x2c
 80032ae:	431a      	orrs	r2, r3
 80032b0:	687b      	ldr	r3, [r7, #4]
 80032b2:	6bdb      	ldr	r3, [r3, #60]	; 0x3c
 80032b4:	085b      	lsrs	r3, r3, #1
 80032b6:	3b01      	subs	r3, #1
 80032b8:	055b      	lsls	r3, r3, #21
 80032ba:	431a      	orrs	r2, r3
 80032bc:	687b      	ldr	r3, [r7, #4]
 80032be:	6c1b      	ldr	r3, [r3, #64]	; 0x40
 80032c0:	085b      	lsrs	r3, r3, #1
 80032c2:	3b01      	subs	r3, #1
 80032c4:	065b      	lsls	r3, r3, #25
 80032c6:	431a      	orrs	r2, r3
 80032c8:	687b      	ldr	r3, [r7, #4]
 80032ca:	6b9b      	ldr	r3, [r3, #56]	; 0x38
 80032cc:	06db      	lsls	r3, r3, #27
 80032ce:	4313      	orrs	r3, r2
 80032d0:	60cb      	str	r3, [r1, #12]
                             RCC_OscInitStruct->PLL.PLLP,
                             RCC_OscInitStruct->PLL.PLLQ,
                             RCC_OscInitStruct->PLL.PLLR);

        /* Enable the main PLL. */
        __HAL_RCC_PLL_ENABLE();
 80032d2:	4a2a      	ldr	r2, [pc, #168]	; (800337c <HAL_RCC_OscConfig+0x780>)
 80032d4:	4b29      	ldr	r3, [pc, #164]	; (800337c <HAL_RCC_OscConfig+0x780>)
 80032d6:	681b      	ldr	r3, [r3, #0]
 80032d8:	f043 7380 	orr.w	r3, r3, #16777216	; 0x1000000
 80032dc:	6013      	str	r3, [r2, #0]

        /* Enable PLL System Clock output. */
         __HAL_RCC_PLLCLKOUT_ENABLE(RCC_PLL_SYSCLK);
 80032de:	4a27      	ldr	r2, [pc, #156]	; (800337c <HAL_RCC_OscConfig+0x780>)
 80032e0:	4b26      	ldr	r3, [pc, #152]	; (800337c <HAL_RCC_OscConfig+0x780>)
 80032e2:	68db      	ldr	r3, [r3, #12]
 80032e4:	f043 7380 	orr.w	r3, r3, #16777216	; 0x1000000
 80032e8:	60d3      	str	r3, [r2, #12]

        /* Get Start Tick*/
        tickstart = HAL_GetTick();
 80032ea:	f7fe fb6b 	bl	80019c4 <HAL_GetTick>
 80032ee:	62b8      	str	r0, [r7, #40]	; 0x28

        /* Wait till PLL is ready */
        while(READ_BIT(RCC->CR, RCC_CR_PLLRDY) == RESET)
 80032f0:	e008      	b.n	8003304 <HAL_RCC_OscConfig+0x708>
        {
          if((HAL_GetTick() - tickstart) > PLL_TIMEOUT_VALUE)
 80032f2:	f7fe fb67 	bl	80019c4 <HAL_GetTick>
 80032f6:	4602      	mov	r2, r0
 80032f8:	6abb      	ldr	r3, [r7, #40]	; 0x28
 80032fa:	1ad3      	subs	r3, r2, r3
 80032fc:	2b02      	cmp	r3, #2
 80032fe:	d901      	bls.n	8003304 <HAL_RCC_OscConfig+0x708>
          {
            return HAL_TIMEOUT;
 8003300:	2303      	movs	r3, #3
 8003302:	e037      	b.n	8003374 <HAL_RCC_OscConfig+0x778>
        while(READ_BIT(RCC->CR, RCC_CR_PLLRDY) == RESET)
 8003304:	4b1d      	ldr	r3, [pc, #116]	; (800337c <HAL_RCC_OscConfig+0x780>)
 8003306:	681b      	ldr	r3, [r3, #0]
 8003308:	f003 7300 	and.w	r3, r3, #33554432	; 0x2000000
 800330c:	2b00      	cmp	r3, #0
 800330e:	d0f0      	beq.n	80032f2 <HAL_RCC_OscConfig+0x6f6>
 8003310:	e02f      	b.n	8003372 <HAL_RCC_OscConfig+0x776>
        }
      }
      else
      {
        /* Disable the main PLL. */
        __HAL_RCC_PLL_DISABLE();
 8003312:	4a1a      	ldr	r2, [pc, #104]	; (800337c <HAL_RCC_OscConfig+0x780>)
 8003314:	4b19      	ldr	r3, [pc, #100]	; (800337c <HAL_RCC_OscConfig+0x780>)
 8003316:	681b      	ldr	r3, [r3, #0]
 8003318:	f023 7380 	bic.w	r3, r3, #16777216	; 0x1000000
 800331c:	6013      	str	r3, [r2, #0]

        /* Disable all PLL outputs to save power if no PLLs on */
        if((READ_BIT(RCC->CR, RCC_CR_PLLSAI1RDY) == RESET)
 800331e:	4b17      	ldr	r3, [pc, #92]	; (800337c <HAL_RCC_OscConfig+0x780>)
 8003320:	681b      	ldr	r3, [r3, #0]
 8003322:	f003 6300 	and.w	r3, r3, #134217728	; 0x8000000
 8003326:	2b00      	cmp	r3, #0
 8003328:	d105      	bne.n	8003336 <HAL_RCC_OscConfig+0x73a>
           && 
           (READ_BIT(RCC->CR, RCC_CR_PLLSAI2RDY) == RESET)
#endif /* RCC_PLLSAI2_SUPPORT */
          )
        {  
          MODIFY_REG(RCC->PLLCFGR, RCC_PLLCFGR_PLLSRC, RCC_PLLSOURCE_NONE);
 800332a:	4a14      	ldr	r2, [pc, #80]	; (800337c <HAL_RCC_OscConfig+0x780>)
 800332c:	4b13      	ldr	r3, [pc, #76]	; (800337c <HAL_RCC_OscConfig+0x780>)
 800332e:	68db      	ldr	r3, [r3, #12]
 8003330:	f023 0303 	bic.w	r3, r3, #3
 8003334:	60d3      	str	r3, [r2, #12]
        }
        
#if defined(RCC_PLLSAI2_SUPPORT)
        __HAL_RCC_PLLCLKOUT_DISABLE(RCC_PLL_SYSCLK | RCC_PLL_48M1CLK | RCC_PLL_SAI3CLK);
#else
        __HAL_RCC_PLLCLKOUT_DISABLE(RCC_PLL_SYSCLK | RCC_PLL_48M1CLK | RCC_PLL_SAI2CLK);
 8003336:	4a11      	ldr	r2, [pc, #68]	; (800337c <HAL_RCC_OscConfig+0x780>)
 8003338:	4b10      	ldr	r3, [pc, #64]	; (800337c <HAL_RCC_OscConfig+0x780>)
 800333a:	68db      	ldr	r3, [r3, #12]
 800333c:	f023 7388 	bic.w	r3, r3, #17825792	; 0x1100000
 8003340:	f423 3380 	bic.w	r3, r3, #65536	; 0x10000
 8003344:	60d3      	str	r3, [r2, #12]
#endif /* RCC_PLLSAI2_SUPPORT */

        /* Get Start Tick*/
        tickstart = HAL_GetTick();
 8003346:	f7fe fb3d 	bl	80019c4 <HAL_GetTick>
 800334a:	62b8      	str	r0, [r7, #40]	; 0x28

        /* Wait till PLL is disabled */
        while(READ_BIT(RCC->CR, RCC_CR_PLLRDY) != RESET)
 800334c:	e008      	b.n	8003360 <HAL_RCC_OscConfig+0x764>
        {
          if((HAL_GetTick() - tickstart) > PLL_TIMEOUT_VALUE)
 800334e:	f7fe fb39 	bl	80019c4 <HAL_GetTick>
 8003352:	4602      	mov	r2, r0
 8003354:	6abb      	ldr	r3, [r7, #40]	; 0x28
 8003356:	1ad3      	subs	r3, r2, r3
 8003358:	2b02      	cmp	r3, #2
 800335a:	d901      	bls.n	8003360 <HAL_RCC_OscConfig+0x764>
          {
            return HAL_TIMEOUT;
 800335c:	2303      	movs	r3, #3
 800335e:	e009      	b.n	8003374 <HAL_RCC_OscConfig+0x778>
        while(READ_BIT(RCC->CR, RCC_CR_PLLRDY) != RESET)
 8003360:	4b06      	ldr	r3, [pc, #24]	; (800337c <HAL_RCC_OscConfig+0x780>)
 8003362:	681b      	ldr	r3, [r3, #0]
 8003364:	f003 7300 	and.w	r3, r3, #33554432	; 0x2000000
 8003368:	2b00      	cmp	r3, #0
 800336a:	d1f0      	bne.n	800334e <HAL_RCC_OscConfig+0x752>
 800336c:	e001      	b.n	8003372 <HAL_RCC_OscConfig+0x776>
        }
      }
    }
    else
    {
      return HAL_ERROR;
 800336e:	2301      	movs	r3, #1
 8003370:	e000      	b.n	8003374 <HAL_RCC_OscConfig+0x778>
    }
  }
  return HAL_OK;
 8003372:	2300      	movs	r3, #0
}
 8003374:	4618      	mov	r0, r3
 8003376:	3730      	adds	r7, #48	; 0x30
 8003378:	46bd      	mov	sp, r7
 800337a:	bd80      	pop	{r7, pc}
 800337c:	40021000 	.word	0x40021000

08003380 <HAL_RCC_ClockConfig>:
  *         HPRE[3:0] bits to ensure that HCLK not exceed the maximum allowed frequency
  *         (for more details refer to section above "Initialization/de-initialization functions")
  * @retval None
  */
HAL_StatusTypeDef HAL_RCC_ClockConfig(RCC_ClkInitTypeDef  *RCC_ClkInitStruct, uint32_t FLatency)
{
 8003380:	b580      	push	{r7, lr}
 8003382:	b086      	sub	sp, #24
 8003384:	af00      	add	r7, sp, #0
 8003386:	6078      	str	r0, [r7, #4]
 8003388:	6039      	str	r1, [r7, #0]
  uint32_t tickstart = 0;
 800338a:	2300      	movs	r3, #0
 800338c:	617b      	str	r3, [r7, #20]
  /* To correctly read data from FLASH memory, the number of wait states (LATENCY)
    must be correctly programmed according to the frequency of the CPU clock
    (HCLK) and the supply voltage of the device. */

  /* Increasing the number of wait states because of higher CPU frequency */
  if(FLatency > (FLASH->ACR & FLASH_ACR_LATENCY))
 800338e:	4b89      	ldr	r3, [pc, #548]	; (80035b4 <HAL_RCC_ClockConfig+0x234>)
 8003390:	681b      	ldr	r3, [r3, #0]
 8003392:	f003 0207 	and.w	r2, r3, #7
 8003396:	683b      	ldr	r3, [r7, #0]
 8003398:	429a      	cmp	r2, r3
 800339a:	d210      	bcs.n	80033be <HAL_RCC_ClockConfig+0x3e>
  {
    /* Program the new number of wait states to the LATENCY bits in the FLASH_ACR register */
    __HAL_FLASH_SET_LATENCY(FLatency);
 800339c:	4985      	ldr	r1, [pc, #532]	; (80035b4 <HAL_RCC_ClockConfig+0x234>)
 800339e:	4b85      	ldr	r3, [pc, #532]	; (80035b4 <HAL_RCC_ClockConfig+0x234>)
 80033a0:	681b      	ldr	r3, [r3, #0]
 80033a2:	f023 0207 	bic.w	r2, r3, #7
 80033a6:	683b      	ldr	r3, [r7, #0]
 80033a8:	4313      	orrs	r3, r2
 80033aa:	600b      	str	r3, [r1, #0]

    /* Check that the new number of wait states is taken into account to access the Flash
    memory by reading the FLASH_ACR register */
    if((FLASH->ACR & FLASH_ACR_LATENCY) != FLatency)
 80033ac:	4b81      	ldr	r3, [pc, #516]	; (80035b4 <HAL_RCC_ClockConfig+0x234>)
 80033ae:	681b      	ldr	r3, [r3, #0]
 80033b0:	f003 0207 	and.w	r2, r3, #7
 80033b4:	683b      	ldr	r3, [r7, #0]
 80033b6:	429a      	cmp	r2, r3
 80033b8:	d001      	beq.n	80033be <HAL_RCC_ClockConfig+0x3e>
    {
      return HAL_ERROR;
 80033ba:	2301      	movs	r3, #1
 80033bc:	e0f6      	b.n	80035ac <HAL_RCC_ClockConfig+0x22c>
    }
  }

  /*-------------------------- HCLK Configuration --------------------------*/
  if(((RCC_ClkInitStruct->ClockType) & RCC_CLOCKTYPE_HCLK) == RCC_CLOCKTYPE_HCLK)
 80033be:	687b      	ldr	r3, [r7, #4]
 80033c0:	681b      	ldr	r3, [r3, #0]
 80033c2:	f003 0302 	and.w	r3, r3, #2
 80033c6:	2b00      	cmp	r3, #0
 80033c8:	d008      	beq.n	80033dc <HAL_RCC_ClockConfig+0x5c>
  {
    assert_param(IS_RCC_HCLK(RCC_ClkInitStruct->AHBCLKDivider));
    MODIFY_REG(RCC->CFGR, RCC_CFGR_HPRE, RCC_ClkInitStruct->AHBCLKDivider);
 80033ca:	497b      	ldr	r1, [pc, #492]	; (80035b8 <HAL_RCC_ClockConfig+0x238>)
 80033cc:	4b7a      	ldr	r3, [pc, #488]	; (80035b8 <HAL_RCC_ClockConfig+0x238>)
 80033ce:	689b      	ldr	r3, [r3, #8]
 80033d0:	f023 02f0 	bic.w	r2, r3, #240	; 0xf0
 80033d4:	687b      	ldr	r3, [r7, #4]
 80033d6:	689b      	ldr	r3, [r3, #8]
 80033d8:	4313      	orrs	r3, r2
 80033da:	608b      	str	r3, [r1, #8]
  }

  /*------------------------- SYSCLK Configuration ---------------------------*/
  if(((RCC_ClkInitStruct->ClockType) & RCC_CLOCKTYPE_SYSCLK) == RCC_CLOCKTYPE_SYSCLK)
 80033dc:	687b      	ldr	r3, [r7, #4]
 80033de:	681b      	ldr	r3, [r3, #0]
 80033e0:	f003 0301 	and.w	r3, r3, #1
 80033e4:	2b00      	cmp	r3, #0
 80033e6:	f000 808e 	beq.w	8003506 <HAL_RCC_ClockConfig+0x186>
  {
    assert_param(IS_RCC_SYSCLKSOURCE(RCC_ClkInitStruct->SYSCLKSource));

    /* HSE is selected as System Clock Source */
    if(RCC_ClkInitStruct->SYSCLKSource == RCC_SYSCLKSOURCE_HSE)
 80033ea:	687b      	ldr	r3, [r7, #4]
 80033ec:	685b      	ldr	r3, [r3, #4]
 80033ee:	2b02      	cmp	r3, #2
 80033f0:	d107      	bne.n	8003402 <HAL_RCC_ClockConfig+0x82>
    {
      /* Check the HSE ready flag */
      if(READ_BIT(RCC->CR, RCC_CR_HSERDY) == RESET)
 80033f2:	4b71      	ldr	r3, [pc, #452]	; (80035b8 <HAL_RCC_ClockConfig+0x238>)
 80033f4:	681b      	ldr	r3, [r3, #0]
 80033f6:	f403 3300 	and.w	r3, r3, #131072	; 0x20000
 80033fa:	2b00      	cmp	r3, #0
 80033fc:	d121      	bne.n	8003442 <HAL_RCC_ClockConfig+0xc2>
      {
        return HAL_ERROR;
 80033fe:	2301      	movs	r3, #1
 8003400:	e0d4      	b.n	80035ac <HAL_RCC_ClockConfig+0x22c>
      }
    }
    /* PLL is selected as System Clock Source */
    else if(RCC_ClkInitStruct->SYSCLKSource == RCC_SYSCLKSOURCE_PLLCLK)
 8003402:	687b      	ldr	r3, [r7, #4]
 8003404:	685b      	ldr	r3, [r3, #4]
 8003406:	2b03      	cmp	r3, #3
 8003408:	d107      	bne.n	800341a <HAL_RCC_ClockConfig+0x9a>
    {
      /* Check the PLL ready flag */
      if(READ_BIT(RCC->CR, RCC_CR_PLLRDY) == RESET)
 800340a:	4b6b      	ldr	r3, [pc, #428]	; (80035b8 <HAL_RCC_ClockConfig+0x238>)
 800340c:	681b      	ldr	r3, [r3, #0]
 800340e:	f003 7300 	and.w	r3, r3, #33554432	; 0x2000000
 8003412:	2b00      	cmp	r3, #0
 8003414:	d115      	bne.n	8003442 <HAL_RCC_ClockConfig+0xc2>
      {
        return HAL_ERROR;
 8003416:	2301      	movs	r3, #1
 8003418:	e0c8      	b.n	80035ac <HAL_RCC_ClockConfig+0x22c>
      }
    }
    /* MSI is selected as System Clock Source */
    else if(RCC_ClkInitStruct->SYSCLKSource == RCC_SYSCLKSOURCE_MSI)
 800341a:	687b      	ldr	r3, [r7, #4]
 800341c:	685b      	ldr	r3, [r3, #4]
 800341e:	2b00      	cmp	r3, #0
 8003420:	d107      	bne.n	8003432 <HAL_RCC_ClockConfig+0xb2>
    {
      /* Check the MSI ready flag */
      if(READ_BIT(RCC->CR, RCC_CR_MSIRDY) == RESET)
 8003422:	4b65      	ldr	r3, [pc, #404]	; (80035b8 <HAL_RCC_ClockConfig+0x238>)
 8003424:	681b      	ldr	r3, [r3, #0]
 8003426:	f003 0302 	and.w	r3, r3, #2
 800342a:	2b00      	cmp	r3, #0
 800342c:	d109      	bne.n	8003442 <HAL_RCC_ClockConfig+0xc2>
      {
        return HAL_ERROR;
 800342e:	2301      	movs	r3, #1
 8003430:	e0bc      	b.n	80035ac <HAL_RCC_ClockConfig+0x22c>
    }
    /* HSI is selected as System Clock Source */
    else
    {
      /* Check the HSI ready flag */
      if(READ_BIT(RCC->CR, RCC_CR_HSIRDY) == RESET)
 8003432:	4b61      	ldr	r3, [pc, #388]	; (80035b8 <HAL_RCC_ClockConfig+0x238>)
 8003434:	681b      	ldr	r3, [r3, #0]
 8003436:	f403 6380 	and.w	r3, r3, #1024	; 0x400
 800343a:	2b00      	cmp	r3, #0
 800343c:	d101      	bne.n	8003442 <HAL_RCC_ClockConfig+0xc2>
      {
        return HAL_ERROR;
 800343e:	2301      	movs	r3, #1
 8003440:	e0b4      	b.n	80035ac <HAL_RCC_ClockConfig+0x22c>
      }
    }
    MODIFY_REG(RCC->CFGR, RCC_CFGR_SW, RCC_ClkInitStruct->SYSCLKSource);
 8003442:	495d      	ldr	r1, [pc, #372]	; (80035b8 <HAL_RCC_ClockConfig+0x238>)
 8003444:	4b5c      	ldr	r3, [pc, #368]	; (80035b8 <HAL_RCC_ClockConfig+0x238>)
 8003446:	689b      	ldr	r3, [r3, #8]
 8003448:	f023 0203 	bic.w	r2, r3, #3
 800344c:	687b      	ldr	r3, [r7, #4]
 800344e:	685b      	ldr	r3, [r3, #4]
 8003450:	4313      	orrs	r3, r2
 8003452:	608b      	str	r3, [r1, #8]

    /* Get Start Tick*/
    tickstart = HAL_GetTick();
 8003454:	f7fe fab6 	bl	80019c4 <HAL_GetTick>
 8003458:	6178      	str	r0, [r7, #20]

    if(RCC_ClkInitStruct->SYSCLKSource == RCC_SYSCLKSOURCE_HSE)
 800345a:	687b      	ldr	r3, [r7, #4]
 800345c:	685b      	ldr	r3, [r3, #4]
 800345e:	2b02      	cmp	r3, #2
 8003460:	d112      	bne.n	8003488 <HAL_RCC_ClockConfig+0x108>
    {
      while (__HAL_RCC_GET_SYSCLK_SOURCE() != RCC_CFGR_SWS_HSE)
 8003462:	e00a      	b.n	800347a <HAL_RCC_ClockConfig+0xfa>
      {
        if((HAL_GetTick() - tickstart) > CLOCKSWITCH_TIMEOUT_VALUE)
 8003464:	f7fe faae 	bl	80019c4 <HAL_GetTick>
 8003468:	4602      	mov	r2, r0
 800346a:	697b      	ldr	r3, [r7, #20]
 800346c:	1ad3      	subs	r3, r2, r3
 800346e:	f241 3288 	movw	r2, #5000	; 0x1388
 8003472:	4293      	cmp	r3, r2
 8003474:	d901      	bls.n	800347a <HAL_RCC_ClockConfig+0xfa>
        {
          return HAL_TIMEOUT;
 8003476:	2303      	movs	r3, #3
 8003478:	e098      	b.n	80035ac <HAL_RCC_ClockConfig+0x22c>
      while (__HAL_RCC_GET_SYSCLK_SOURCE() != RCC_CFGR_SWS_HSE)
 800347a:	4b4f      	ldr	r3, [pc, #316]	; (80035b8 <HAL_RCC_ClockConfig+0x238>)
 800347c:	689b      	ldr	r3, [r3, #8]
 800347e:	f003 030c 	and.w	r3, r3, #12
 8003482:	2b08      	cmp	r3, #8
 8003484:	d1ee      	bne.n	8003464 <HAL_RCC_ClockConfig+0xe4>
 8003486:	e03e      	b.n	8003506 <HAL_RCC_ClockConfig+0x186>
        }
      }
    }
    else if(RCC_ClkInitStruct->SYSCLKSource == RCC_SYSCLKSOURCE_PLLCLK)
 8003488:	687b      	ldr	r3, [r7, #4]
 800348a:	685b      	ldr	r3, [r3, #4]
 800348c:	2b03      	cmp	r3, #3
 800348e:	d112      	bne.n	80034b6 <HAL_RCC_ClockConfig+0x136>
    {
      while (__HAL_RCC_GET_SYSCLK_SOURCE() != RCC_CFGR_SWS_PLL)
 8003490:	e00a      	b.n	80034a8 <HAL_RCC_ClockConfig+0x128>
      {
        if((HAL_GetTick() - tickstart) > CLOCKSWITCH_TIMEOUT_VALUE)
 8003492:	f7fe fa97 	bl	80019c4 <HAL_GetTick>
 8003496:	4602      	mov	r2, r0
 8003498:	697b      	ldr	r3, [r7, #20]
 800349a:	1ad3      	subs	r3, r2, r3
 800349c:	f241 3288 	movw	r2, #5000	; 0x1388
 80034a0:	4293      	cmp	r3, r2
 80034a2:	d901      	bls.n	80034a8 <HAL_RCC_ClockConfig+0x128>
        {
          return HAL_TIMEOUT;
 80034a4:	2303      	movs	r3, #3
 80034a6:	e081      	b.n	80035ac <HAL_RCC_ClockConfig+0x22c>
      while (__HAL_RCC_GET_SYSCLK_SOURCE() != RCC_CFGR_SWS_PLL)
 80034a8:	4b43      	ldr	r3, [pc, #268]	; (80035b8 <HAL_RCC_ClockConfig+0x238>)
 80034aa:	689b      	ldr	r3, [r3, #8]
 80034ac:	f003 030c 	and.w	r3, r3, #12
 80034b0:	2b0c      	cmp	r3, #12
 80034b2:	d1ee      	bne.n	8003492 <HAL_RCC_ClockConfig+0x112>
 80034b4:	e027      	b.n	8003506 <HAL_RCC_ClockConfig+0x186>
        }
      }
    }
    else if(RCC_ClkInitStruct->SYSCLKSource == RCC_SYSCLKSOURCE_MSI)
 80034b6:	687b      	ldr	r3, [r7, #4]
 80034b8:	685b      	ldr	r3, [r3, #4]
 80034ba:	2b00      	cmp	r3, #0
 80034bc:	d11d      	bne.n	80034fa <HAL_RCC_ClockConfig+0x17a>
    {
      while (__HAL_RCC_GET_SYSCLK_SOURCE() != RCC_CFGR_SWS_MSI)
 80034be:	e00a      	b.n	80034d6 <HAL_RCC_ClockConfig+0x156>
      {
        if((HAL_GetTick() - tickstart) > CLOCKSWITCH_TIMEOUT_VALUE)
 80034c0:	f7fe fa80 	bl	80019c4 <HAL_GetTick>
 80034c4:	4602      	mov	r2, r0
 80034c6:	697b      	ldr	r3, [r7, #20]
 80034c8:	1ad3      	subs	r3, r2, r3
 80034ca:	f241 3288 	movw	r2, #5000	; 0x1388
 80034ce:	4293      	cmp	r3, r2
 80034d0:	d901      	bls.n	80034d6 <HAL_RCC_ClockConfig+0x156>
        {
          return HAL_TIMEOUT;
 80034d2:	2303      	movs	r3, #3
 80034d4:	e06a      	b.n	80035ac <HAL_RCC_ClockConfig+0x22c>
      while (__HAL_RCC_GET_SYSCLK_SOURCE() != RCC_CFGR_SWS_MSI)
 80034d6:	4b38      	ldr	r3, [pc, #224]	; (80035b8 <HAL_RCC_ClockConfig+0x238>)
 80034d8:	689b      	ldr	r3, [r3, #8]
 80034da:	f003 030c 	and.w	r3, r3, #12
 80034de:	2b00      	cmp	r3, #0
 80034e0:	d1ee      	bne.n	80034c0 <HAL_RCC_ClockConfig+0x140>
 80034e2:	e010      	b.n	8003506 <HAL_RCC_ClockConfig+0x186>
    }
    else
    {
      while(__HAL_RCC_GET_SYSCLK_SOURCE() != RCC_CFGR_SWS_HSI)
      {
        if((HAL_GetTick() - tickstart) > CLOCKSWITCH_TIMEOUT_VALUE)
 80034e4:	f7fe fa6e 	bl	80019c4 <HAL_GetTick>
 80034e8:	4602      	mov	r2, r0
 80034ea:	697b      	ldr	r3, [r7, #20]
 80034ec:	1ad3      	subs	r3, r2, r3
 80034ee:	f241 3288 	movw	r2, #5000	; 0x1388
 80034f2:	4293      	cmp	r3, r2
 80034f4:	d901      	bls.n	80034fa <HAL_RCC_ClockConfig+0x17a>
        {
          return HAL_TIMEOUT;
 80034f6:	2303      	movs	r3, #3
 80034f8:	e058      	b.n	80035ac <HAL_RCC_ClockConfig+0x22c>
      while(__HAL_RCC_GET_SYSCLK_SOURCE() != RCC_CFGR_SWS_HSI)
 80034fa:	4b2f      	ldr	r3, [pc, #188]	; (80035b8 <HAL_RCC_ClockConfig+0x238>)
 80034fc:	689b      	ldr	r3, [r3, #8]
 80034fe:	f003 030c 	and.w	r3, r3, #12
 8003502:	2b04      	cmp	r3, #4
 8003504:	d1ee      	bne.n	80034e4 <HAL_RCC_ClockConfig+0x164>
      }
    }
  }
  
  /* Decreasing the number of wait states because of lower CPU frequency */
  if(FLatency < (FLASH->ACR & FLASH_ACR_LATENCY))
 8003506:	4b2b      	ldr	r3, [pc, #172]	; (80035b4 <HAL_RCC_ClockConfig+0x234>)
 8003508:	681b      	ldr	r3, [r3, #0]
 800350a:	f003 0207 	and.w	r2, r3, #7
 800350e:	683b      	ldr	r3, [r7, #0]
 8003510:	429a      	cmp	r2, r3
 8003512:	d910      	bls.n	8003536 <HAL_RCC_ClockConfig+0x1b6>
  {
    /* Program the new number of wait states to the LATENCY bits in the FLASH_ACR register */
    __HAL_FLASH_SET_LATENCY(FLatency);
 8003514:	4927      	ldr	r1, [pc, #156]	; (80035b4 <HAL_RCC_ClockConfig+0x234>)
 8003516:	4b27      	ldr	r3, [pc, #156]	; (80035b4 <HAL_RCC_ClockConfig+0x234>)
 8003518:	681b      	ldr	r3, [r3, #0]
 800351a:	f023 0207 	bic.w	r2, r3, #7
 800351e:	683b      	ldr	r3, [r7, #0]
 8003520:	4313      	orrs	r3, r2
 8003522:	600b      	str	r3, [r1, #0]

    /* Check that the new number of wait states is taken into account to access the Flash
    memory by reading the FLASH_ACR register */
    if((FLASH->ACR & FLASH_ACR_LATENCY) != FLatency)
 8003524:	4b23      	ldr	r3, [pc, #140]	; (80035b4 <HAL_RCC_ClockConfig+0x234>)
 8003526:	681b      	ldr	r3, [r3, #0]
 8003528:	f003 0207 	and.w	r2, r3, #7
 800352c:	683b      	ldr	r3, [r7, #0]
 800352e:	429a      	cmp	r2, r3
 8003530:	d001      	beq.n	8003536 <HAL_RCC_ClockConfig+0x1b6>
    {
      return HAL_ERROR;
 8003532:	2301      	movs	r3, #1
 8003534:	e03a      	b.n	80035ac <HAL_RCC_ClockConfig+0x22c>
    }
  }
  
  /*-------------------------- PCLK1 Configuration ---------------------------*/
  if(((RCC_ClkInitStruct->ClockType) & RCC_CLOCKTYPE_PCLK1) == RCC_CLOCKTYPE_PCLK1)
 8003536:	687b      	ldr	r3, [r7, #4]
 8003538:	681b      	ldr	r3, [r3, #0]
 800353a:	f003 0304 	and.w	r3, r3, #4
 800353e:	2b00      	cmp	r3, #0
 8003540:	d008      	beq.n	8003554 <HAL_RCC_ClockConfig+0x1d4>
  {
    assert_param(IS_RCC_PCLK(RCC_ClkInitStruct->APB1CLKDivider));
    MODIFY_REG(RCC->CFGR, RCC_CFGR_PPRE1, RCC_ClkInitStruct->APB1CLKDivider);
 8003542:	491d      	ldr	r1, [pc, #116]	; (80035b8 <HAL_RCC_ClockConfig+0x238>)
 8003544:	4b1c      	ldr	r3, [pc, #112]	; (80035b8 <HAL_RCC_ClockConfig+0x238>)
 8003546:	689b      	ldr	r3, [r3, #8]
 8003548:	f423 62e0 	bic.w	r2, r3, #1792	; 0x700
 800354c:	687b      	ldr	r3, [r7, #4]
 800354e:	68db      	ldr	r3, [r3, #12]
 8003550:	4313      	orrs	r3, r2
 8003552:	608b      	str	r3, [r1, #8]
  }

  /*-------------------------- PCLK2 Configuration ---------------------------*/
  if(((RCC_ClkInitStruct->ClockType) & RCC_CLOCKTYPE_PCLK2) == RCC_CLOCKTYPE_PCLK2)
 8003554:	687b      	ldr	r3, [r7, #4]
 8003556:	681b      	ldr	r3, [r3, #0]
 8003558:	f003 0308 	and.w	r3, r3, #8
 800355c:	2b00      	cmp	r3, #0
 800355e:	d009      	beq.n	8003574 <HAL_RCC_ClockConfig+0x1f4>
  {
    assert_param(IS_RCC_PCLK(RCC_ClkInitStruct->APB2CLKDivider));
    MODIFY_REG(RCC->CFGR, RCC_CFGR_PPRE2, ((RCC_ClkInitStruct->APB2CLKDivider) << 3U));
 8003560:	4915      	ldr	r1, [pc, #84]	; (80035b8 <HAL_RCC_ClockConfig+0x238>)
 8003562:	4b15      	ldr	r3, [pc, #84]	; (80035b8 <HAL_RCC_ClockConfig+0x238>)
 8003564:	689b      	ldr	r3, [r3, #8]
 8003566:	f423 5260 	bic.w	r2, r3, #14336	; 0x3800
 800356a:	687b      	ldr	r3, [r7, #4]
 800356c:	691b      	ldr	r3, [r3, #16]
 800356e:	00db      	lsls	r3, r3, #3
 8003570:	4313      	orrs	r3, r2
 8003572:	608b      	str	r3, [r1, #8]
  }

  /* Update the SystemCoreClock global variable */
  SystemCoreClock = HAL_RCC_GetSysClockFreq() >> AHBPrescTable[(RCC->CFGR & RCC_CFGR_HPRE)>> POSITION_VAL(RCC_CFGR_HPRE)];
 8003574:	f000 f826 	bl	80035c4 <HAL_RCC_GetSysClockFreq>
 8003578:	4601      	mov	r1, r0
 800357a:	4b0f      	ldr	r3, [pc, #60]	; (80035b8 <HAL_RCC_ClockConfig+0x238>)
 800357c:	689b      	ldr	r3, [r3, #8]
 800357e:	f003 02f0 	and.w	r2, r3, #240	; 0xf0
 8003582:	23f0      	movs	r3, #240	; 0xf0
 8003584:	613b      	str	r3, [r7, #16]
   __ASM volatile ("rbit %0, %1" : "=r" (result) : "r" (value) );
 8003586:	693b      	ldr	r3, [r7, #16]
 8003588:	fa93 f3a3 	rbit	r3, r3
 800358c:	60fb      	str	r3, [r7, #12]
  return(result);
 800358e:	68fb      	ldr	r3, [r7, #12]
 8003590:	fab3 f383 	clz	r3, r3
 8003594:	fa22 f303 	lsr.w	r3, r2, r3
 8003598:	4a08      	ldr	r2, [pc, #32]	; (80035bc <HAL_RCC_ClockConfig+0x23c>)
 800359a:	5cd3      	ldrb	r3, [r2, r3]
 800359c:	fa21 f303 	lsr.w	r3, r1, r3
 80035a0:	4a07      	ldr	r2, [pc, #28]	; (80035c0 <HAL_RCC_ClockConfig+0x240>)
 80035a2:	6013      	str	r3, [r2, #0]

  /* Configure the source of time base considering new system clocks settings*/
  HAL_InitTick (TICK_INT_PRIORITY);
 80035a4:	2000      	movs	r0, #0
 80035a6:	f7fe f9e3 	bl	8001970 <HAL_InitTick>

  return HAL_OK;
 80035aa:	2300      	movs	r3, #0
}
 80035ac:	4618      	mov	r0, r3
 80035ae:	3718      	adds	r7, #24
 80035b0:	46bd      	mov	sp, r7
 80035b2:	bd80      	pop	{r7, pc}
 80035b4:	40022000 	.word	0x40022000
 80035b8:	40021000 	.word	0x40021000
 80035bc:	0800834c 	.word	0x0800834c
 80035c0:	20000044 	.word	0x20000044

080035c4 <HAL_RCC_GetSysClockFreq>:
  *
  *
  * @retval SYSCLK frequency
  */
uint32_t HAL_RCC_GetSysClockFreq(void)
{
 80035c4:	b480      	push	{r7}
 80035c6:	b095      	sub	sp, #84	; 0x54
 80035c8:	af00      	add	r7, sp, #0
  uint32_t msirange = 0U, pllvco = 0U, pllsource = 0U, pllr = 2U, pllm = 2U;
 80035ca:	2300      	movs	r3, #0
 80035cc:	64fb      	str	r3, [r7, #76]	; 0x4c
 80035ce:	2300      	movs	r3, #0
 80035d0:	64bb      	str	r3, [r7, #72]	; 0x48
 80035d2:	2300      	movs	r3, #0
 80035d4:	643b      	str	r3, [r7, #64]	; 0x40
 80035d6:	2302      	movs	r3, #2
 80035d8:	63fb      	str	r3, [r7, #60]	; 0x3c
 80035da:	2302      	movs	r3, #2
 80035dc:	63bb      	str	r3, [r7, #56]	; 0x38
  uint32_t sysclockfreq = 0U;
 80035de:	2300      	movs	r3, #0
 80035e0:	647b      	str	r3, [r7, #68]	; 0x44

  if((__HAL_RCC_GET_SYSCLK_SOURCE() == RCC_CFGR_SWS_MSI) ||
 80035e2:	4b71      	ldr	r3, [pc, #452]	; (80037a8 <HAL_RCC_GetSysClockFreq+0x1e4>)
 80035e4:	689b      	ldr	r3, [r3, #8]
 80035e6:	f003 030c 	and.w	r3, r3, #12
 80035ea:	2b00      	cmp	r3, #0
 80035ec:	d00b      	beq.n	8003606 <HAL_RCC_GetSysClockFreq+0x42>
     ((__HAL_RCC_GET_SYSCLK_SOURCE() == RCC_CFGR_SWS_PLL) && (__HAL_RCC_GET_PLL_OSCSOURCE() == RCC_PLLSOURCE_MSI)))
 80035ee:	4b6e      	ldr	r3, [pc, #440]	; (80037a8 <HAL_RCC_GetSysClockFreq+0x1e4>)
 80035f0:	689b      	ldr	r3, [r3, #8]
 80035f2:	f003 030c 	and.w	r3, r3, #12
  if((__HAL_RCC_GET_SYSCLK_SOURCE() == RCC_CFGR_SWS_MSI) ||
 80035f6:	2b0c      	cmp	r3, #12
 80035f8:	d13c      	bne.n	8003674 <HAL_RCC_GetSysClockFreq+0xb0>
     ((__HAL_RCC_GET_SYSCLK_SOURCE() == RCC_CFGR_SWS_PLL) && (__HAL_RCC_GET_PLL_OSCSOURCE() == RCC_PLLSOURCE_MSI)))
 80035fa:	4b6b      	ldr	r3, [pc, #428]	; (80037a8 <HAL_RCC_GetSysClockFreq+0x1e4>)
 80035fc:	68db      	ldr	r3, [r3, #12]
 80035fe:	f003 0303 	and.w	r3, r3, #3
 8003602:	2b01      	cmp	r3, #1
 8003604:	d136      	bne.n	8003674 <HAL_RCC_GetSysClockFreq+0xb0>
  {
    /* MSI or PLL with MSI source used as system clock source */

    /* Get SYSCLK source */
    if(READ_BIT(RCC->CR, RCC_CR_MSIRGSEL) == RESET)
 8003606:	4b68      	ldr	r3, [pc, #416]	; (80037a8 <HAL_RCC_GetSysClockFreq+0x1e4>)
 8003608:	681b      	ldr	r3, [r3, #0]
 800360a:	f003 0308 	and.w	r3, r3, #8
 800360e:	2b00      	cmp	r3, #0
 8003610:	d112      	bne.n	8003638 <HAL_RCC_GetSysClockFreq+0x74>
    { /* MSISRANGE from RCC_CSR applies */
      msirange = (RCC->CSR & RCC_CSR_MSISRANGE) >> POSITION_VAL(RCC_CSR_MSISRANGE);
 8003612:	4b65      	ldr	r3, [pc, #404]	; (80037a8 <HAL_RCC_GetSysClockFreq+0x1e4>)
 8003614:	f8d3 3094 	ldr.w	r3, [r3, #148]	; 0x94
 8003618:	f403 6270 	and.w	r2, r3, #3840	; 0xf00
 800361c:	f44f 6370 	mov.w	r3, #3840	; 0xf00
 8003620:	637b      	str	r3, [r7, #52]	; 0x34
   __ASM volatile ("rbit %0, %1" : "=r" (result) : "r" (value) );
 8003622:	6b7b      	ldr	r3, [r7, #52]	; 0x34
 8003624:	fa93 f3a3 	rbit	r3, r3
 8003628:	633b      	str	r3, [r7, #48]	; 0x30
  return(result);
 800362a:	6b3b      	ldr	r3, [r7, #48]	; 0x30
 800362c:	fab3 f383 	clz	r3, r3
 8003630:	fa22 f303 	lsr.w	r3, r2, r3
 8003634:	64fb      	str	r3, [r7, #76]	; 0x4c
 8003636:	e00f      	b.n	8003658 <HAL_RCC_GetSysClockFreq+0x94>
    }
    else
    { /* MSIRANGE from RCC_CR applies */
      msirange = (RCC->CR & RCC_CR_MSIRANGE) >> POSITION_VAL(RCC_CR_MSIRANGE);
 8003638:	4b5b      	ldr	r3, [pc, #364]	; (80037a8 <HAL_RCC_GetSysClockFreq+0x1e4>)
 800363a:	681b      	ldr	r3, [r3, #0]
 800363c:	f003 02f0 	and.w	r2, r3, #240	; 0xf0
 8003640:	23f0      	movs	r3, #240	; 0xf0
 8003642:	62fb      	str	r3, [r7, #44]	; 0x2c
   __ASM volatile ("rbit %0, %1" : "=r" (result) : "r" (value) );
 8003644:	6afb      	ldr	r3, [r7, #44]	; 0x2c
 8003646:	fa93 f3a3 	rbit	r3, r3
 800364a:	62bb      	str	r3, [r7, #40]	; 0x28
  return(result);
 800364c:	6abb      	ldr	r3, [r7, #40]	; 0x28
 800364e:	fab3 f383 	clz	r3, r3
 8003652:	fa22 f303 	lsr.w	r3, r2, r3
 8003656:	64fb      	str	r3, [r7, #76]	; 0x4c
    }
    /*MSI frequency range in HZ*/
    msirange = MSIRangeTable[msirange];
 8003658:	4a54      	ldr	r2, [pc, #336]	; (80037ac <HAL_RCC_GetSysClockFreq+0x1e8>)
 800365a:	6cfb      	ldr	r3, [r7, #76]	; 0x4c
 800365c:	f852 3023 	ldr.w	r3, [r2, r3, lsl #2]
 8003660:	64fb      	str	r3, [r7, #76]	; 0x4c

    if(__HAL_RCC_GET_SYSCLK_SOURCE() == RCC_CFGR_SWS_MSI)
 8003662:	4b51      	ldr	r3, [pc, #324]	; (80037a8 <HAL_RCC_GetSysClockFreq+0x1e4>)
 8003664:	689b      	ldr	r3, [r3, #8]
 8003666:	f003 030c 	and.w	r3, r3, #12
 800366a:	2b00      	cmp	r3, #0
 800366c:	d113      	bne.n	8003696 <HAL_RCC_GetSysClockFreq+0xd2>
    {
      /* MSI used as system clock source */
      sysclockfreq = msirange;
 800366e:	6cfb      	ldr	r3, [r7, #76]	; 0x4c
 8003670:	647b      	str	r3, [r7, #68]	; 0x44
    if(__HAL_RCC_GET_SYSCLK_SOURCE() == RCC_CFGR_SWS_MSI)
 8003672:	e010      	b.n	8003696 <HAL_RCC_GetSysClockFreq+0xd2>
    }
  }
  else if(__HAL_RCC_GET_SYSCLK_SOURCE() == RCC_CFGR_SWS_HSI)
 8003674:	4b4c      	ldr	r3, [pc, #304]	; (80037a8 <HAL_RCC_GetSysClockFreq+0x1e4>)
 8003676:	689b      	ldr	r3, [r3, #8]
 8003678:	f003 030c 	and.w	r3, r3, #12
 800367c:	2b04      	cmp	r3, #4
 800367e:	d102      	bne.n	8003686 <HAL_RCC_GetSysClockFreq+0xc2>
  {
    /* HSI used as system clock source */
    sysclockfreq = HSI_VALUE;
 8003680:	4b4b      	ldr	r3, [pc, #300]	; (80037b0 <HAL_RCC_GetSysClockFreq+0x1ec>)
 8003682:	647b      	str	r3, [r7, #68]	; 0x44
 8003684:	e007      	b.n	8003696 <HAL_RCC_GetSysClockFreq+0xd2>
  }
  else if(__HAL_RCC_GET_SYSCLK_SOURCE() == RCC_CFGR_SWS_HSE)
 8003686:	4b48      	ldr	r3, [pc, #288]	; (80037a8 <HAL_RCC_GetSysClockFreq+0x1e4>)
 8003688:	689b      	ldr	r3, [r3, #8]
 800368a:	f003 030c 	and.w	r3, r3, #12
 800368e:	2b08      	cmp	r3, #8
 8003690:	d101      	bne.n	8003696 <HAL_RCC_GetSysClockFreq+0xd2>
  {
    /* HSE used as system clock source */
    sysclockfreq = HSE_VALUE;
 8003692:	4b48      	ldr	r3, [pc, #288]	; (80037b4 <HAL_RCC_GetSysClockFreq+0x1f0>)
 8003694:	647b      	str	r3, [r7, #68]	; 0x44
  }

  if(__HAL_RCC_GET_SYSCLK_SOURCE() == RCC_CFGR_SWS_PLL)
 8003696:	4b44      	ldr	r3, [pc, #272]	; (80037a8 <HAL_RCC_GetSysClockFreq+0x1e4>)
 8003698:	689b      	ldr	r3, [r3, #8]
 800369a:	f003 030c 	and.w	r3, r3, #12
 800369e:	2b0c      	cmp	r3, #12
 80036a0:	d17b      	bne.n	800379a <HAL_RCC_GetSysClockFreq+0x1d6>
    /* PLL used as system clock  source */

    /* PLL_VCO = (HSE_VALUE or HSI_VALUE or MSI_VALUE/ PLLM) * PLLN
    SYSCLK = PLL_VCO / PLLR
    */
    pllsource = (RCC->PLLCFGR & RCC_PLLCFGR_PLLSRC);
 80036a2:	4b41      	ldr	r3, [pc, #260]	; (80037a8 <HAL_RCC_GetSysClockFreq+0x1e4>)
 80036a4:	68db      	ldr	r3, [r3, #12]
 80036a6:	f003 0303 	and.w	r3, r3, #3
 80036aa:	643b      	str	r3, [r7, #64]	; 0x40
    pllm = ((RCC->PLLCFGR & RCC_PLLCFGR_PLLM) >> POSITION_VAL(RCC_PLLCFGR_PLLM)) + 1U ;
 80036ac:	4b3e      	ldr	r3, [pc, #248]	; (80037a8 <HAL_RCC_GetSysClockFreq+0x1e4>)
 80036ae:	68db      	ldr	r3, [r3, #12]
 80036b0:	f003 0270 	and.w	r2, r3, #112	; 0x70
 80036b4:	2370      	movs	r3, #112	; 0x70
 80036b6:	627b      	str	r3, [r7, #36]	; 0x24
   __ASM volatile ("rbit %0, %1" : "=r" (result) : "r" (value) );
 80036b8:	6a7b      	ldr	r3, [r7, #36]	; 0x24
 80036ba:	fa93 f3a3 	rbit	r3, r3
 80036be:	623b      	str	r3, [r7, #32]
  return(result);
 80036c0:	6a3b      	ldr	r3, [r7, #32]
 80036c2:	fab3 f383 	clz	r3, r3
 80036c6:	fa22 f303 	lsr.w	r3, r2, r3
 80036ca:	3301      	adds	r3, #1
 80036cc:	63bb      	str	r3, [r7, #56]	; 0x38

    switch (pllsource)
 80036ce:	6c3b      	ldr	r3, [r7, #64]	; 0x40
 80036d0:	2b02      	cmp	r3, #2
 80036d2:	d002      	beq.n	80036da <HAL_RCC_GetSysClockFreq+0x116>
 80036d4:	2b03      	cmp	r3, #3
 80036d6:	d018      	beq.n	800370a <HAL_RCC_GetSysClockFreq+0x146>
 80036d8:	e02f      	b.n	800373a <HAL_RCC_GetSysClockFreq+0x176>
    {
    case RCC_PLLSOURCE_HSI:  /* HSI used as PLL clock source */
      pllvco = (HSI_VALUE / pllm) * ((RCC->PLLCFGR & RCC_PLLCFGR_PLLN) >> POSITION_VAL(RCC_PLLCFGR_PLLN));
 80036da:	4a35      	ldr	r2, [pc, #212]	; (80037b0 <HAL_RCC_GetSysClockFreq+0x1ec>)
 80036dc:	6bbb      	ldr	r3, [r7, #56]	; 0x38
 80036de:	fbb2 f3f3 	udiv	r3, r2, r3
 80036e2:	4a31      	ldr	r2, [pc, #196]	; (80037a8 <HAL_RCC_GetSysClockFreq+0x1e4>)
 80036e4:	68d2      	ldr	r2, [r2, #12]
 80036e6:	f402 41fe 	and.w	r1, r2, #32512	; 0x7f00
 80036ea:	f44f 42fe 	mov.w	r2, #32512	; 0x7f00
 80036ee:	61fa      	str	r2, [r7, #28]
   __ASM volatile ("rbit %0, %1" : "=r" (result) : "r" (value) );
 80036f0:	69fa      	ldr	r2, [r7, #28]
 80036f2:	fa92 f2a2 	rbit	r2, r2
 80036f6:	61ba      	str	r2, [r7, #24]
  return(result);
 80036f8:	69ba      	ldr	r2, [r7, #24]
 80036fa:	fab2 f282 	clz	r2, r2
 80036fe:	fa21 f202 	lsr.w	r2, r1, r2
 8003702:	fb02 f303 	mul.w	r3, r2, r3
 8003706:	64bb      	str	r3, [r7, #72]	; 0x48
      break;
 8003708:	e02f      	b.n	800376a <HAL_RCC_GetSysClockFreq+0x1a6>

    case RCC_PLLSOURCE_HSE:  /* HSE used as PLL clock source */
      pllvco = (HSE_VALUE / pllm) * ((RCC->PLLCFGR & RCC_PLLCFGR_PLLN) >> POSITION_VAL(RCC_PLLCFGR_PLLN));
 800370a:	4a2a      	ldr	r2, [pc, #168]	; (80037b4 <HAL_RCC_GetSysClockFreq+0x1f0>)
 800370c:	6bbb      	ldr	r3, [r7, #56]	; 0x38
 800370e:	fbb2 f3f3 	udiv	r3, r2, r3
 8003712:	4a25      	ldr	r2, [pc, #148]	; (80037a8 <HAL_RCC_GetSysClockFreq+0x1e4>)
 8003714:	68d2      	ldr	r2, [r2, #12]
 8003716:	f402 41fe 	and.w	r1, r2, #32512	; 0x7f00
 800371a:	f44f 42fe 	mov.w	r2, #32512	; 0x7f00
 800371e:	617a      	str	r2, [r7, #20]
   __ASM volatile ("rbit %0, %1" : "=r" (result) : "r" (value) );
 8003720:	697a      	ldr	r2, [r7, #20]
 8003722:	fa92 f2a2 	rbit	r2, r2
 8003726:	613a      	str	r2, [r7, #16]
  return(result);
 8003728:	693a      	ldr	r2, [r7, #16]
 800372a:	fab2 f282 	clz	r2, r2
 800372e:	fa21 f202 	lsr.w	r2, r1, r2
 8003732:	fb02 f303 	mul.w	r3, r2, r3
 8003736:	64bb      	str	r3, [r7, #72]	; 0x48
      break;
 8003738:	e017      	b.n	800376a <HAL_RCC_GetSysClockFreq+0x1a6>

    case RCC_PLLSOURCE_MSI:  /* MSI used as PLL clock source */
    default:
      pllvco = (msirange / pllm) * ((RCC->PLLCFGR & RCC_PLLCFGR_PLLN) >> POSITION_VAL(RCC_PLLCFGR_PLLN));
 800373a:	6cfa      	ldr	r2, [r7, #76]	; 0x4c
 800373c:	6bbb      	ldr	r3, [r7, #56]	; 0x38
 800373e:	fbb2 f3f3 	udiv	r3, r2, r3
 8003742:	4a19      	ldr	r2, [pc, #100]	; (80037a8 <HAL_RCC_GetSysClockFreq+0x1e4>)
 8003744:	68d2      	ldr	r2, [r2, #12]
 8003746:	f402 41fe 	and.w	r1, r2, #32512	; 0x7f00
 800374a:	f44f 42fe 	mov.w	r2, #32512	; 0x7f00
 800374e:	60fa      	str	r2, [r7, #12]
   __ASM volatile ("rbit %0, %1" : "=r" (result) : "r" (value) );
 8003750:	68fa      	ldr	r2, [r7, #12]
 8003752:	fa92 f2a2 	rbit	r2, r2
 8003756:	60ba      	str	r2, [r7, #8]
  return(result);
 8003758:	68ba      	ldr	r2, [r7, #8]
 800375a:	fab2 f282 	clz	r2, r2
 800375e:	fa21 f202 	lsr.w	r2, r1, r2
 8003762:	fb02 f303 	mul.w	r3, r2, r3
 8003766:	64bb      	str	r3, [r7, #72]	; 0x48
      break;
 8003768:	bf00      	nop
    }
    pllr = (((RCC->PLLCFGR & RCC_PLLCFGR_PLLR) >> POSITION_VAL(RCC_PLLCFGR_PLLR)) + 1U ) * 2U;
 800376a:	4b0f      	ldr	r3, [pc, #60]	; (80037a8 <HAL_RCC_GetSysClockFreq+0x1e4>)
 800376c:	68db      	ldr	r3, [r3, #12]
 800376e:	f003 62c0 	and.w	r2, r3, #100663296	; 0x6000000
 8003772:	f04f 63c0 	mov.w	r3, #100663296	; 0x6000000
 8003776:	607b      	str	r3, [r7, #4]
   __ASM volatile ("rbit %0, %1" : "=r" (result) : "r" (value) );
 8003778:	687b      	ldr	r3, [r7, #4]
 800377a:	fa93 f3a3 	rbit	r3, r3
 800377e:	603b      	str	r3, [r7, #0]
  return(result);
 8003780:	683b      	ldr	r3, [r7, #0]
 8003782:	fab3 f383 	clz	r3, r3
 8003786:	fa22 f303 	lsr.w	r3, r2, r3
 800378a:	3301      	adds	r3, #1
 800378c:	005b      	lsls	r3, r3, #1
 800378e:	63fb      	str	r3, [r7, #60]	; 0x3c
    sysclockfreq = pllvco/pllr;
 8003790:	6cba      	ldr	r2, [r7, #72]	; 0x48
 8003792:	6bfb      	ldr	r3, [r7, #60]	; 0x3c
 8003794:	fbb2 f3f3 	udiv	r3, r2, r3
 8003798:	647b      	str	r3, [r7, #68]	; 0x44
  }

  return sysclockfreq;
 800379a:	6c7b      	ldr	r3, [r7, #68]	; 0x44
}
 800379c:	4618      	mov	r0, r3
 800379e:	3754      	adds	r7, #84	; 0x54
 80037a0:	46bd      	mov	sp, r7
 80037a2:	f85d 7b04 	ldr.w	r7, [sp], #4
 80037a6:	4770      	bx	lr
 80037a8:	40021000 	.word	0x40021000
 80037ac:	08008364 	.word	0x08008364
 80037b0:	00f42400 	.word	0x00f42400
 80037b4:	007a1200 	.word	0x007a1200

080037b8 <HAL_RCC_GetHCLKFreq>:
  *
  * @note   The SystemCoreClock CMSIS variable is used to store System Clock Frequency.
  * @retval HCLK frequency in Hz
  */
uint32_t HAL_RCC_GetHCLKFreq(void)
{
 80037b8:	b480      	push	{r7}
 80037ba:	af00      	add	r7, sp, #0
  return SystemCoreClock;
 80037bc:	4b03      	ldr	r3, [pc, #12]	; (80037cc <HAL_RCC_GetHCLKFreq+0x14>)
 80037be:	681b      	ldr	r3, [r3, #0]
}
 80037c0:	4618      	mov	r0, r3
 80037c2:	46bd      	mov	sp, r7
 80037c4:	f85d 7b04 	ldr.w	r7, [sp], #4
 80037c8:	4770      	bx	lr
 80037ca:	bf00      	nop
 80037cc:	20000044 	.word	0x20000044

080037d0 <HAL_RCC_GetPCLK1Freq>:
  * @note   Each time PCLK1 changes, this function must be called to update the
  *         right PCLK1 value. Otherwise, any configuration based on this function will be incorrect.
  * @retval PCLK1 frequency in Hz
  */
uint32_t HAL_RCC_GetPCLK1Freq(void)
{
 80037d0:	b580      	push	{r7, lr}
 80037d2:	b082      	sub	sp, #8
 80037d4:	af00      	add	r7, sp, #0
  /* Get HCLK source and Compute PCLK1 frequency ---------------------------*/
  return (HAL_RCC_GetHCLKFreq() >> APBPrescTable[(RCC->CFGR & RCC_CFGR_PPRE1)>> POSITION_VAL(RCC_CFGR_PPRE1)]);
 80037d6:	f7ff ffef 	bl	80037b8 <HAL_RCC_GetHCLKFreq>
 80037da:	4601      	mov	r1, r0
 80037dc:	4b0b      	ldr	r3, [pc, #44]	; (800380c <HAL_RCC_GetPCLK1Freq+0x3c>)
 80037de:	689b      	ldr	r3, [r3, #8]
 80037e0:	f403 62e0 	and.w	r2, r3, #1792	; 0x700
 80037e4:	f44f 63e0 	mov.w	r3, #1792	; 0x700
 80037e8:	607b      	str	r3, [r7, #4]
   __ASM volatile ("rbit %0, %1" : "=r" (result) : "r" (value) );
 80037ea:	687b      	ldr	r3, [r7, #4]
 80037ec:	fa93 f3a3 	rbit	r3, r3
 80037f0:	603b      	str	r3, [r7, #0]
  return(result);
 80037f2:	683b      	ldr	r3, [r7, #0]
 80037f4:	fab3 f383 	clz	r3, r3
 80037f8:	fa22 f303 	lsr.w	r3, r2, r3
 80037fc:	4a04      	ldr	r2, [pc, #16]	; (8003810 <HAL_RCC_GetPCLK1Freq+0x40>)
 80037fe:	5cd3      	ldrb	r3, [r2, r3]
 8003800:	fa21 f303 	lsr.w	r3, r1, r3
}
 8003804:	4618      	mov	r0, r3
 8003806:	3708      	adds	r7, #8
 8003808:	46bd      	mov	sp, r7
 800380a:	bd80      	pop	{r7, pc}
 800380c:	40021000 	.word	0x40021000
 8003810:	0800835c 	.word	0x0800835c

08003814 <HAL_RCC_GetPCLK2Freq>:
  * @note   Each time PCLK2 changes, this function must be called to update the
  *         right PCLK2 value. Otherwise, any configuration based on this function will be incorrect.
  * @retval PCLK2 frequency in Hz
  */
uint32_t HAL_RCC_GetPCLK2Freq(void)
{
 8003814:	b580      	push	{r7, lr}
 8003816:	b082      	sub	sp, #8
 8003818:	af00      	add	r7, sp, #0
  /* Get HCLK source and Compute PCLK2 frequency ---------------------------*/
  return (HAL_RCC_GetHCLKFreq()>> APBPrescTable[(RCC->CFGR & RCC_CFGR_PPRE2)>> POSITION_VAL(RCC_CFGR_PPRE2)]);
 800381a:	f7ff ffcd 	bl	80037b8 <HAL_RCC_GetHCLKFreq>
 800381e:	4601      	mov	r1, r0
 8003820:	4b0b      	ldr	r3, [pc, #44]	; (8003850 <HAL_RCC_GetPCLK2Freq+0x3c>)
 8003822:	689b      	ldr	r3, [r3, #8]
 8003824:	f403 5260 	and.w	r2, r3, #14336	; 0x3800
 8003828:	f44f 5360 	mov.w	r3, #14336	; 0x3800
 800382c:	607b      	str	r3, [r7, #4]
   __ASM volatile ("rbit %0, %1" : "=r" (result) : "r" (value) );
 800382e:	687b      	ldr	r3, [r7, #4]
 8003830:	fa93 f3a3 	rbit	r3, r3
 8003834:	603b      	str	r3, [r7, #0]
  return(result);
 8003836:	683b      	ldr	r3, [r7, #0]
 8003838:	fab3 f383 	clz	r3, r3
 800383c:	fa22 f303 	lsr.w	r3, r2, r3
 8003840:	4a04      	ldr	r2, [pc, #16]	; (8003854 <HAL_RCC_GetPCLK2Freq+0x40>)
 8003842:	5cd3      	ldrb	r3, [r2, r3]
 8003844:	fa21 f303 	lsr.w	r3, r1, r3
}
 8003848:	4618      	mov	r0, r3
 800384a:	3708      	adds	r7, #8
 800384c:	46bd      	mov	sp, r7
 800384e:	bd80      	pop	{r7, pc}
 8003850:	40021000 	.word	0x40021000
 8003854:	0800835c 	.word	0x0800835c

08003858 <RCC_SetFlashLatencyFromMSIRange>:
            voltage range.
  * @param  msirange  MSI range value from RCC_MSIRANGE_0 to RCC_MSIRANGE_11
  * @retval HAL status
  */
static HAL_StatusTypeDef RCC_SetFlashLatencyFromMSIRange(uint32_t msirange)
{
 8003858:	b580      	push	{r7, lr}
 800385a:	b086      	sub	sp, #24
 800385c:	af00      	add	r7, sp, #0
 800385e:	6078      	str	r0, [r7, #4]
  uint32_t vos = 0;
 8003860:	2300      	movs	r3, #0
 8003862:	617b      	str	r3, [r7, #20]
  uint32_t latency = FLASH_LATENCY_0;  /* default value 0WS */
 8003864:	2300      	movs	r3, #0
 8003866:	613b      	str	r3, [r7, #16]
  
  if(__HAL_RCC_PWR_IS_CLK_ENABLED())
 8003868:	4b2a      	ldr	r3, [pc, #168]	; (8003914 <RCC_SetFlashLatencyFromMSIRange+0xbc>)
 800386a:	6d9b      	ldr	r3, [r3, #88]	; 0x58
 800386c:	f003 5380 	and.w	r3, r3, #268435456	; 0x10000000
 8003870:	2b00      	cmp	r3, #0
 8003872:	d003      	beq.n	800387c <RCC_SetFlashLatencyFromMSIRange+0x24>
  {
    vos = HAL_PWREx_GetVoltageRange();
 8003874:	f7ff f95e 	bl	8002b34 <HAL_PWREx_GetVoltageRange>
 8003878:	6178      	str	r0, [r7, #20]
 800387a:	e014      	b.n	80038a6 <RCC_SetFlashLatencyFromMSIRange+0x4e>
  }
  else
  {
    __HAL_RCC_PWR_CLK_ENABLE();
 800387c:	4a25      	ldr	r2, [pc, #148]	; (8003914 <RCC_SetFlashLatencyFromMSIRange+0xbc>)
 800387e:	4b25      	ldr	r3, [pc, #148]	; (8003914 <RCC_SetFlashLatencyFromMSIRange+0xbc>)
 8003880:	6d9b      	ldr	r3, [r3, #88]	; 0x58
 8003882:	f043 5380 	orr.w	r3, r3, #268435456	; 0x10000000
 8003886:	6593      	str	r3, [r2, #88]	; 0x58
 8003888:	4b22      	ldr	r3, [pc, #136]	; (8003914 <RCC_SetFlashLatencyFromMSIRange+0xbc>)
 800388a:	6d9b      	ldr	r3, [r3, #88]	; 0x58
 800388c:	f003 5380 	and.w	r3, r3, #268435456	; 0x10000000
 8003890:	60fb      	str	r3, [r7, #12]
 8003892:	68fb      	ldr	r3, [r7, #12]
    vos = HAL_PWREx_GetVoltageRange();
 8003894:	f7ff f94e 	bl	8002b34 <HAL_PWREx_GetVoltageRange>
 8003898:	6178      	str	r0, [r7, #20]
    __HAL_RCC_PWR_CLK_DISABLE();
 800389a:	4a1e      	ldr	r2, [pc, #120]	; (8003914 <RCC_SetFlashLatencyFromMSIRange+0xbc>)
 800389c:	4b1d      	ldr	r3, [pc, #116]	; (8003914 <RCC_SetFlashLatencyFromMSIRange+0xbc>)
 800389e:	6d9b      	ldr	r3, [r3, #88]	; 0x58
 80038a0:	f023 5380 	bic.w	r3, r3, #268435456	; 0x10000000
 80038a4:	6593      	str	r3, [r2, #88]	; 0x58
  }
  
  if(vos == PWR_REGULATOR_VOLTAGE_SCALE1)
 80038a6:	697b      	ldr	r3, [r7, #20]
 80038a8:	f5b3 7f00 	cmp.w	r3, #512	; 0x200
 80038ac:	d10b      	bne.n	80038c6 <RCC_SetFlashLatencyFromMSIRange+0x6e>
  {
    if(msirange > RCC_MSIRANGE_8)
 80038ae:	687b      	ldr	r3, [r7, #4]
 80038b0:	2b80      	cmp	r3, #128	; 0x80
 80038b2:	d919      	bls.n	80038e8 <RCC_SetFlashLatencyFromMSIRange+0x90>
    {
      /* MSI > 16Mhz */
      if(msirange > RCC_MSIRANGE_10)
 80038b4:	687b      	ldr	r3, [r7, #4]
 80038b6:	2ba0      	cmp	r3, #160	; 0xa0
 80038b8:	d902      	bls.n	80038c0 <RCC_SetFlashLatencyFromMSIRange+0x68>
      {
        /* MSI 48Mhz */
        latency = FLASH_LATENCY_2; /* 2WS */
 80038ba:	2302      	movs	r3, #2
 80038bc:	613b      	str	r3, [r7, #16]
 80038be:	e013      	b.n	80038e8 <RCC_SetFlashLatencyFromMSIRange+0x90>
      }
      else
      {
        /* MSI 24Mhz or 32Mhz */
        latency = FLASH_LATENCY_1; /* 1WS */
 80038c0:	2301      	movs	r3, #1
 80038c2:	613b      	str	r3, [r7, #16]
 80038c4:	e010      	b.n	80038e8 <RCC_SetFlashLatencyFromMSIRange+0x90>
    }
    /* else MSI <= 16Mhz default FLASH_LATENCY_0 0WS */
  }
  else
  {
    if(msirange > RCC_MSIRANGE_8)
 80038c6:	687b      	ldr	r3, [r7, #4]
 80038c8:	2b80      	cmp	r3, #128	; 0x80
 80038ca:	d902      	bls.n	80038d2 <RCC_SetFlashLatencyFromMSIRange+0x7a>
    {
      /* MSI > 16Mhz */
      latency = FLASH_LATENCY_3; /* 3WS */
 80038cc:	2303      	movs	r3, #3
 80038ce:	613b      	str	r3, [r7, #16]
 80038d0:	e00a      	b.n	80038e8 <RCC_SetFlashLatencyFromMSIRange+0x90>
    }
    else
    {
      if(msirange == RCC_MSIRANGE_8)
 80038d2:	687b      	ldr	r3, [r7, #4]
 80038d4:	2b80      	cmp	r3, #128	; 0x80
 80038d6:	d102      	bne.n	80038de <RCC_SetFlashLatencyFromMSIRange+0x86>
      {
        /* MSI 16Mhz */
        latency = FLASH_LATENCY_2; /* 2WS */
 80038d8:	2302      	movs	r3, #2
 80038da:	613b      	str	r3, [r7, #16]
 80038dc:	e004      	b.n	80038e8 <RCC_SetFlashLatencyFromMSIRange+0x90>
      }
      else if(msirange == RCC_MSIRANGE_7) 
 80038de:	687b      	ldr	r3, [r7, #4]
 80038e0:	2b70      	cmp	r3, #112	; 0x70
 80038e2:	d101      	bne.n	80038e8 <RCC_SetFlashLatencyFromMSIRange+0x90>
      {
        /* MSI 8Mhz */
        latency = FLASH_LATENCY_1; /* 1WS */
 80038e4:	2301      	movs	r3, #1
 80038e6:	613b      	str	r3, [r7, #16]
      }
      /* else MSI < 8Mhz default FLASH_LATENCY_0 0WS */
    }
  }
       
  __HAL_FLASH_SET_LATENCY(latency);
 80038e8:	490b      	ldr	r1, [pc, #44]	; (8003918 <RCC_SetFlashLatencyFromMSIRange+0xc0>)
 80038ea:	4b0b      	ldr	r3, [pc, #44]	; (8003918 <RCC_SetFlashLatencyFromMSIRange+0xc0>)
 80038ec:	681b      	ldr	r3, [r3, #0]
 80038ee:	f023 0207 	bic.w	r2, r3, #7
 80038f2:	693b      	ldr	r3, [r7, #16]
 80038f4:	4313      	orrs	r3, r2
 80038f6:	600b      	str	r3, [r1, #0]
  
  /* Check that the new number of wait states is taken into account to access the Flash
     memory by reading the FLASH_ACR register */
  if((FLASH->ACR & FLASH_ACR_LATENCY) != latency)
 80038f8:	4b07      	ldr	r3, [pc, #28]	; (8003918 <RCC_SetFlashLatencyFromMSIRange+0xc0>)
 80038fa:	681b      	ldr	r3, [r3, #0]
 80038fc:	f003 0207 	and.w	r2, r3, #7
 8003900:	693b      	ldr	r3, [r7, #16]
 8003902:	429a      	cmp	r2, r3
 8003904:	d001      	beq.n	800390a <RCC_SetFlashLatencyFromMSIRange+0xb2>
  {
    return HAL_ERROR;
 8003906:	2301      	movs	r3, #1
 8003908:	e000      	b.n	800390c <RCC_SetFlashLatencyFromMSIRange+0xb4>
  }
  
  return HAL_OK;
 800390a:	2300      	movs	r3, #0
}
 800390c:	4618      	mov	r0, r3
 800390e:	3718      	adds	r7, #24
 8003910:	46bd      	mov	sp, r7
 8003912:	bd80      	pop	{r7, pc}
 8003914:	40021000 	.word	0x40021000
 8003918:	40022000 	.word	0x40022000

0800391c <HAL_RCCEx_PeriphCLKConfig>:
  *         the RTC clock source: in this case the access to Backup domain is enabled.
  *
  * @retval HAL status
  */
HAL_StatusTypeDef HAL_RCCEx_PeriphCLKConfig(RCC_PeriphCLKInitTypeDef  *PeriphClkInit)
{
 800391c:	b580      	push	{r7, lr}
 800391e:	b086      	sub	sp, #24
 8003920:	af00      	add	r7, sp, #0
 8003922:	6078      	str	r0, [r7, #4]
  uint32_t tmpregister = 0;
 8003924:	2300      	movs	r3, #0
 8003926:	617b      	str	r3, [r7, #20]
  uint32_t tickstart = 0U;
 8003928:	2300      	movs	r3, #0
 800392a:	60fb      	str	r3, [r7, #12]
  HAL_StatusTypeDef ret = HAL_OK;      /* Intermediate status */
 800392c:	2300      	movs	r3, #0
 800392e:	74fb      	strb	r3, [r7, #19]
  HAL_StatusTypeDef status = HAL_OK;   /* Final status */
 8003930:	2300      	movs	r3, #0
 8003932:	74bb      	strb	r3, [r7, #18]

  /* Check the parameters */
  assert_param(IS_RCC_PERIPHCLOCK(PeriphClkInit->PeriphClockSelection));

  /*-------------------------- SAI1 clock source configuration ---------------------*/
  if((((PeriphClkInit->PeriphClockSelection) & RCC_PERIPHCLK_SAI1) == RCC_PERIPHCLK_SAI1))
 8003934:	687b      	ldr	r3, [r7, #4]
 8003936:	681b      	ldr	r3, [r3, #0]
 8003938:	f403 6300 	and.w	r3, r3, #2048	; 0x800
 800393c:	2b00      	cmp	r3, #0
 800393e:	d02f      	beq.n	80039a0 <HAL_RCCEx_PeriphCLKConfig+0x84>
  {
    /* Check the parameters */
    assert_param(IS_RCC_SAI1CLK(PeriphClkInit->Sai1ClockSelection));

    switch(PeriphClkInit->Sai1ClockSelection)
 8003940:	687b      	ldr	r3, [r7, #4]
 8003942:	6c5b      	ldr	r3, [r3, #68]	; 0x44
 8003944:	f5b3 0f00 	cmp.w	r3, #8388608	; 0x800000
 8003948:	d005      	beq.n	8003956 <HAL_RCCEx_PeriphCLKConfig+0x3a>
 800394a:	f5b3 0f40 	cmp.w	r3, #12582912	; 0xc00000
 800394e:	d015      	beq.n	800397c <HAL_RCCEx_PeriphCLKConfig+0x60>
 8003950:	2b00      	cmp	r3, #0
 8003952:	d007      	beq.n	8003964 <HAL_RCCEx_PeriphCLKConfig+0x48>
 8003954:	e00f      	b.n	8003976 <HAL_RCCEx_PeriphCLKConfig+0x5a>
    case RCC_SAI1CLKSOURCE_PLL:      /* PLL is used as clock source for SAI1*/
      /* Enable SAI Clock output generated form System PLL . */
#if defined(RCC_PLLSAI2_SUPPORT)
      __HAL_RCC_PLLCLKOUT_ENABLE(RCC_PLL_SAI3CLK);
#else
      __HAL_RCC_PLLCLKOUT_ENABLE(RCC_PLL_SAI2CLK);
 8003956:	4a5a      	ldr	r2, [pc, #360]	; (8003ac0 <HAL_RCCEx_PeriphCLKConfig+0x1a4>)
 8003958:	4b59      	ldr	r3, [pc, #356]	; (8003ac0 <HAL_RCCEx_PeriphCLKConfig+0x1a4>)
 800395a:	68db      	ldr	r3, [r3, #12]
 800395c:	f443 3380 	orr.w	r3, r3, #65536	; 0x10000
 8003960:	60d3      	str	r3, [r2, #12]
#endif /* RCC_PLLSAI2_SUPPORT */
      /* SAI1 clock source config set later after clock selection check */
      break;
 8003962:	e00c      	b.n	800397e <HAL_RCCEx_PeriphCLKConfig+0x62>

    case RCC_SAI1CLKSOURCE_PLLSAI1:  /* PLLSAI1 is used as clock source for SAI1*/
      /* PLLSAI1 input clock, parameters M, N & P configuration and clock output (PLLSAI1ClockOut) */
      ret = RCCEx_PLLSAI1_Config(&(PeriphClkInit->PLLSAI1), DIVIDER_P_UPDATE);
 8003964:	687b      	ldr	r3, [r7, #4]
 8003966:	3304      	adds	r3, #4
 8003968:	2100      	movs	r1, #0
 800396a:	4618      	mov	r0, r3
 800396c:	f000 fa2c 	bl	8003dc8 <RCCEx_PLLSAI1_Config>
 8003970:	4603      	mov	r3, r0
 8003972:	74fb      	strb	r3, [r7, #19]
      /* SAI1 clock source config set later after clock selection check */
      break;
 8003974:	e003      	b.n	800397e <HAL_RCCEx_PeriphCLKConfig+0x62>
    case RCC_SAI1CLKSOURCE_PIN:      /* External clock is used as source of SAI1 clock*/
      /* SAI1 clock source config set later after clock selection check */
      break;

    default:
      ret = HAL_ERROR;
 8003976:	2301      	movs	r3, #1
 8003978:	74fb      	strb	r3, [r7, #19]
      break;
 800397a:	e000      	b.n	800397e <HAL_RCCEx_PeriphCLKConfig+0x62>
      break;
 800397c:	bf00      	nop
    }

    if(ret == HAL_OK)
 800397e:	7cfb      	ldrb	r3, [r7, #19]
 8003980:	2b00      	cmp	r3, #0
 8003982:	d10b      	bne.n	800399c <HAL_RCCEx_PeriphCLKConfig+0x80>
    {
      /* Set the source of SAI1 clock*/
      __HAL_RCC_SAI1_CONFIG(PeriphClkInit->Sai1ClockSelection);
 8003984:	494e      	ldr	r1, [pc, #312]	; (8003ac0 <HAL_RCCEx_PeriphCLKConfig+0x1a4>)
 8003986:	4b4e      	ldr	r3, [pc, #312]	; (8003ac0 <HAL_RCCEx_PeriphCLKConfig+0x1a4>)
 8003988:	f8d3 3088 	ldr.w	r3, [r3, #136]	; 0x88
 800398c:	f423 0240 	bic.w	r2, r3, #12582912	; 0xc00000
 8003990:	687b      	ldr	r3, [r7, #4]
 8003992:	6c5b      	ldr	r3, [r3, #68]	; 0x44
 8003994:	4313      	orrs	r3, r2
 8003996:	f8c1 3088 	str.w	r3, [r1, #136]	; 0x88
 800399a:	e001      	b.n	80039a0 <HAL_RCCEx_PeriphCLKConfig+0x84>
    }
    else
    {
      /* set overall return value */
      status = ret;
 800399c:	7cfb      	ldrb	r3, [r7, #19]
 800399e:	74bb      	strb	r3, [r7, #18]
    }
  }
#endif /* SAI2 */

  /*-------------------------- RTC clock source configuration ----------------------*/
  if((PeriphClkInit->PeriphClockSelection & RCC_PERIPHCLK_RTC) == RCC_PERIPHCLK_RTC)
 80039a0:	687b      	ldr	r3, [r7, #4]
 80039a2:	681b      	ldr	r3, [r3, #0]
 80039a4:	f403 3300 	and.w	r3, r3, #131072	; 0x20000
 80039a8:	2b00      	cmp	r3, #0
 80039aa:	f000 8098 	beq.w	8003ade <HAL_RCCEx_PeriphCLKConfig+0x1c2>
  {
    FlagStatus       pwrclkchanged = RESET;
 80039ae:	2300      	movs	r3, #0
 80039b0:	747b      	strb	r3, [r7, #17]
    
    /* Check for RTC Parameters used to output RTCCLK */
    assert_param(IS_RCC_RTCCLKSOURCE(PeriphClkInit->RTCClockSelection));

    /* Enable Power Clock */
    if(__HAL_RCC_PWR_IS_CLK_DISABLED())
 80039b2:	4b43      	ldr	r3, [pc, #268]	; (8003ac0 <HAL_RCCEx_PeriphCLKConfig+0x1a4>)
 80039b4:	6d9b      	ldr	r3, [r3, #88]	; 0x58
 80039b6:	f003 5380 	and.w	r3, r3, #268435456	; 0x10000000
 80039ba:	2b00      	cmp	r3, #0
 80039bc:	d10d      	bne.n	80039da <HAL_RCCEx_PeriphCLKConfig+0xbe>
    {
      __HAL_RCC_PWR_CLK_ENABLE();
 80039be:	4a40      	ldr	r2, [pc, #256]	; (8003ac0 <HAL_RCCEx_PeriphCLKConfig+0x1a4>)
 80039c0:	4b3f      	ldr	r3, [pc, #252]	; (8003ac0 <HAL_RCCEx_PeriphCLKConfig+0x1a4>)
 80039c2:	6d9b      	ldr	r3, [r3, #88]	; 0x58
 80039c4:	f043 5380 	orr.w	r3, r3, #268435456	; 0x10000000
 80039c8:	6593      	str	r3, [r2, #88]	; 0x58
 80039ca:	4b3d      	ldr	r3, [pc, #244]	; (8003ac0 <HAL_RCCEx_PeriphCLKConfig+0x1a4>)
 80039cc:	6d9b      	ldr	r3, [r3, #88]	; 0x58
 80039ce:	f003 5380 	and.w	r3, r3, #268435456	; 0x10000000
 80039d2:	60bb      	str	r3, [r7, #8]
 80039d4:	68bb      	ldr	r3, [r7, #8]
      pwrclkchanged = SET;
 80039d6:	2301      	movs	r3, #1
 80039d8:	747b      	strb	r3, [r7, #17]
    }
      
    /* Enable write access to Backup domain */
    SET_BIT(PWR->CR1, PWR_CR1_DBP);
 80039da:	4a3a      	ldr	r2, [pc, #232]	; (8003ac4 <HAL_RCCEx_PeriphCLKConfig+0x1a8>)
 80039dc:	4b39      	ldr	r3, [pc, #228]	; (8003ac4 <HAL_RCCEx_PeriphCLKConfig+0x1a8>)
 80039de:	681b      	ldr	r3, [r3, #0]
 80039e0:	f443 7380 	orr.w	r3, r3, #256	; 0x100
 80039e4:	6013      	str	r3, [r2, #0]

    /* Wait for Backup domain Write protection disable */
    tickstart = HAL_GetTick();
 80039e6:	f7fd ffed 	bl	80019c4 <HAL_GetTick>
 80039ea:	60f8      	str	r0, [r7, #12]

    while((PWR->CR1 & PWR_CR1_DBP) == RESET)
 80039ec:	e009      	b.n	8003a02 <HAL_RCCEx_PeriphCLKConfig+0xe6>
    {
      if((HAL_GetTick() - tickstart) > RCC_DBP_TIMEOUT_VALUE)
 80039ee:	f7fd ffe9 	bl	80019c4 <HAL_GetTick>
 80039f2:	4602      	mov	r2, r0
 80039f4:	68fb      	ldr	r3, [r7, #12]
 80039f6:	1ad3      	subs	r3, r2, r3
 80039f8:	2b02      	cmp	r3, #2
 80039fa:	d902      	bls.n	8003a02 <HAL_RCCEx_PeriphCLKConfig+0xe6>
      {
        ret = HAL_TIMEOUT;
 80039fc:	2303      	movs	r3, #3
 80039fe:	74fb      	strb	r3, [r7, #19]
        break;
 8003a00:	e005      	b.n	8003a0e <HAL_RCCEx_PeriphCLKConfig+0xf2>
    while((PWR->CR1 & PWR_CR1_DBP) == RESET)
 8003a02:	4b30      	ldr	r3, [pc, #192]	; (8003ac4 <HAL_RCCEx_PeriphCLKConfig+0x1a8>)
 8003a04:	681b      	ldr	r3, [r3, #0]
 8003a06:	f403 7380 	and.w	r3, r3, #256	; 0x100
 8003a0a:	2b00      	cmp	r3, #0
 8003a0c:	d0ef      	beq.n	80039ee <HAL_RCCEx_PeriphCLKConfig+0xd2>
      }
    }

    if(ret == HAL_OK)
 8003a0e:	7cfb      	ldrb	r3, [r7, #19]
 8003a10:	2b00      	cmp	r3, #0
 8003a12:	d159      	bne.n	8003ac8 <HAL_RCCEx_PeriphCLKConfig+0x1ac>
    { 
      /* Reset the Backup domain only if the RTC Clock source selection is modified from default */
      tmpregister = READ_BIT(RCC->BDCR, RCC_BDCR_RTCSEL);
 8003a14:	4b2a      	ldr	r3, [pc, #168]	; (8003ac0 <HAL_RCCEx_PeriphCLKConfig+0x1a4>)
 8003a16:	f8d3 3090 	ldr.w	r3, [r3, #144]	; 0x90
 8003a1a:	f403 7340 	and.w	r3, r3, #768	; 0x300
 8003a1e:	617b      	str	r3, [r7, #20]
      
      if((tmpregister != RCC_RTCCLKSOURCE_NO_CLK) && (tmpregister != PeriphClkInit->RTCClockSelection))
 8003a20:	697b      	ldr	r3, [r7, #20]
 8003a22:	2b00      	cmp	r3, #0
 8003a24:	d01e      	beq.n	8003a64 <HAL_RCCEx_PeriphCLKConfig+0x148>
 8003a26:	687b      	ldr	r3, [r7, #4]
 8003a28:	6dda      	ldr	r2, [r3, #92]	; 0x5c
 8003a2a:	697b      	ldr	r3, [r7, #20]
 8003a2c:	429a      	cmp	r2, r3
 8003a2e:	d019      	beq.n	8003a64 <HAL_RCCEx_PeriphCLKConfig+0x148>
      {
        /* Store the content of BDCR register before the reset of Backup Domain */
        tmpregister = READ_BIT(RCC->BDCR, ~(RCC_BDCR_RTCSEL));
 8003a30:	4b23      	ldr	r3, [pc, #140]	; (8003ac0 <HAL_RCCEx_PeriphCLKConfig+0x1a4>)
 8003a32:	f8d3 3090 	ldr.w	r3, [r3, #144]	; 0x90
 8003a36:	f423 7340 	bic.w	r3, r3, #768	; 0x300
 8003a3a:	617b      	str	r3, [r7, #20]
        /* RTC Clock selection can be changed only if the Backup Domain is reset */
        __HAL_RCC_BACKUPRESET_FORCE();
 8003a3c:	4a20      	ldr	r2, [pc, #128]	; (8003ac0 <HAL_RCCEx_PeriphCLKConfig+0x1a4>)
 8003a3e:	4b20      	ldr	r3, [pc, #128]	; (8003ac0 <HAL_RCCEx_PeriphCLKConfig+0x1a4>)
 8003a40:	f8d3 3090 	ldr.w	r3, [r3, #144]	; 0x90
 8003a44:	f443 3380 	orr.w	r3, r3, #65536	; 0x10000
 8003a48:	f8c2 3090 	str.w	r3, [r2, #144]	; 0x90
        __HAL_RCC_BACKUPRESET_RELEASE();
 8003a4c:	4a1c      	ldr	r2, [pc, #112]	; (8003ac0 <HAL_RCCEx_PeriphCLKConfig+0x1a4>)
 8003a4e:	4b1c      	ldr	r3, [pc, #112]	; (8003ac0 <HAL_RCCEx_PeriphCLKConfig+0x1a4>)
 8003a50:	f8d3 3090 	ldr.w	r3, [r3, #144]	; 0x90
 8003a54:	f423 3380 	bic.w	r3, r3, #65536	; 0x10000
 8003a58:	f8c2 3090 	str.w	r3, [r2, #144]	; 0x90
        /* Restore the Content of BDCR register */
        RCC->BDCR = tmpregister;
 8003a5c:	4a18      	ldr	r2, [pc, #96]	; (8003ac0 <HAL_RCCEx_PeriphCLKConfig+0x1a4>)
 8003a5e:	697b      	ldr	r3, [r7, #20]
 8003a60:	f8c2 3090 	str.w	r3, [r2, #144]	; 0x90
      }

      /* Wait for LSE reactivation if LSE was enable prior to Backup Domain reset */
      if (HAL_IS_BIT_SET(tmpregister, RCC_BDCR_LSEON))
 8003a64:	697b      	ldr	r3, [r7, #20]
 8003a66:	f003 0301 	and.w	r3, r3, #1
 8003a6a:	2b00      	cmp	r3, #0
 8003a6c:	d016      	beq.n	8003a9c <HAL_RCCEx_PeriphCLKConfig+0x180>
      {
        /* Get Start Tick*/
        tickstart = HAL_GetTick();
 8003a6e:	f7fd ffa9 	bl	80019c4 <HAL_GetTick>
 8003a72:	60f8      	str	r0, [r7, #12]

        /* Wait till LSE is ready */
        while(READ_BIT(RCC->BDCR, RCC_BDCR_LSERDY) == RESET)
 8003a74:	e00b      	b.n	8003a8e <HAL_RCCEx_PeriphCLKConfig+0x172>
        {
          if((HAL_GetTick() - tickstart) > RCC_LSE_TIMEOUT_VALUE)
 8003a76:	f7fd ffa5 	bl	80019c4 <HAL_GetTick>
 8003a7a:	4602      	mov	r2, r0
 8003a7c:	68fb      	ldr	r3, [r7, #12]
 8003a7e:	1ad3      	subs	r3, r2, r3
 8003a80:	f241 3288 	movw	r2, #5000	; 0x1388
 8003a84:	4293      	cmp	r3, r2
 8003a86:	d902      	bls.n	8003a8e <HAL_RCCEx_PeriphCLKConfig+0x172>
          {
            ret = HAL_TIMEOUT;
 8003a88:	2303      	movs	r3, #3
 8003a8a:	74fb      	strb	r3, [r7, #19]
            break;
 8003a8c:	e006      	b.n	8003a9c <HAL_RCCEx_PeriphCLKConfig+0x180>
        while(READ_BIT(RCC->BDCR, RCC_BDCR_LSERDY) == RESET)
 8003a8e:	4b0c      	ldr	r3, [pc, #48]	; (8003ac0 <HAL_RCCEx_PeriphCLKConfig+0x1a4>)
 8003a90:	f8d3 3090 	ldr.w	r3, [r3, #144]	; 0x90
 8003a94:	f003 0302 	and.w	r3, r3, #2
 8003a98:	2b00      	cmp	r3, #0
 8003a9a:	d0ec      	beq.n	8003a76 <HAL_RCCEx_PeriphCLKConfig+0x15a>
          }
        }
      }
      
      if(ret == HAL_OK)
 8003a9c:	7cfb      	ldrb	r3, [r7, #19]
 8003a9e:	2b00      	cmp	r3, #0
 8003aa0:	d10b      	bne.n	8003aba <HAL_RCCEx_PeriphCLKConfig+0x19e>
      {
        /* Apply new RTC clock source selection */
        __HAL_RCC_RTC_CONFIG(PeriphClkInit->RTCClockSelection);
 8003aa2:	4907      	ldr	r1, [pc, #28]	; (8003ac0 <HAL_RCCEx_PeriphCLKConfig+0x1a4>)
 8003aa4:	4b06      	ldr	r3, [pc, #24]	; (8003ac0 <HAL_RCCEx_PeriphCLKConfig+0x1a4>)
 8003aa6:	f8d3 3090 	ldr.w	r3, [r3, #144]	; 0x90
 8003aaa:	f423 7240 	bic.w	r2, r3, #768	; 0x300
 8003aae:	687b      	ldr	r3, [r7, #4]
 8003ab0:	6ddb      	ldr	r3, [r3, #92]	; 0x5c
 8003ab2:	4313      	orrs	r3, r2
 8003ab4:	f8c1 3090 	str.w	r3, [r1, #144]	; 0x90
 8003ab8:	e008      	b.n	8003acc <HAL_RCCEx_PeriphCLKConfig+0x1b0>
      }
      else
      {
        /* set overall return value */
        status = ret;
 8003aba:	7cfb      	ldrb	r3, [r7, #19]
 8003abc:	74bb      	strb	r3, [r7, #18]
 8003abe:	e005      	b.n	8003acc <HAL_RCCEx_PeriphCLKConfig+0x1b0>
 8003ac0:	40021000 	.word	0x40021000
 8003ac4:	40007000 	.word	0x40007000
      }
    }
    else
    {
      /* set overall return value */
      status = ret;
 8003ac8:	7cfb      	ldrb	r3, [r7, #19]
 8003aca:	74bb      	strb	r3, [r7, #18]
    }

    /* Restore clock configuration if changed */
    if(pwrclkchanged == SET)
 8003acc:	7c7b      	ldrb	r3, [r7, #17]
 8003ace:	2b01      	cmp	r3, #1
 8003ad0:	d105      	bne.n	8003ade <HAL_RCCEx_PeriphCLKConfig+0x1c2>
    {
      __HAL_RCC_PWR_CLK_DISABLE();
 8003ad2:	4a8d      	ldr	r2, [pc, #564]	; (8003d08 <HAL_RCCEx_PeriphCLKConfig+0x3ec>)
 8003ad4:	4b8c      	ldr	r3, [pc, #560]	; (8003d08 <HAL_RCCEx_PeriphCLKConfig+0x3ec>)
 8003ad6:	6d9b      	ldr	r3, [r3, #88]	; 0x58
 8003ad8:	f023 5380 	bic.w	r3, r3, #268435456	; 0x10000000
 8003adc:	6593      	str	r3, [r2, #88]	; 0x58
    }
  }

  /*-------------------------- USART1 clock source configuration -------------------*/
  if(((PeriphClkInit->PeriphClockSelection) & RCC_PERIPHCLK_USART1) == RCC_PERIPHCLK_USART1)
 8003ade:	687b      	ldr	r3, [r7, #4]
 8003ae0:	681b      	ldr	r3, [r3, #0]
 8003ae2:	f003 0301 	and.w	r3, r3, #1
 8003ae6:	2b00      	cmp	r3, #0
 8003ae8:	d00a      	beq.n	8003b00 <HAL_RCCEx_PeriphCLKConfig+0x1e4>
  {
    /* Check the parameters */
    assert_param(IS_RCC_USART1CLKSOURCE(PeriphClkInit->Usart1ClockSelection));

    /* Configure the USART1 clock source */
    __HAL_RCC_USART1_CONFIG(PeriphClkInit->Usart1ClockSelection);
 8003aea:	4987      	ldr	r1, [pc, #540]	; (8003d08 <HAL_RCCEx_PeriphCLKConfig+0x3ec>)
 8003aec:	4b86      	ldr	r3, [pc, #536]	; (8003d08 <HAL_RCCEx_PeriphCLKConfig+0x3ec>)
 8003aee:	f8d3 3088 	ldr.w	r3, [r3, #136]	; 0x88
 8003af2:	f023 0203 	bic.w	r2, r3, #3
 8003af6:	687b      	ldr	r3, [r7, #4]
 8003af8:	6a1b      	ldr	r3, [r3, #32]
 8003afa:	4313      	orrs	r3, r2
 8003afc:	f8c1 3088 	str.w	r3, [r1, #136]	; 0x88
  }

  /*-------------------------- USART2 clock source configuration -------------------*/
  if(((PeriphClkInit->PeriphClockSelection) & RCC_PERIPHCLK_USART2) == RCC_PERIPHCLK_USART2)
 8003b00:	687b      	ldr	r3, [r7, #4]
 8003b02:	681b      	ldr	r3, [r3, #0]
 8003b04:	f003 0302 	and.w	r3, r3, #2
 8003b08:	2b00      	cmp	r3, #0
 8003b0a:	d00a      	beq.n	8003b22 <HAL_RCCEx_PeriphCLKConfig+0x206>
  {
    /* Check the parameters */
    assert_param(IS_RCC_USART2CLKSOURCE(PeriphClkInit->Usart2ClockSelection));

    /* Configure the USART2 clock source */
    __HAL_RCC_USART2_CONFIG(PeriphClkInit->Usart2ClockSelection);
 8003b0c:	497e      	ldr	r1, [pc, #504]	; (8003d08 <HAL_RCCEx_PeriphCLKConfig+0x3ec>)
 8003b0e:	4b7e      	ldr	r3, [pc, #504]	; (8003d08 <HAL_RCCEx_PeriphCLKConfig+0x3ec>)
 8003b10:	f8d3 3088 	ldr.w	r3, [r3, #136]	; 0x88
 8003b14:	f023 020c 	bic.w	r2, r3, #12
 8003b18:	687b      	ldr	r3, [r7, #4]
 8003b1a:	6a5b      	ldr	r3, [r3, #36]	; 0x24
 8003b1c:	4313      	orrs	r3, r2
 8003b1e:	f8c1 3088 	str.w	r3, [r1, #136]	; 0x88
  }

#if defined(USART3)

  /*-------------------------- USART3 clock source configuration -------------------*/
  if(((PeriphClkInit->PeriphClockSelection) & RCC_PERIPHCLK_USART3) == RCC_PERIPHCLK_USART3)
 8003b22:	687b      	ldr	r3, [r7, #4]
 8003b24:	681b      	ldr	r3, [r3, #0]
 8003b26:	f003 0304 	and.w	r3, r3, #4
 8003b2a:	2b00      	cmp	r3, #0
 8003b2c:	d00a      	beq.n	8003b44 <HAL_RCCEx_PeriphCLKConfig+0x228>
  {
    /* Check the parameters */
    assert_param(IS_RCC_USART3CLKSOURCE(PeriphClkInit->Usart3ClockSelection));

    /* Configure the USART3 clock source */
    __HAL_RCC_USART3_CONFIG(PeriphClkInit->Usart3ClockSelection);
 8003b2e:	4976      	ldr	r1, [pc, #472]	; (8003d08 <HAL_RCCEx_PeriphCLKConfig+0x3ec>)
 8003b30:	4b75      	ldr	r3, [pc, #468]	; (8003d08 <HAL_RCCEx_PeriphCLKConfig+0x3ec>)
 8003b32:	f8d3 3088 	ldr.w	r3, [r3, #136]	; 0x88
 8003b36:	f023 0230 	bic.w	r2, r3, #48	; 0x30
 8003b3a:	687b      	ldr	r3, [r7, #4]
 8003b3c:	6a9b      	ldr	r3, [r3, #40]	; 0x28
 8003b3e:	4313      	orrs	r3, r2
 8003b40:	f8c1 3088 	str.w	r3, [r1, #136]	; 0x88
  }

#endif /* UART5 */

  /*-------------------------- LPUART1 clock source configuration ------------------*/
  if(((PeriphClkInit->PeriphClockSelection) & RCC_PERIPHCLK_LPUART1) == RCC_PERIPHCLK_LPUART1)
 8003b44:	687b      	ldr	r3, [r7, #4]
 8003b46:	681b      	ldr	r3, [r3, #0]
 8003b48:	f003 0320 	and.w	r3, r3, #32
 8003b4c:	2b00      	cmp	r3, #0
 8003b4e:	d00a      	beq.n	8003b66 <HAL_RCCEx_PeriphCLKConfig+0x24a>
  {
    /* Check the parameters */
    assert_param(IS_RCC_LPUART1CLKSOURCE(PeriphClkInit->Lpuart1ClockSelection));

    /* Configure the LPUAR1 clock source */
    __HAL_RCC_LPUART1_CONFIG(PeriphClkInit->Lpuart1ClockSelection);
 8003b50:	496d      	ldr	r1, [pc, #436]	; (8003d08 <HAL_RCCEx_PeriphCLKConfig+0x3ec>)
 8003b52:	4b6d      	ldr	r3, [pc, #436]	; (8003d08 <HAL_RCCEx_PeriphCLKConfig+0x3ec>)
 8003b54:	f8d3 3088 	ldr.w	r3, [r3, #136]	; 0x88
 8003b58:	f423 6240 	bic.w	r2, r3, #3072	; 0xc00
 8003b5c:	687b      	ldr	r3, [r7, #4]
 8003b5e:	6adb      	ldr	r3, [r3, #44]	; 0x2c
 8003b60:	4313      	orrs	r3, r2
 8003b62:	f8c1 3088 	str.w	r3, [r1, #136]	; 0x88
  }

  /*-------------------------- LPTIM1 clock source configuration -------------------*/
  if(((PeriphClkInit->PeriphClockSelection) & RCC_PERIPHCLK_LPTIM1) == (RCC_PERIPHCLK_LPTIM1))
 8003b66:	687b      	ldr	r3, [r7, #4]
 8003b68:	681b      	ldr	r3, [r3, #0]
 8003b6a:	f403 7300 	and.w	r3, r3, #512	; 0x200
 8003b6e:	2b00      	cmp	r3, #0
 8003b70:	d00a      	beq.n	8003b88 <HAL_RCCEx_PeriphCLKConfig+0x26c>
  {
    assert_param(IS_RCC_LPTIM1CLK(PeriphClkInit->Lptim1ClockSelection));
    __HAL_RCC_LPTIM1_CONFIG(PeriphClkInit->Lptim1ClockSelection);
 8003b72:	4965      	ldr	r1, [pc, #404]	; (8003d08 <HAL_RCCEx_PeriphCLKConfig+0x3ec>)
 8003b74:	4b64      	ldr	r3, [pc, #400]	; (8003d08 <HAL_RCCEx_PeriphCLKConfig+0x3ec>)
 8003b76:	f8d3 3088 	ldr.w	r3, [r3, #136]	; 0x88
 8003b7a:	f423 2240 	bic.w	r2, r3, #786432	; 0xc0000
 8003b7e:	687b      	ldr	r3, [r7, #4]
 8003b80:	6bdb      	ldr	r3, [r3, #60]	; 0x3c
 8003b82:	4313      	orrs	r3, r2
 8003b84:	f8c1 3088 	str.w	r3, [r1, #136]	; 0x88
  }

  /*-------------------------- LPTIM2 clock source configuration -------------------*/
  if(((PeriphClkInit->PeriphClockSelection) & RCC_PERIPHCLK_LPTIM2) == (RCC_PERIPHCLK_LPTIM2))
 8003b88:	687b      	ldr	r3, [r7, #4]
 8003b8a:	681b      	ldr	r3, [r3, #0]
 8003b8c:	f403 6380 	and.w	r3, r3, #1024	; 0x400
 8003b90:	2b00      	cmp	r3, #0
 8003b92:	d00a      	beq.n	8003baa <HAL_RCCEx_PeriphCLKConfig+0x28e>
  {
    assert_param(IS_RCC_LPTIM2CLK(PeriphClkInit->Lptim2ClockSelection));
    __HAL_RCC_LPTIM2_CONFIG(PeriphClkInit->Lptim2ClockSelection);
 8003b94:	495c      	ldr	r1, [pc, #368]	; (8003d08 <HAL_RCCEx_PeriphCLKConfig+0x3ec>)
 8003b96:	4b5c      	ldr	r3, [pc, #368]	; (8003d08 <HAL_RCCEx_PeriphCLKConfig+0x3ec>)
 8003b98:	f8d3 3088 	ldr.w	r3, [r3, #136]	; 0x88
 8003b9c:	f423 1240 	bic.w	r2, r3, #3145728	; 0x300000
 8003ba0:	687b      	ldr	r3, [r7, #4]
 8003ba2:	6c1b      	ldr	r3, [r3, #64]	; 0x40
 8003ba4:	4313      	orrs	r3, r2
 8003ba6:	f8c1 3088 	str.w	r3, [r1, #136]	; 0x88
  }

  /*-------------------------- I2C1 clock source configuration ---------------------*/
  if(((PeriphClkInit->PeriphClockSelection) & RCC_PERIPHCLK_I2C1) == RCC_PERIPHCLK_I2C1)
 8003baa:	687b      	ldr	r3, [r7, #4]
 8003bac:	681b      	ldr	r3, [r3, #0]
 8003bae:	f003 0340 	and.w	r3, r3, #64	; 0x40
 8003bb2:	2b00      	cmp	r3, #0
 8003bb4:	d00a      	beq.n	8003bcc <HAL_RCCEx_PeriphCLKConfig+0x2b0>
  {
    /* Check the parameters */
    assert_param(IS_RCC_I2C1CLKSOURCE(PeriphClkInit->I2c1ClockSelection));

    /* Configure the I2C1 clock source */
    __HAL_RCC_I2C1_CONFIG(PeriphClkInit->I2c1ClockSelection);
 8003bb6:	4954      	ldr	r1, [pc, #336]	; (8003d08 <HAL_RCCEx_PeriphCLKConfig+0x3ec>)
 8003bb8:	4b53      	ldr	r3, [pc, #332]	; (8003d08 <HAL_RCCEx_PeriphCLKConfig+0x3ec>)
 8003bba:	f8d3 3088 	ldr.w	r3, [r3, #136]	; 0x88
 8003bbe:	f423 5240 	bic.w	r2, r3, #12288	; 0x3000
 8003bc2:	687b      	ldr	r3, [r7, #4]
 8003bc4:	6b1b      	ldr	r3, [r3, #48]	; 0x30
 8003bc6:	4313      	orrs	r3, r2
 8003bc8:	f8c1 3088 	str.w	r3, [r1, #136]	; 0x88
  }

#if defined(I2C2)  

  /*-------------------------- I2C2 clock source configuration ---------------------*/
  if(((PeriphClkInit->PeriphClockSelection) & RCC_PERIPHCLK_I2C2) == RCC_PERIPHCLK_I2C2)
 8003bcc:	687b      	ldr	r3, [r7, #4]
 8003bce:	681b      	ldr	r3, [r3, #0]
 8003bd0:	f003 0380 	and.w	r3, r3, #128	; 0x80
 8003bd4:	2b00      	cmp	r3, #0
 8003bd6:	d00a      	beq.n	8003bee <HAL_RCCEx_PeriphCLKConfig+0x2d2>
  {
    /* Check the parameters */
    assert_param(IS_RCC_I2C2CLKSOURCE(PeriphClkInit->I2c2ClockSelection));

    /* Configure the I2C2 clock source */
    __HAL_RCC_I2C2_CONFIG(PeriphClkInit->I2c2ClockSelection);
 8003bd8:	494b      	ldr	r1, [pc, #300]	; (8003d08 <HAL_RCCEx_PeriphCLKConfig+0x3ec>)
 8003bda:	4b4b      	ldr	r3, [pc, #300]	; (8003d08 <HAL_RCCEx_PeriphCLKConfig+0x3ec>)
 8003bdc:	f8d3 3088 	ldr.w	r3, [r3, #136]	; 0x88
 8003be0:	f423 4240 	bic.w	r2, r3, #49152	; 0xc000
 8003be4:	687b      	ldr	r3, [r7, #4]
 8003be6:	6b5b      	ldr	r3, [r3, #52]	; 0x34
 8003be8:	4313      	orrs	r3, r2
 8003bea:	f8c1 3088 	str.w	r3, [r1, #136]	; 0x88
  }

#endif /* I2C2 */

  /*-------------------------- I2C3 clock source configuration ---------------------*/
  if(((PeriphClkInit->PeriphClockSelection) & RCC_PERIPHCLK_I2C3) == RCC_PERIPHCLK_I2C3)
 8003bee:	687b      	ldr	r3, [r7, #4]
 8003bf0:	681b      	ldr	r3, [r3, #0]
 8003bf2:	f403 7380 	and.w	r3, r3, #256	; 0x100
 8003bf6:	2b00      	cmp	r3, #0
 8003bf8:	d00a      	beq.n	8003c10 <HAL_RCCEx_PeriphCLKConfig+0x2f4>
  {
    /* Check the parameters */
    assert_param(IS_RCC_I2C3CLKSOURCE(PeriphClkInit->I2c3ClockSelection));

    /* Configure the I2C3 clock source */
    __HAL_RCC_I2C3_CONFIG(PeriphClkInit->I2c3ClockSelection);
 8003bfa:	4943      	ldr	r1, [pc, #268]	; (8003d08 <HAL_RCCEx_PeriphCLKConfig+0x3ec>)
 8003bfc:	4b42      	ldr	r3, [pc, #264]	; (8003d08 <HAL_RCCEx_PeriphCLKConfig+0x3ec>)
 8003bfe:	f8d3 3088 	ldr.w	r3, [r3, #136]	; 0x88
 8003c02:	f423 3240 	bic.w	r2, r3, #196608	; 0x30000
 8003c06:	687b      	ldr	r3, [r7, #4]
 8003c08:	6b9b      	ldr	r3, [r3, #56]	; 0x38
 8003c0a:	4313      	orrs	r3, r2
 8003c0c:	f8c1 3088 	str.w	r3, [r1, #136]	; 0x88
  }

#if defined(USB_OTG_FS) || defined(USB)

  /*-------------------------- USB clock source configuration ----------------------*/
  if(((PeriphClkInit->PeriphClockSelection) & RCC_PERIPHCLK_USB) == (RCC_PERIPHCLK_USB))
 8003c10:	687b      	ldr	r3, [r7, #4]
 8003c12:	681b      	ldr	r3, [r3, #0]
 8003c14:	f403 5300 	and.w	r3, r3, #8192	; 0x2000
 8003c18:	2b00      	cmp	r3, #0
 8003c1a:	d028      	beq.n	8003c6e <HAL_RCCEx_PeriphCLKConfig+0x352>
  {
    assert_param(IS_RCC_USBCLKSOURCE(PeriphClkInit->UsbClockSelection));
    __HAL_RCC_USB_CONFIG(PeriphClkInit->UsbClockSelection);
 8003c1c:	493a      	ldr	r1, [pc, #232]	; (8003d08 <HAL_RCCEx_PeriphCLKConfig+0x3ec>)
 8003c1e:	4b3a      	ldr	r3, [pc, #232]	; (8003d08 <HAL_RCCEx_PeriphCLKConfig+0x3ec>)
 8003c20:	f8d3 3088 	ldr.w	r3, [r3, #136]	; 0x88
 8003c24:	f023 6240 	bic.w	r2, r3, #201326592	; 0xc000000
 8003c28:	687b      	ldr	r3, [r7, #4]
 8003c2a:	6c9b      	ldr	r3, [r3, #72]	; 0x48
 8003c2c:	4313      	orrs	r3, r2
 8003c2e:	f8c1 3088 	str.w	r3, [r1, #136]	; 0x88

    if(PeriphClkInit->UsbClockSelection == RCC_USBCLKSOURCE_PLL)
 8003c32:	687b      	ldr	r3, [r7, #4]
 8003c34:	6c9b      	ldr	r3, [r3, #72]	; 0x48
 8003c36:	f1b3 6f00 	cmp.w	r3, #134217728	; 0x8000000
 8003c3a:	d106      	bne.n	8003c4a <HAL_RCCEx_PeriphCLKConfig+0x32e>
    {
      /* Enable PLL48M1CLK output */
      __HAL_RCC_PLLCLKOUT_ENABLE(RCC_PLL_48M1CLK);
 8003c3c:	4a32      	ldr	r2, [pc, #200]	; (8003d08 <HAL_RCCEx_PeriphCLKConfig+0x3ec>)
 8003c3e:	4b32      	ldr	r3, [pc, #200]	; (8003d08 <HAL_RCCEx_PeriphCLKConfig+0x3ec>)
 8003c40:	68db      	ldr	r3, [r3, #12]
 8003c42:	f443 1380 	orr.w	r3, r3, #1048576	; 0x100000
 8003c46:	60d3      	str	r3, [r2, #12]
 8003c48:	e011      	b.n	8003c6e <HAL_RCCEx_PeriphCLKConfig+0x352>
    }
    else if(PeriphClkInit->UsbClockSelection == RCC_USBCLKSOURCE_PLLSAI1)
 8003c4a:	687b      	ldr	r3, [r7, #4]
 8003c4c:	6c9b      	ldr	r3, [r3, #72]	; 0x48
 8003c4e:	f1b3 6f80 	cmp.w	r3, #67108864	; 0x4000000
 8003c52:	d10c      	bne.n	8003c6e <HAL_RCCEx_PeriphCLKConfig+0x352>
    {
      /* PLLSAI1 input clock, parameters M, N & Q configuration and clock output (PLLSAI1ClockOut) */
      ret = RCCEx_PLLSAI1_Config(&(PeriphClkInit->PLLSAI1), DIVIDER_Q_UPDATE);
 8003c54:	687b      	ldr	r3, [r7, #4]
 8003c56:	3304      	adds	r3, #4
 8003c58:	2101      	movs	r1, #1
 8003c5a:	4618      	mov	r0, r3
 8003c5c:	f000 f8b4 	bl	8003dc8 <RCCEx_PLLSAI1_Config>
 8003c60:	4603      	mov	r3, r0
 8003c62:	74fb      	strb	r3, [r7, #19]
      
      if(ret != HAL_OK)
 8003c64:	7cfb      	ldrb	r3, [r7, #19]
 8003c66:	2b00      	cmp	r3, #0
 8003c68:	d001      	beq.n	8003c6e <HAL_RCCEx_PeriphCLKConfig+0x352>
      {
        /* set overall return value */
        status = ret;
 8003c6a:	7cfb      	ldrb	r3, [r7, #19]
 8003c6c:	74bb      	strb	r3, [r7, #18]
#endif /* USB_OTG_FS || USB */

#if defined(SDMMC1)

  /*-------------------------- SDMMC1 clock source configuration -------------------*/
  if(((PeriphClkInit->PeriphClockSelection) & RCC_PERIPHCLK_SDMMC1) == (RCC_PERIPHCLK_SDMMC1))
 8003c6e:	687b      	ldr	r3, [r7, #4]
 8003c70:	681b      	ldr	r3, [r3, #0]
 8003c72:	f403 2300 	and.w	r3, r3, #524288	; 0x80000
 8003c76:	2b00      	cmp	r3, #0
 8003c78:	d028      	beq.n	8003ccc <HAL_RCCEx_PeriphCLKConfig+0x3b0>
  {
    assert_param(IS_RCC_SDMMC1CLKSOURCE(PeriphClkInit->Sdmmc1ClockSelection));
    __HAL_RCC_SDMMC1_CONFIG(PeriphClkInit->Sdmmc1ClockSelection);
 8003c7a:	4923      	ldr	r1, [pc, #140]	; (8003d08 <HAL_RCCEx_PeriphCLKConfig+0x3ec>)
 8003c7c:	4b22      	ldr	r3, [pc, #136]	; (8003d08 <HAL_RCCEx_PeriphCLKConfig+0x3ec>)
 8003c7e:	f8d3 3088 	ldr.w	r3, [r3, #136]	; 0x88
 8003c82:	f023 6240 	bic.w	r2, r3, #201326592	; 0xc000000
 8003c86:	687b      	ldr	r3, [r7, #4]
 8003c88:	6cdb      	ldr	r3, [r3, #76]	; 0x4c
 8003c8a:	4313      	orrs	r3, r2
 8003c8c:	f8c1 3088 	str.w	r3, [r1, #136]	; 0x88
    
    if(PeriphClkInit->Sdmmc1ClockSelection == RCC_SDMMC1CLKSOURCE_PLL)
 8003c90:	687b      	ldr	r3, [r7, #4]
 8003c92:	6cdb      	ldr	r3, [r3, #76]	; 0x4c
 8003c94:	f1b3 6f00 	cmp.w	r3, #134217728	; 0x8000000
 8003c98:	d106      	bne.n	8003ca8 <HAL_RCCEx_PeriphCLKConfig+0x38c>
    {
      /* Enable PLL48M1CLK output */
      __HAL_RCC_PLLCLKOUT_ENABLE(RCC_PLL_48M1CLK);
 8003c9a:	4a1b      	ldr	r2, [pc, #108]	; (8003d08 <HAL_RCCEx_PeriphCLKConfig+0x3ec>)
 8003c9c:	4b1a      	ldr	r3, [pc, #104]	; (8003d08 <HAL_RCCEx_PeriphCLKConfig+0x3ec>)
 8003c9e:	68db      	ldr	r3, [r3, #12]
 8003ca0:	f443 1380 	orr.w	r3, r3, #1048576	; 0x100000
 8003ca4:	60d3      	str	r3, [r2, #12]
 8003ca6:	e011      	b.n	8003ccc <HAL_RCCEx_PeriphCLKConfig+0x3b0>
    }
    else if(PeriphClkInit->Sdmmc1ClockSelection == RCC_SDMMC1CLKSOURCE_PLLSAI1)
 8003ca8:	687b      	ldr	r3, [r7, #4]
 8003caa:	6cdb      	ldr	r3, [r3, #76]	; 0x4c
 8003cac:	f1b3 6f80 	cmp.w	r3, #67108864	; 0x4000000
 8003cb0:	d10c      	bne.n	8003ccc <HAL_RCCEx_PeriphCLKConfig+0x3b0>
    {
      /* PLLSAI1 input clock, parameters M, N & Q configuration and clock output (PLLSAI1ClockOut) */
      ret = RCCEx_PLLSAI1_Config(&(PeriphClkInit->PLLSAI1), DIVIDER_Q_UPDATE);
 8003cb2:	687b      	ldr	r3, [r7, #4]
 8003cb4:	3304      	adds	r3, #4
 8003cb6:	2101      	movs	r1, #1
 8003cb8:	4618      	mov	r0, r3
 8003cba:	f000 f885 	bl	8003dc8 <RCCEx_PLLSAI1_Config>
 8003cbe:	4603      	mov	r3, r0
 8003cc0:	74fb      	strb	r3, [r7, #19]
      
      if(ret != HAL_OK)
 8003cc2:	7cfb      	ldrb	r3, [r7, #19]
 8003cc4:	2b00      	cmp	r3, #0
 8003cc6:	d001      	beq.n	8003ccc <HAL_RCCEx_PeriphCLKConfig+0x3b0>
      {
        /* set overall return value */
        status = ret;
 8003cc8:	7cfb      	ldrb	r3, [r7, #19]
 8003cca:	74bb      	strb	r3, [r7, #18]
  }

#endif /* SDMMC1 */

  /*-------------------------- RNG clock source configuration ----------------------*/
  if(((PeriphClkInit->PeriphClockSelection) & RCC_PERIPHCLK_RNG) == (RCC_PERIPHCLK_RNG))
 8003ccc:	687b      	ldr	r3, [r7, #4]
 8003cce:	681b      	ldr	r3, [r3, #0]
 8003cd0:	f403 2380 	and.w	r3, r3, #262144	; 0x40000
 8003cd4:	2b00      	cmp	r3, #0
 8003cd6:	d02b      	beq.n	8003d30 <HAL_RCCEx_PeriphCLKConfig+0x414>
  {
    assert_param(IS_RCC_RNGCLKSOURCE(PeriphClkInit->RngClockSelection));
    __HAL_RCC_RNG_CONFIG(PeriphClkInit->RngClockSelection);
 8003cd8:	490b      	ldr	r1, [pc, #44]	; (8003d08 <HAL_RCCEx_PeriphCLKConfig+0x3ec>)
 8003cda:	4b0b      	ldr	r3, [pc, #44]	; (8003d08 <HAL_RCCEx_PeriphCLKConfig+0x3ec>)
 8003cdc:	f8d3 3088 	ldr.w	r3, [r3, #136]	; 0x88
 8003ce0:	f023 6240 	bic.w	r2, r3, #201326592	; 0xc000000
 8003ce4:	687b      	ldr	r3, [r7, #4]
 8003ce6:	6d1b      	ldr	r3, [r3, #80]	; 0x50
 8003ce8:	4313      	orrs	r3, r2
 8003cea:	f8c1 3088 	str.w	r3, [r1, #136]	; 0x88

    if(PeriphClkInit->RngClockSelection == RCC_RNGCLKSOURCE_PLL)
 8003cee:	687b      	ldr	r3, [r7, #4]
 8003cf0:	6d1b      	ldr	r3, [r3, #80]	; 0x50
 8003cf2:	f1b3 6f00 	cmp.w	r3, #134217728	; 0x8000000
 8003cf6:	d109      	bne.n	8003d0c <HAL_RCCEx_PeriphCLKConfig+0x3f0>
    {
      /* Enable PLL48M1CLK output */
      __HAL_RCC_PLLCLKOUT_ENABLE(RCC_PLL_48M1CLK);
 8003cf8:	4a03      	ldr	r2, [pc, #12]	; (8003d08 <HAL_RCCEx_PeriphCLKConfig+0x3ec>)
 8003cfa:	4b03      	ldr	r3, [pc, #12]	; (8003d08 <HAL_RCCEx_PeriphCLKConfig+0x3ec>)
 8003cfc:	68db      	ldr	r3, [r3, #12]
 8003cfe:	f443 1380 	orr.w	r3, r3, #1048576	; 0x100000
 8003d02:	60d3      	str	r3, [r2, #12]
 8003d04:	e014      	b.n	8003d30 <HAL_RCCEx_PeriphCLKConfig+0x414>
 8003d06:	bf00      	nop
 8003d08:	40021000 	.word	0x40021000
    }
    else if(PeriphClkInit->RngClockSelection == RCC_RNGCLKSOURCE_PLLSAI1)
 8003d0c:	687b      	ldr	r3, [r7, #4]
 8003d0e:	6d1b      	ldr	r3, [r3, #80]	; 0x50
 8003d10:	f1b3 6f80 	cmp.w	r3, #67108864	; 0x4000000
 8003d14:	d10c      	bne.n	8003d30 <HAL_RCCEx_PeriphCLKConfig+0x414>
    {
      /* PLLSAI1 input clock, parameters M, N & Q configuration and clock output (PLLSAI1ClockOut) */
      ret = RCCEx_PLLSAI1_Config(&(PeriphClkInit->PLLSAI1), DIVIDER_Q_UPDATE);
 8003d16:	687b      	ldr	r3, [r7, #4]
 8003d18:	3304      	adds	r3, #4
 8003d1a:	2101      	movs	r1, #1
 8003d1c:	4618      	mov	r0, r3
 8003d1e:	f000 f853 	bl	8003dc8 <RCCEx_PLLSAI1_Config>
 8003d22:	4603      	mov	r3, r0
 8003d24:	74fb      	strb	r3, [r7, #19]
      
      if(ret != HAL_OK)
 8003d26:	7cfb      	ldrb	r3, [r7, #19]
 8003d28:	2b00      	cmp	r3, #0
 8003d2a:	d001      	beq.n	8003d30 <HAL_RCCEx_PeriphCLKConfig+0x414>
      {
        /* set overall return value */
        status = ret;
 8003d2c:	7cfb      	ldrb	r3, [r7, #19]
 8003d2e:	74bb      	strb	r3, [r7, #18]
      }
    }
  }

  /*-------------------------- ADC clock source configuration ----------------------*/
  if(((PeriphClkInit->PeriphClockSelection) & RCC_PERIPHCLK_ADC) == RCC_PERIPHCLK_ADC)
 8003d30:	687b      	ldr	r3, [r7, #4]
 8003d32:	681b      	ldr	r3, [r3, #0]
 8003d34:	f403 4380 	and.w	r3, r3, #16384	; 0x4000
 8003d38:	2b00      	cmp	r3, #0
 8003d3a:	d01c      	beq.n	8003d76 <HAL_RCCEx_PeriphCLKConfig+0x45a>
  {
    /* Check the parameters */
    assert_param(IS_RCC_ADCCLKSOURCE(PeriphClkInit->AdcClockSelection));

    /* Configure the ADC interface clock source */
    __HAL_RCC_ADC_CONFIG(PeriphClkInit->AdcClockSelection);
 8003d3c:	4919      	ldr	r1, [pc, #100]	; (8003da4 <HAL_RCCEx_PeriphCLKConfig+0x488>)
 8003d3e:	4b19      	ldr	r3, [pc, #100]	; (8003da4 <HAL_RCCEx_PeriphCLKConfig+0x488>)
 8003d40:	f8d3 3088 	ldr.w	r3, [r3, #136]	; 0x88
 8003d44:	f023 5240 	bic.w	r2, r3, #805306368	; 0x30000000
 8003d48:	687b      	ldr	r3, [r7, #4]
 8003d4a:	6d5b      	ldr	r3, [r3, #84]	; 0x54
 8003d4c:	4313      	orrs	r3, r2
 8003d4e:	f8c1 3088 	str.w	r3, [r1, #136]	; 0x88
    
    if(PeriphClkInit->AdcClockSelection == RCC_ADCCLKSOURCE_PLLSAI1)
 8003d52:	687b      	ldr	r3, [r7, #4]
 8003d54:	6d5b      	ldr	r3, [r3, #84]	; 0x54
 8003d56:	f1b3 5f80 	cmp.w	r3, #268435456	; 0x10000000
 8003d5a:	d10c      	bne.n	8003d76 <HAL_RCCEx_PeriphCLKConfig+0x45a>
    {
      /* PLLSAI1 input clock, parameters M, N & R configuration and clock output (PLLSAI1ClockOut) */
      ret = RCCEx_PLLSAI1_Config(&(PeriphClkInit->PLLSAI1), DIVIDER_R_UPDATE);
 8003d5c:	687b      	ldr	r3, [r7, #4]
 8003d5e:	3304      	adds	r3, #4
 8003d60:	2102      	movs	r1, #2
 8003d62:	4618      	mov	r0, r3
 8003d64:	f000 f830 	bl	8003dc8 <RCCEx_PLLSAI1_Config>
 8003d68:	4603      	mov	r3, r0
 8003d6a:	74fb      	strb	r3, [r7, #19]

      if(ret != HAL_OK)
 8003d6c:	7cfb      	ldrb	r3, [r7, #19]
 8003d6e:	2b00      	cmp	r3, #0
 8003d70:	d001      	beq.n	8003d76 <HAL_RCCEx_PeriphCLKConfig+0x45a>
      {
        /* set overall return value */
        status = ret;
 8003d72:	7cfb      	ldrb	r3, [r7, #19]
 8003d74:	74bb      	strb	r3, [r7, #18]
  }

#if defined(SWPMI1)

  /*-------------------------- SWPMI1 clock source configuration -------------------*/
  if(((PeriphClkInit->PeriphClockSelection) & RCC_PERIPHCLK_SWPMI1) == RCC_PERIPHCLK_SWPMI1)
 8003d76:	687b      	ldr	r3, [r7, #4]
 8003d78:	681b      	ldr	r3, [r3, #0]
 8003d7a:	f403 4300 	and.w	r3, r3, #32768	; 0x8000
 8003d7e:	2b00      	cmp	r3, #0
 8003d80:	d00a      	beq.n	8003d98 <HAL_RCCEx_PeriphCLKConfig+0x47c>
  {
    /* Check the parameters */
    assert_param(IS_RCC_SWPMI1CLKSOURCE(PeriphClkInit->Swpmi1ClockSelection));

    /* Configure the SWPMI1 clock source */
    __HAL_RCC_SWPMI1_CONFIG(PeriphClkInit->Swpmi1ClockSelection);
 8003d82:	4908      	ldr	r1, [pc, #32]	; (8003da4 <HAL_RCCEx_PeriphCLKConfig+0x488>)
 8003d84:	4b07      	ldr	r3, [pc, #28]	; (8003da4 <HAL_RCCEx_PeriphCLKConfig+0x488>)
 8003d86:	f8d3 3088 	ldr.w	r3, [r3, #136]	; 0x88
 8003d8a:	f023 4280 	bic.w	r2, r3, #1073741824	; 0x40000000
 8003d8e:	687b      	ldr	r3, [r7, #4]
 8003d90:	6d9b      	ldr	r3, [r3, #88]	; 0x58
 8003d92:	4313      	orrs	r3, r2
 8003d94:	f8c1 3088 	str.w	r3, [r1, #136]	; 0x88
    __HAL_RCC_DFSDM1_CONFIG(PeriphClkInit->Dfsdm1ClockSelection);
  }

#endif /* DFSDM1_Filter0 */

  return status;
 8003d98:	7cbb      	ldrb	r3, [r7, #18]
}
 8003d9a:	4618      	mov	r0, r3
 8003d9c:	3718      	adds	r7, #24
 8003d9e:	46bd      	mov	sp, r7
 8003da0:	bd80      	pop	{r7, pc}
 8003da2:	bf00      	nop
 8003da4:	40021000 	.word	0x40021000

08003da8 <HAL_RCCEx_EnableMSIPLLMode>:
  * @note   Prior to enable the PLL-mode of the MSI for automatic hardware
  *         calibration LSE oscillator is to be enabled with HAL_RCC_OscConfig().
  * @retval None
  */
void HAL_RCCEx_EnableMSIPLLMode(void)
{
 8003da8:	b480      	push	{r7}
 8003daa:	af00      	add	r7, sp, #0
  SET_BIT(RCC->CR, RCC_CR_MSIPLLEN) ;
 8003dac:	4a05      	ldr	r2, [pc, #20]	; (8003dc4 <HAL_RCCEx_EnableMSIPLLMode+0x1c>)
 8003dae:	4b05      	ldr	r3, [pc, #20]	; (8003dc4 <HAL_RCCEx_EnableMSIPLLMode+0x1c>)
 8003db0:	681b      	ldr	r3, [r3, #0]
 8003db2:	f043 0304 	orr.w	r3, r3, #4
 8003db6:	6013      	str	r3, [r2, #0]
}
 8003db8:	bf00      	nop
 8003dba:	46bd      	mov	sp, r7
 8003dbc:	f85d 7b04 	ldr.w	r7, [sp], #4
 8003dc0:	4770      	bx	lr
 8003dc2:	bf00      	nop
 8003dc4:	40021000 	.word	0x40021000

08003dc8 <RCCEx_PLLSAI1_Config>:
  * @note   PLLSAI1 is temporary disable to apply new parameters
  *
  * @retval HAL status
  */
static HAL_StatusTypeDef RCCEx_PLLSAI1_Config(RCC_PLLSAI1InitTypeDef *PllSai1, uint32_t Divider)
{
 8003dc8:	b590      	push	{r4, r7, lr}
 8003dca:	b095      	sub	sp, #84	; 0x54
 8003dcc:	af00      	add	r7, sp, #0
 8003dce:	6078      	str	r0, [r7, #4]
 8003dd0:	6039      	str	r1, [r7, #0]
  uint32_t tickstart = 0U;
 8003dd2:	2300      	movs	r3, #0
 8003dd4:	64bb      	str	r3, [r7, #72]	; 0x48
  HAL_StatusTypeDef status = HAL_OK;
 8003dd6:	2300      	movs	r3, #0
 8003dd8:	f887 304f 	strb.w	r3, [r7, #79]	; 0x4f
  assert_param(IS_RCC_PLLSAI1M_VALUE(PllSai1->PLLSAI1M));
  assert_param(IS_RCC_PLLSAI1N_VALUE(PllSai1->PLLSAI1N));
  assert_param(IS_RCC_PLLSAI1CLOCKOUT_VALUE(PllSai1->PLLSAI1ClockOut));
  
  /* Check that PLLSAI1 clock source and divider M can be applied */
  if(__HAL_RCC_GET_PLL_OSCSOURCE() != RCC_PLLSOURCE_NONE)
 8003ddc:	4ba3      	ldr	r3, [pc, #652]	; (800406c <RCCEx_PLLSAI1_Config+0x2a4>)
 8003dde:	68db      	ldr	r3, [r3, #12]
 8003de0:	f003 0303 	and.w	r3, r3, #3
 8003de4:	2b00      	cmp	r3, #0
 8003de6:	d023      	beq.n	8003e30 <RCCEx_PLLSAI1_Config+0x68>
  {
    /* PLL clock source and divider M already set, check that no request for change  */ 
    if((__HAL_RCC_GET_PLL_OSCSOURCE() != PllSai1->PLLSAI1Source)
 8003de8:	4ba0      	ldr	r3, [pc, #640]	; (800406c <RCCEx_PLLSAI1_Config+0x2a4>)
 8003dea:	68db      	ldr	r3, [r3, #12]
 8003dec:	f003 0203 	and.w	r2, r3, #3
 8003df0:	687b      	ldr	r3, [r7, #4]
 8003df2:	681b      	ldr	r3, [r3, #0]
 8003df4:	429a      	cmp	r2, r3
 8003df6:	d117      	bne.n	8003e28 <RCCEx_PLLSAI1_Config+0x60>
       || 
       (PllSai1->PLLSAI1Source == RCC_PLLSOURCE_NONE)
 8003df8:	687b      	ldr	r3, [r7, #4]
 8003dfa:	681b      	ldr	r3, [r3, #0]
       || 
 8003dfc:	2b00      	cmp	r3, #0
 8003dfe:	d013      	beq.n	8003e28 <RCCEx_PLLSAI1_Config+0x60>
       || 
       (((READ_BIT(RCC->PLLCFGR, RCC_PLLCFGR_PLLM) >> POSITION_VAL(RCC_PLLCFGR_PLLM)) + 1U) != PllSai1->PLLSAI1M)
 8003e00:	4b9a      	ldr	r3, [pc, #616]	; (800406c <RCCEx_PLLSAI1_Config+0x2a4>)
 8003e02:	68db      	ldr	r3, [r3, #12]
 8003e04:	f003 0270 	and.w	r2, r3, #112	; 0x70
 8003e08:	2370      	movs	r3, #112	; 0x70
 8003e0a:	647b      	str	r3, [r7, #68]	; 0x44
   __ASM volatile ("rbit %0, %1" : "=r" (result) : "r" (value) );
 8003e0c:	6c7b      	ldr	r3, [r7, #68]	; 0x44
 8003e0e:	fa93 f3a3 	rbit	r3, r3
 8003e12:	643b      	str	r3, [r7, #64]	; 0x40
  return(result);
 8003e14:	6c3b      	ldr	r3, [r7, #64]	; 0x40
 8003e16:	fab3 f383 	clz	r3, r3
 8003e1a:	fa22 f303 	lsr.w	r3, r2, r3
 8003e1e:	1c5a      	adds	r2, r3, #1
 8003e20:	687b      	ldr	r3, [r7, #4]
 8003e22:	685b      	ldr	r3, [r3, #4]
       || 
 8003e24:	429a      	cmp	r2, r3
 8003e26:	d054      	beq.n	8003ed2 <RCCEx_PLLSAI1_Config+0x10a>
      )
    {
      status = HAL_ERROR;
 8003e28:	2301      	movs	r3, #1
 8003e2a:	f887 304f 	strb.w	r3, [r7, #79]	; 0x4f
 8003e2e:	e050      	b.n	8003ed2 <RCCEx_PLLSAI1_Config+0x10a>
    }
  }
  else
  {
    /* Check PLLSAI1 clock source availability */
    switch(PllSai1->PLLSAI1Source)
 8003e30:	687b      	ldr	r3, [r7, #4]
 8003e32:	681b      	ldr	r3, [r3, #0]
 8003e34:	2b02      	cmp	r3, #2
 8003e36:	d00d      	beq.n	8003e54 <RCCEx_PLLSAI1_Config+0x8c>
 8003e38:	2b03      	cmp	r3, #3
 8003e3a:	d015      	beq.n	8003e68 <RCCEx_PLLSAI1_Config+0xa0>
 8003e3c:	2b01      	cmp	r3, #1
 8003e3e:	d123      	bne.n	8003e88 <RCCEx_PLLSAI1_Config+0xc0>
    {
    case RCC_PLLSOURCE_MSI:
      if(HAL_IS_BIT_CLR(RCC->CR, RCC_CR_MSIRDY))
 8003e40:	4b8a      	ldr	r3, [pc, #552]	; (800406c <RCCEx_PLLSAI1_Config+0x2a4>)
 8003e42:	681b      	ldr	r3, [r3, #0]
 8003e44:	f003 0302 	and.w	r3, r3, #2
 8003e48:	2b00      	cmp	r3, #0
 8003e4a:	d121      	bne.n	8003e90 <RCCEx_PLLSAI1_Config+0xc8>
      {
        status = HAL_ERROR;
 8003e4c:	2301      	movs	r3, #1
 8003e4e:	f887 304f 	strb.w	r3, [r7, #79]	; 0x4f
      }
      break;
 8003e52:	e01d      	b.n	8003e90 <RCCEx_PLLSAI1_Config+0xc8>
    case RCC_PLLSOURCE_HSI:
      if(HAL_IS_BIT_CLR(RCC->CR, RCC_CR_HSIRDY))
 8003e54:	4b85      	ldr	r3, [pc, #532]	; (800406c <RCCEx_PLLSAI1_Config+0x2a4>)
 8003e56:	681b      	ldr	r3, [r3, #0]
 8003e58:	f403 6380 	and.w	r3, r3, #1024	; 0x400
 8003e5c:	2b00      	cmp	r3, #0
 8003e5e:	d119      	bne.n	8003e94 <RCCEx_PLLSAI1_Config+0xcc>
      {
        status = HAL_ERROR;
 8003e60:	2301      	movs	r3, #1
 8003e62:	f887 304f 	strb.w	r3, [r7, #79]	; 0x4f
      }
      break;
 8003e66:	e015      	b.n	8003e94 <RCCEx_PLLSAI1_Config+0xcc>
    case RCC_PLLSOURCE_HSE:
      if(HAL_IS_BIT_CLR(RCC->CR, RCC_CR_HSERDY) && HAL_IS_BIT_CLR(RCC->CR, RCC_CR_HSEBYP))
 8003e68:	4b80      	ldr	r3, [pc, #512]	; (800406c <RCCEx_PLLSAI1_Config+0x2a4>)
 8003e6a:	681b      	ldr	r3, [r3, #0]
 8003e6c:	f403 3300 	and.w	r3, r3, #131072	; 0x20000
 8003e70:	2b00      	cmp	r3, #0
 8003e72:	d111      	bne.n	8003e98 <RCCEx_PLLSAI1_Config+0xd0>
 8003e74:	4b7d      	ldr	r3, [pc, #500]	; (800406c <RCCEx_PLLSAI1_Config+0x2a4>)
 8003e76:	681b      	ldr	r3, [r3, #0]
 8003e78:	f403 2380 	and.w	r3, r3, #262144	; 0x40000
 8003e7c:	2b00      	cmp	r3, #0
 8003e7e:	d10b      	bne.n	8003e98 <RCCEx_PLLSAI1_Config+0xd0>
      {
        status = HAL_ERROR;
 8003e80:	2301      	movs	r3, #1
 8003e82:	f887 304f 	strb.w	r3, [r7, #79]	; 0x4f
      }
      break;
 8003e86:	e007      	b.n	8003e98 <RCCEx_PLLSAI1_Config+0xd0>
    default:
      status = HAL_ERROR;
 8003e88:	2301      	movs	r3, #1
 8003e8a:	f887 304f 	strb.w	r3, [r7, #79]	; 0x4f
      break;
 8003e8e:	e004      	b.n	8003e9a <RCCEx_PLLSAI1_Config+0xd2>
      break;
 8003e90:	bf00      	nop
 8003e92:	e002      	b.n	8003e9a <RCCEx_PLLSAI1_Config+0xd2>
      break;
 8003e94:	bf00      	nop
 8003e96:	e000      	b.n	8003e9a <RCCEx_PLLSAI1_Config+0xd2>
      break;
 8003e98:	bf00      	nop
    }
    
    if(status == HAL_OK)
 8003e9a:	f897 304f 	ldrb.w	r3, [r7, #79]	; 0x4f
 8003e9e:	2b00      	cmp	r3, #0
 8003ea0:	d117      	bne.n	8003ed2 <RCCEx_PLLSAI1_Config+0x10a>
    {
      /* Set PLLSAI1 clock source and divider M */
      MODIFY_REG(RCC->PLLCFGR, RCC_PLLCFGR_PLLSRC | RCC_PLLCFGR_PLLM, PllSai1->PLLSAI1Source | (PllSai1->PLLSAI1M - 1U) << POSITION_VAL(RCC_PLLCFGR_PLLM));
 8003ea2:	4c72      	ldr	r4, [pc, #456]	; (800406c <RCCEx_PLLSAI1_Config+0x2a4>)
 8003ea4:	4b71      	ldr	r3, [pc, #452]	; (800406c <RCCEx_PLLSAI1_Config+0x2a4>)
 8003ea6:	68db      	ldr	r3, [r3, #12]
 8003ea8:	f023 0273 	bic.w	r2, r3, #115	; 0x73
 8003eac:	687b      	ldr	r3, [r7, #4]
 8003eae:	6819      	ldr	r1, [r3, #0]
 8003eb0:	687b      	ldr	r3, [r7, #4]
 8003eb2:	685b      	ldr	r3, [r3, #4]
 8003eb4:	1e58      	subs	r0, r3, #1
 8003eb6:	2370      	movs	r3, #112	; 0x70
 8003eb8:	63fb      	str	r3, [r7, #60]	; 0x3c
   __ASM volatile ("rbit %0, %1" : "=r" (result) : "r" (value) );
 8003eba:	6bfb      	ldr	r3, [r7, #60]	; 0x3c
 8003ebc:	fa93 f3a3 	rbit	r3, r3
 8003ec0:	63bb      	str	r3, [r7, #56]	; 0x38
  return(result);
 8003ec2:	6bbb      	ldr	r3, [r7, #56]	; 0x38
 8003ec4:	fab3 f383 	clz	r3, r3
 8003ec8:	fa00 f303 	lsl.w	r3, r0, r3
 8003ecc:	430b      	orrs	r3, r1
 8003ece:	4313      	orrs	r3, r2
 8003ed0:	60e3      	str	r3, [r4, #12]
    }
  }
  
  if(status == HAL_OK)
 8003ed2:	f897 304f 	ldrb.w	r3, [r7, #79]	; 0x4f
 8003ed6:	2b00      	cmp	r3, #0
 8003ed8:	f040 80c1 	bne.w	800405e <RCCEx_PLLSAI1_Config+0x296>
  {
    /* Disable the PLLSAI1 */
    __HAL_RCC_PLLSAI1_DISABLE();
 8003edc:	4a63      	ldr	r2, [pc, #396]	; (800406c <RCCEx_PLLSAI1_Config+0x2a4>)
 8003ede:	4b63      	ldr	r3, [pc, #396]	; (800406c <RCCEx_PLLSAI1_Config+0x2a4>)
 8003ee0:	681b      	ldr	r3, [r3, #0]
 8003ee2:	f023 6380 	bic.w	r3, r3, #67108864	; 0x4000000
 8003ee6:	6013      	str	r3, [r2, #0]

    /* Get Start Tick*/
    tickstart = HAL_GetTick();
 8003ee8:	f7fd fd6c 	bl	80019c4 <HAL_GetTick>
 8003eec:	64b8      	str	r0, [r7, #72]	; 0x48

    /* Wait till PLLSAI1 is ready to be updated */
    while(READ_BIT(RCC->CR, RCC_CR_PLLSAI1RDY) != RESET)
 8003eee:	e00a      	b.n	8003f06 <RCCEx_PLLSAI1_Config+0x13e>
    {
      if((HAL_GetTick() - tickstart) > PLLSAI1_TIMEOUT_VALUE)
 8003ef0:	f7fd fd68 	bl	80019c4 <HAL_GetTick>
 8003ef4:	4602      	mov	r2, r0
 8003ef6:	6cbb      	ldr	r3, [r7, #72]	; 0x48
 8003ef8:	1ad3      	subs	r3, r2, r3
 8003efa:	2b02      	cmp	r3, #2
 8003efc:	d903      	bls.n	8003f06 <RCCEx_PLLSAI1_Config+0x13e>
      {
        status = HAL_TIMEOUT;
 8003efe:	2303      	movs	r3, #3
 8003f00:	f887 304f 	strb.w	r3, [r7, #79]	; 0x4f
        break;
 8003f04:	e005      	b.n	8003f12 <RCCEx_PLLSAI1_Config+0x14a>
    while(READ_BIT(RCC->CR, RCC_CR_PLLSAI1RDY) != RESET)
 8003f06:	4b59      	ldr	r3, [pc, #356]	; (800406c <RCCEx_PLLSAI1_Config+0x2a4>)
 8003f08:	681b      	ldr	r3, [r3, #0]
 8003f0a:	f003 6300 	and.w	r3, r3, #134217728	; 0x8000000
 8003f0e:	2b00      	cmp	r3, #0
 8003f10:	d1ee      	bne.n	8003ef0 <RCCEx_PLLSAI1_Config+0x128>
      }
    }

    if(status == HAL_OK)    
 8003f12:	f897 304f 	ldrb.w	r3, [r7, #79]	; 0x4f
 8003f16:	2b00      	cmp	r3, #0
 8003f18:	f040 80a1 	bne.w	800405e <RCCEx_PLLSAI1_Config+0x296>
    {
      if(Divider == DIVIDER_P_UPDATE)
 8003f1c:	683b      	ldr	r3, [r7, #0]
 8003f1e:	2b00      	cmp	r3, #0
 8003f20:	d125      	bne.n	8003f6e <RCCEx_PLLSAI1_Config+0x1a6>
      {
        assert_param(IS_RCC_PLLSAI1P_VALUE(PllSai1->PLLSAI1P));
        /* Configure the PLLSAI1 Division factor P and Multiplication factor N*/
#if defined(RCC_PLLSAI1P_DIV_2_31_SUPPORT)
        MODIFY_REG(RCC->PLLSAI1CFGR, 
 8003f22:	4c52      	ldr	r4, [pc, #328]	; (800406c <RCCEx_PLLSAI1_Config+0x2a4>)
 8003f24:	4b51      	ldr	r3, [pc, #324]	; (800406c <RCCEx_PLLSAI1_Config+0x2a4>)
 8003f26:	691b      	ldr	r3, [r3, #16]
 8003f28:	f023 4378 	bic.w	r3, r3, #4160749568	; 0xf8000000
 8003f2c:	f423 43fe 	bic.w	r3, r3, #32512	; 0x7f00
 8003f30:	687a      	ldr	r2, [r7, #4]
 8003f32:	6891      	ldr	r1, [r2, #8]
 8003f34:	f44f 42fe 	mov.w	r2, #32512	; 0x7f00
 8003f38:	62fa      	str	r2, [r7, #44]	; 0x2c
   __ASM volatile ("rbit %0, %1" : "=r" (result) : "r" (value) );
 8003f3a:	6afa      	ldr	r2, [r7, #44]	; 0x2c
 8003f3c:	fa92 f2a2 	rbit	r2, r2
 8003f40:	62ba      	str	r2, [r7, #40]	; 0x28
  return(result);
 8003f42:	6aba      	ldr	r2, [r7, #40]	; 0x28
 8003f44:	fab2 f282 	clz	r2, r2
 8003f48:	4091      	lsls	r1, r2
 8003f4a:	687a      	ldr	r2, [r7, #4]
 8003f4c:	68d0      	ldr	r0, [r2, #12]
 8003f4e:	f04f 4278 	mov.w	r2, #4160749568	; 0xf8000000
 8003f52:	637a      	str	r2, [r7, #52]	; 0x34
   __ASM volatile ("rbit %0, %1" : "=r" (result) : "r" (value) );
 8003f54:	6b7a      	ldr	r2, [r7, #52]	; 0x34
 8003f56:	fa92 f2a2 	rbit	r2, r2
 8003f5a:	633a      	str	r2, [r7, #48]	; 0x30
  return(result);
 8003f5c:	6b3a      	ldr	r2, [r7, #48]	; 0x30
 8003f5e:	fab2 f282 	clz	r2, r2
 8003f62:	fa00 f202 	lsl.w	r2, r0, r2
 8003f66:	430a      	orrs	r2, r1
 8003f68:	4313      	orrs	r3, r2
 8003f6a:	6123      	str	r3, [r4, #16]
 8003f6c:	e051      	b.n	8004012 <RCCEx_PLLSAI1_Config+0x24a>
                   RCC_PLLSAI1CFGR_PLLSAI1N | RCC_PLLSAI1CFGR_PLLSAI1P, 
                   (PllSai1->PLLSAI1N << POSITION_VAL(RCC_PLLSAI1CFGR_PLLSAI1N)) | 
                   ((PllSai1->PLLSAI1P >> 4U) << POSITION_VAL(RCC_PLLSAI1CFGR_PLLSAI1P)));
#endif /* RCC_PLLSAI1P_DIV_2_31_SUPPORT */
      }
      else if(Divider == DIVIDER_Q_UPDATE)
 8003f6e:	683b      	ldr	r3, [r7, #0]
 8003f70:	2b01      	cmp	r3, #1
 8003f72:	d127      	bne.n	8003fc4 <RCCEx_PLLSAI1_Config+0x1fc>
      {
        assert_param(IS_RCC_PLLSAI1Q_VALUE(PllSai1->PLLSAI1Q));
        /* Configure the PLLSAI1 Division factor Q and Multiplication factor N*/
        MODIFY_REG(RCC->PLLSAI1CFGR, 
 8003f74:	4c3d      	ldr	r4, [pc, #244]	; (800406c <RCCEx_PLLSAI1_Config+0x2a4>)
 8003f76:	4b3d      	ldr	r3, [pc, #244]	; (800406c <RCCEx_PLLSAI1_Config+0x2a4>)
 8003f78:	691b      	ldr	r3, [r3, #16]
 8003f7a:	f423 03c0 	bic.w	r3, r3, #6291456	; 0x600000
 8003f7e:	f423 43fe 	bic.w	r3, r3, #32512	; 0x7f00
 8003f82:	687a      	ldr	r2, [r7, #4]
 8003f84:	6891      	ldr	r1, [r2, #8]
 8003f86:	f44f 42fe 	mov.w	r2, #32512	; 0x7f00
 8003f8a:	61fa      	str	r2, [r7, #28]
   __ASM volatile ("rbit %0, %1" : "=r" (result) : "r" (value) );
 8003f8c:	69fa      	ldr	r2, [r7, #28]
 8003f8e:	fa92 f2a2 	rbit	r2, r2
 8003f92:	61ba      	str	r2, [r7, #24]
  return(result);
 8003f94:	69ba      	ldr	r2, [r7, #24]
 8003f96:	fab2 f282 	clz	r2, r2
 8003f9a:	4091      	lsls	r1, r2
 8003f9c:	687a      	ldr	r2, [r7, #4]
 8003f9e:	6912      	ldr	r2, [r2, #16]
 8003fa0:	0852      	lsrs	r2, r2, #1
 8003fa2:	1e50      	subs	r0, r2, #1
 8003fa4:	f44f 02c0 	mov.w	r2, #6291456	; 0x600000
 8003fa8:	627a      	str	r2, [r7, #36]	; 0x24
   __ASM volatile ("rbit %0, %1" : "=r" (result) : "r" (value) );
 8003faa:	6a7a      	ldr	r2, [r7, #36]	; 0x24
 8003fac:	fa92 f2a2 	rbit	r2, r2
 8003fb0:	623a      	str	r2, [r7, #32]
  return(result);
 8003fb2:	6a3a      	ldr	r2, [r7, #32]
 8003fb4:	fab2 f282 	clz	r2, r2
 8003fb8:	fa00 f202 	lsl.w	r2, r0, r2
 8003fbc:	430a      	orrs	r2, r1
 8003fbe:	4313      	orrs	r3, r2
 8003fc0:	6123      	str	r3, [r4, #16]
 8003fc2:	e026      	b.n	8004012 <RCCEx_PLLSAI1_Config+0x24a>
      }
      else
      {
        assert_param(IS_RCC_PLLSAI1R_VALUE(PllSai1->PLLSAI1R));
        /* Configure the PLLSAI1 Division factor R and Multiplication factor N*/
        MODIFY_REG(RCC->PLLSAI1CFGR, 
 8003fc4:	4c29      	ldr	r4, [pc, #164]	; (800406c <RCCEx_PLLSAI1_Config+0x2a4>)
 8003fc6:	4b29      	ldr	r3, [pc, #164]	; (800406c <RCCEx_PLLSAI1_Config+0x2a4>)
 8003fc8:	691b      	ldr	r3, [r3, #16]
 8003fca:	f023 63c0 	bic.w	r3, r3, #100663296	; 0x6000000
 8003fce:	f423 43fe 	bic.w	r3, r3, #32512	; 0x7f00
 8003fd2:	687a      	ldr	r2, [r7, #4]
 8003fd4:	6891      	ldr	r1, [r2, #8]
 8003fd6:	f44f 42fe 	mov.w	r2, #32512	; 0x7f00
 8003fda:	60fa      	str	r2, [r7, #12]
   __ASM volatile ("rbit %0, %1" : "=r" (result) : "r" (value) );
 8003fdc:	68fa      	ldr	r2, [r7, #12]
 8003fde:	fa92 f2a2 	rbit	r2, r2
 8003fe2:	60ba      	str	r2, [r7, #8]
  return(result);
 8003fe4:	68ba      	ldr	r2, [r7, #8]
 8003fe6:	fab2 f282 	clz	r2, r2
 8003fea:	4091      	lsls	r1, r2
 8003fec:	687a      	ldr	r2, [r7, #4]
 8003fee:	6952      	ldr	r2, [r2, #20]
 8003ff0:	0852      	lsrs	r2, r2, #1
 8003ff2:	1e50      	subs	r0, r2, #1
 8003ff4:	f04f 62c0 	mov.w	r2, #100663296	; 0x6000000
 8003ff8:	617a      	str	r2, [r7, #20]
   __ASM volatile ("rbit %0, %1" : "=r" (result) : "r" (value) );
 8003ffa:	697a      	ldr	r2, [r7, #20]
 8003ffc:	fa92 f2a2 	rbit	r2, r2
 8004000:	613a      	str	r2, [r7, #16]
  return(result);
 8004002:	693a      	ldr	r2, [r7, #16]
 8004004:	fab2 f282 	clz	r2, r2
 8004008:	fa00 f202 	lsl.w	r2, r0, r2
 800400c:	430a      	orrs	r2, r1
 800400e:	4313      	orrs	r3, r2
 8004010:	6123      	str	r3, [r4, #16]
                   (PllSai1->PLLSAI1N << POSITION_VAL(RCC_PLLSAI1CFGR_PLLSAI1N)) | 
                   (((PllSai1->PLLSAI1R >> 1U) - 1U) << POSITION_VAL(RCC_PLLSAI1CFGR_PLLSAI1R)));
      }

      /* Enable the PLLSAI1 again by setting PLLSAI1ON to 1*/
      __HAL_RCC_PLLSAI1_ENABLE();
 8004012:	4a16      	ldr	r2, [pc, #88]	; (800406c <RCCEx_PLLSAI1_Config+0x2a4>)
 8004014:	4b15      	ldr	r3, [pc, #84]	; (800406c <RCCEx_PLLSAI1_Config+0x2a4>)
 8004016:	681b      	ldr	r3, [r3, #0]
 8004018:	f043 6380 	orr.w	r3, r3, #67108864	; 0x4000000
 800401c:	6013      	str	r3, [r2, #0]

      /* Get Start Tick*/
      tickstart = HAL_GetTick();
 800401e:	f7fd fcd1 	bl	80019c4 <HAL_GetTick>
 8004022:	64b8      	str	r0, [r7, #72]	; 0x48

      /* Wait till PLLSAI1 is ready */
      while(READ_BIT(RCC->CR, RCC_CR_PLLSAI1RDY) == RESET)
 8004024:	e00a      	b.n	800403c <RCCEx_PLLSAI1_Config+0x274>
      {
        if((HAL_GetTick() - tickstart) > PLLSAI1_TIMEOUT_VALUE)
 8004026:	f7fd fccd 	bl	80019c4 <HAL_GetTick>
 800402a:	4602      	mov	r2, r0
 800402c:	6cbb      	ldr	r3, [r7, #72]	; 0x48
 800402e:	1ad3      	subs	r3, r2, r3
 8004030:	2b02      	cmp	r3, #2
 8004032:	d903      	bls.n	800403c <RCCEx_PLLSAI1_Config+0x274>
        {
          status = HAL_TIMEOUT;
 8004034:	2303      	movs	r3, #3
 8004036:	f887 304f 	strb.w	r3, [r7, #79]	; 0x4f
          break;
 800403a:	e005      	b.n	8004048 <RCCEx_PLLSAI1_Config+0x280>
      while(READ_BIT(RCC->CR, RCC_CR_PLLSAI1RDY) == RESET)
 800403c:	4b0b      	ldr	r3, [pc, #44]	; (800406c <RCCEx_PLLSAI1_Config+0x2a4>)
 800403e:	681b      	ldr	r3, [r3, #0]
 8004040:	f003 6300 	and.w	r3, r3, #134217728	; 0x8000000
 8004044:	2b00      	cmp	r3, #0
 8004046:	d0ee      	beq.n	8004026 <RCCEx_PLLSAI1_Config+0x25e>
        }
      }

      if(status == HAL_OK)    
 8004048:	f897 304f 	ldrb.w	r3, [r7, #79]	; 0x4f
 800404c:	2b00      	cmp	r3, #0
 800404e:	d106      	bne.n	800405e <RCCEx_PLLSAI1_Config+0x296>
      {
        /* Configure the PLLSAI1 Clock output(s) */
        __HAL_RCC_PLLSAI1CLKOUT_ENABLE(PllSai1->PLLSAI1ClockOut);
 8004050:	4906      	ldr	r1, [pc, #24]	; (800406c <RCCEx_PLLSAI1_Config+0x2a4>)
 8004052:	4b06      	ldr	r3, [pc, #24]	; (800406c <RCCEx_PLLSAI1_Config+0x2a4>)
 8004054:	691a      	ldr	r2, [r3, #16]
 8004056:	687b      	ldr	r3, [r7, #4]
 8004058:	699b      	ldr	r3, [r3, #24]
 800405a:	4313      	orrs	r3, r2
 800405c:	610b      	str	r3, [r1, #16]
      }
    }
  }
  
  return status;
 800405e:	f897 304f 	ldrb.w	r3, [r7, #79]	; 0x4f
}
 8004062:	4618      	mov	r0, r3
 8004064:	3754      	adds	r7, #84	; 0x54
 8004066:	46bd      	mov	sp, r7
 8004068:	bd90      	pop	{r4, r7, pc}
 800406a:	bf00      	nop
 800406c:	40021000 	.word	0x40021000

08004070 <HAL_SPI_Init>:
  * @param  hspi: pointer to a SPI_HandleTypeDef structure that contains
  *               the configuration information for SPI module.
  * @retval HAL status
  */
HAL_StatusTypeDef HAL_SPI_Init(SPI_HandleTypeDef *hspi)
{
 8004070:	b580      	push	{r7, lr}
 8004072:	b084      	sub	sp, #16
 8004074:	af00      	add	r7, sp, #0
 8004076:	6078      	str	r0, [r7, #4]
  uint32_t frxth;

  /* Check the SPI handle allocation */
  if (hspi == NULL)
 8004078:	687b      	ldr	r3, [r7, #4]
 800407a:	2b00      	cmp	r3, #0
 800407c:	d101      	bne.n	8004082 <HAL_SPI_Init+0x12>
  {
    return HAL_ERROR;
 800407e:	2301      	movs	r3, #1
 8004080:	e07a      	b.n	8004178 <HAL_SPI_Init+0x108>
  {
    assert_param(IS_SPI_CRC_POLYNOMIAL(hspi->Init.CRCPolynomial));
    assert_param(IS_SPI_CRC_LENGTH(hspi->Init.CRCLength));
  }
#else
  hspi->Init.CRCCalculation = SPI_CRCCALCULATION_DISABLE;
 8004082:	687b      	ldr	r3, [r7, #4]
 8004084:	2200      	movs	r2, #0
 8004086:	629a      	str	r2, [r3, #40]	; 0x28
#endif /* USE_SPI_CRC */

  if (hspi->State == HAL_SPI_STATE_RESET)
 8004088:	687b      	ldr	r3, [r7, #4]
 800408a:	f893 305d 	ldrb.w	r3, [r3, #93]	; 0x5d
 800408e:	b2db      	uxtb	r3, r3
 8004090:	2b00      	cmp	r3, #0
 8004092:	d106      	bne.n	80040a2 <HAL_SPI_Init+0x32>
  {
    /* Allocate lock resource and initialize it */
    hspi->Lock = HAL_UNLOCKED;
 8004094:	687b      	ldr	r3, [r7, #4]
 8004096:	2200      	movs	r2, #0
 8004098:	f883 205c 	strb.w	r2, [r3, #92]	; 0x5c

    /* Init the low level hardware : GPIO, CLOCK, NVIC... */
    HAL_SPI_MspInit(hspi);
 800409c:	6878      	ldr	r0, [r7, #4]
 800409e:	f003 fc23 	bl	80078e8 <HAL_SPI_MspInit>
  }

  hspi->State = HAL_SPI_STATE_BUSY;
 80040a2:	687b      	ldr	r3, [r7, #4]
 80040a4:	2202      	movs	r2, #2
 80040a6:	f883 205d 	strb.w	r2, [r3, #93]	; 0x5d

  /* Disable the selected SPI peripheral */
  __HAL_SPI_DISABLE(hspi);
 80040aa:	687b      	ldr	r3, [r7, #4]
 80040ac:	681b      	ldr	r3, [r3, #0]
 80040ae:	687a      	ldr	r2, [r7, #4]
 80040b0:	6812      	ldr	r2, [r2, #0]
 80040b2:	6812      	ldr	r2, [r2, #0]
 80040b4:	f022 0240 	bic.w	r2, r2, #64	; 0x40
 80040b8:	601a      	str	r2, [r3, #0]

  /* Align by default the rs fifo threshold on the data size */
  if (hspi->Init.DataSize > SPI_DATASIZE_8BIT)
 80040ba:	687b      	ldr	r3, [r7, #4]
 80040bc:	68db      	ldr	r3, [r3, #12]
 80040be:	f5b3 6fe0 	cmp.w	r3, #1792	; 0x700
 80040c2:	d902      	bls.n	80040ca <HAL_SPI_Init+0x5a>
  {
    frxth = SPI_RXFIFO_THRESHOLD_HF;
 80040c4:	2300      	movs	r3, #0
 80040c6:	60fb      	str	r3, [r7, #12]
 80040c8:	e002      	b.n	80040d0 <HAL_SPI_Init+0x60>
  }
  else
  {
    frxth = SPI_RXFIFO_THRESHOLD_QF;
 80040ca:	f44f 5380 	mov.w	r3, #4096	; 0x1000
 80040ce:	60fb      	str	r3, [r7, #12]
  }

  /* CRC calculation is valid only for 16Bit and 8 Bit */
  if ((hspi->Init.DataSize != SPI_DATASIZE_16BIT) && (hspi->Init.DataSize != SPI_DATASIZE_8BIT))
 80040d0:	687b      	ldr	r3, [r7, #4]
 80040d2:	68db      	ldr	r3, [r3, #12]
 80040d4:	f5b3 6f70 	cmp.w	r3, #3840	; 0xf00
 80040d8:	d007      	beq.n	80040ea <HAL_SPI_Init+0x7a>
 80040da:	687b      	ldr	r3, [r7, #4]
 80040dc:	68db      	ldr	r3, [r3, #12]
 80040de:	f5b3 6fe0 	cmp.w	r3, #1792	; 0x700
 80040e2:	d002      	beq.n	80040ea <HAL_SPI_Init+0x7a>
  {
    /* CRC must be disabled */
    hspi->Init.CRCCalculation = SPI_CRCCALCULATION_DISABLE;
 80040e4:	687b      	ldr	r3, [r7, #4]
 80040e6:	2200      	movs	r2, #0
 80040e8:	629a      	str	r2, [r3, #40]	; 0x28
  }

  /* Align the CRC Length on the data size */
  if (hspi->Init.CRCLength == SPI_CRC_LENGTH_DATASIZE)
 80040ea:	687b      	ldr	r3, [r7, #4]
 80040ec:	6b1b      	ldr	r3, [r3, #48]	; 0x30
 80040ee:	2b00      	cmp	r3, #0
 80040f0:	d10b      	bne.n	800410a <HAL_SPI_Init+0x9a>
  {
    /* CRC Length aligned on the data size : value set by default */
    if (hspi->Init.DataSize > SPI_DATASIZE_8BIT)
 80040f2:	687b      	ldr	r3, [r7, #4]
 80040f4:	68db      	ldr	r3, [r3, #12]
 80040f6:	f5b3 6fe0 	cmp.w	r3, #1792	; 0x700
 80040fa:	d903      	bls.n	8004104 <HAL_SPI_Init+0x94>
    {
      hspi->Init.CRCLength = SPI_CRC_LENGTH_16BIT;
 80040fc:	687b      	ldr	r3, [r7, #4]
 80040fe:	2202      	movs	r2, #2
 8004100:	631a      	str	r2, [r3, #48]	; 0x30
 8004102:	e002      	b.n	800410a <HAL_SPI_Init+0x9a>
    }
    else
    {
      hspi->Init.CRCLength = SPI_CRC_LENGTH_8BIT;
 8004104:	687b      	ldr	r3, [r7, #4]
 8004106:	2201      	movs	r2, #1
 8004108:	631a      	str	r2, [r3, #48]	; 0x30
  }

  /*----------------------- SPIx CR1 & CR2 Configuration ---------------------*/
  /* Configure : SPI Mode, Communication Mode, Clock polarity and phase, NSS management,
  Communication speed, First bit, CRC calculation state */
  WRITE_REG(hspi->Instance->CR1, (hspi->Init.Mode | hspi->Init.Direction |
 800410a:	687b      	ldr	r3, [r7, #4]
 800410c:	681b      	ldr	r3, [r3, #0]
 800410e:	687a      	ldr	r2, [r7, #4]
 8004110:	6851      	ldr	r1, [r2, #4]
 8004112:	687a      	ldr	r2, [r7, #4]
 8004114:	6892      	ldr	r2, [r2, #8]
 8004116:	4311      	orrs	r1, r2
 8004118:	687a      	ldr	r2, [r7, #4]
 800411a:	6912      	ldr	r2, [r2, #16]
 800411c:	4311      	orrs	r1, r2
 800411e:	687a      	ldr	r2, [r7, #4]
 8004120:	6952      	ldr	r2, [r2, #20]
 8004122:	4311      	orrs	r1, r2
 8004124:	687a      	ldr	r2, [r7, #4]
 8004126:	6992      	ldr	r2, [r2, #24]
 8004128:	f402 7200 	and.w	r2, r2, #512	; 0x200
 800412c:	4311      	orrs	r1, r2
 800412e:	687a      	ldr	r2, [r7, #4]
 8004130:	69d2      	ldr	r2, [r2, #28]
 8004132:	4311      	orrs	r1, r2
 8004134:	687a      	ldr	r2, [r7, #4]
 8004136:	6a12      	ldr	r2, [r2, #32]
 8004138:	4311      	orrs	r1, r2
 800413a:	687a      	ldr	r2, [r7, #4]
 800413c:	6a92      	ldr	r2, [r2, #40]	; 0x28
 800413e:	430a      	orrs	r2, r1
 8004140:	601a      	str	r2, [r3, #0]
    hspi->Instance->CR1 |= SPI_CR1_CRCL;
  }
#endif /* USE_SPI_CRC */

  /* Configure : NSS management, TI Mode and Rx Fifo Threshold */
  WRITE_REG(hspi->Instance->CR2, (((hspi->Init.NSS >> 16) & SPI_CR2_SSOE) | hspi->Init.TIMode |
 8004142:	687b      	ldr	r3, [r7, #4]
 8004144:	681b      	ldr	r3, [r3, #0]
 8004146:	687a      	ldr	r2, [r7, #4]
 8004148:	6992      	ldr	r2, [r2, #24]
 800414a:	0c12      	lsrs	r2, r2, #16
 800414c:	f002 0104 	and.w	r1, r2, #4
 8004150:	687a      	ldr	r2, [r7, #4]
 8004152:	6a52      	ldr	r2, [r2, #36]	; 0x24
 8004154:	4311      	orrs	r1, r2
 8004156:	687a      	ldr	r2, [r7, #4]
 8004158:	6b52      	ldr	r2, [r2, #52]	; 0x34
 800415a:	4311      	orrs	r1, r2
 800415c:	687a      	ldr	r2, [r7, #4]
 800415e:	68d2      	ldr	r2, [r2, #12]
 8004160:	4311      	orrs	r1, r2
 8004162:	68fa      	ldr	r2, [r7, #12]
 8004164:	430a      	orrs	r2, r1
 8004166:	605a      	str	r2, [r3, #4]
#if defined(SPI_I2SCFGR_I2SMOD)
  /* Activate the SPI mode (Make sure that I2SMOD bit in I2SCFGR register is reset) */
  CLEAR_BIT(hspi->Instance->I2SCFGR, SPI_I2SCFGR_I2SMOD);
#endif /* SPI_I2SCFGR_I2SMOD */

  hspi->ErrorCode = HAL_SPI_ERROR_NONE;
 8004168:	687b      	ldr	r3, [r7, #4]
 800416a:	2200      	movs	r2, #0
 800416c:	661a      	str	r2, [r3, #96]	; 0x60
  hspi->State     = HAL_SPI_STATE_READY;
 800416e:	687b      	ldr	r3, [r7, #4]
 8004170:	2201      	movs	r2, #1
 8004172:	f883 205d 	strb.w	r2, [r3, #93]	; 0x5d

  return HAL_OK;
 8004176:	2300      	movs	r3, #0
}
 8004178:	4618      	mov	r0, r3
 800417a:	3710      	adds	r7, #16
 800417c:	46bd      	mov	sp, r7
 800417e:	bd80      	pop	{r7, pc}

08004180 <HAL_SPI_Transmit>:
  * @param  Size: amount of data to be sent
  * @param  Timeout: Timeout duration
  * @retval HAL status
  */
HAL_StatusTypeDef HAL_SPI_Transmit(SPI_HandleTypeDef *hspi, uint8_t *pData, uint16_t Size, uint32_t Timeout)
{
 8004180:	b580      	push	{r7, lr}
 8004182:	b088      	sub	sp, #32
 8004184:	af00      	add	r7, sp, #0
 8004186:	60f8      	str	r0, [r7, #12]
 8004188:	60b9      	str	r1, [r7, #8]
 800418a:	603b      	str	r3, [r7, #0]
 800418c:	4613      	mov	r3, r2
 800418e:	80fb      	strh	r3, [r7, #6]
  uint32_t tickstart = 0U;
 8004190:	2300      	movs	r3, #0
 8004192:	61bb      	str	r3, [r7, #24]
  HAL_StatusTypeDef errorcode = HAL_OK;
 8004194:	2300      	movs	r3, #0
 8004196:	77fb      	strb	r3, [r7, #31]

  /* Check Direction parameter */
  assert_param(IS_SPI_DIRECTION_2LINES_OR_1LINE(hspi->Init.Direction));

  /* Process Locked */
  __HAL_LOCK(hspi);
 8004198:	68fb      	ldr	r3, [r7, #12]
 800419a:	f893 305c 	ldrb.w	r3, [r3, #92]	; 0x5c
 800419e:	2b01      	cmp	r3, #1
 80041a0:	d101      	bne.n	80041a6 <HAL_SPI_Transmit+0x26>
 80041a2:	2302      	movs	r3, #2
 80041a4:	e13e      	b.n	8004424 <HAL_SPI_Transmit+0x2a4>
 80041a6:	68fb      	ldr	r3, [r7, #12]
 80041a8:	2201      	movs	r2, #1
 80041aa:	f883 205c 	strb.w	r2, [r3, #92]	; 0x5c

  /* Init tickstart for timeout management*/
  tickstart = HAL_GetTick();
 80041ae:	f7fd fc09 	bl	80019c4 <HAL_GetTick>
 80041b2:	61b8      	str	r0, [r7, #24]

  if (hspi->State != HAL_SPI_STATE_READY)
 80041b4:	68fb      	ldr	r3, [r7, #12]
 80041b6:	f893 305d 	ldrb.w	r3, [r3, #93]	; 0x5d
 80041ba:	b2db      	uxtb	r3, r3
 80041bc:	2b01      	cmp	r3, #1
 80041be:	d002      	beq.n	80041c6 <HAL_SPI_Transmit+0x46>
  {
    errorcode = HAL_BUSY;
 80041c0:	2302      	movs	r3, #2
 80041c2:	77fb      	strb	r3, [r7, #31]
    goto error;
 80041c4:	e125      	b.n	8004412 <HAL_SPI_Transmit+0x292>
  }

  if ((pData == NULL) || (Size == 0U))
 80041c6:	68bb      	ldr	r3, [r7, #8]
 80041c8:	2b00      	cmp	r3, #0
 80041ca:	d002      	beq.n	80041d2 <HAL_SPI_Transmit+0x52>
 80041cc:	88fb      	ldrh	r3, [r7, #6]
 80041ce:	2b00      	cmp	r3, #0
 80041d0:	d102      	bne.n	80041d8 <HAL_SPI_Transmit+0x58>
  {
    errorcode = HAL_ERROR;
 80041d2:	2301      	movs	r3, #1
 80041d4:	77fb      	strb	r3, [r7, #31]
    goto error;
 80041d6:	e11c      	b.n	8004412 <HAL_SPI_Transmit+0x292>
  }

  /* Set the transaction information */
  hspi->State       = HAL_SPI_STATE_BUSY_TX;
 80041d8:	68fb      	ldr	r3, [r7, #12]
 80041da:	2203      	movs	r2, #3
 80041dc:	f883 205d 	strb.w	r2, [r3, #93]	; 0x5d
  hspi->ErrorCode   = HAL_SPI_ERROR_NONE;
 80041e0:	68fb      	ldr	r3, [r7, #12]
 80041e2:	2200      	movs	r2, #0
 80041e4:	661a      	str	r2, [r3, #96]	; 0x60
  hspi->pTxBuffPtr  = (uint8_t *)pData;
 80041e6:	68fb      	ldr	r3, [r7, #12]
 80041e8:	68ba      	ldr	r2, [r7, #8]
 80041ea:	639a      	str	r2, [r3, #56]	; 0x38
  hspi->TxXferSize  = Size;
 80041ec:	68fb      	ldr	r3, [r7, #12]
 80041ee:	88fa      	ldrh	r2, [r7, #6]
 80041f0:	879a      	strh	r2, [r3, #60]	; 0x3c
  hspi->TxXferCount = Size;
 80041f2:	68fb      	ldr	r3, [r7, #12]
 80041f4:	88fa      	ldrh	r2, [r7, #6]
 80041f6:	87da      	strh	r2, [r3, #62]	; 0x3e

  /*Init field not used in handle to zero */
  hspi->pRxBuffPtr  = (uint8_t *)NULL;
 80041f8:	68fb      	ldr	r3, [r7, #12]
 80041fa:	2200      	movs	r2, #0
 80041fc:	641a      	str	r2, [r3, #64]	; 0x40
  hspi->RxXferSize  = 0U;
 80041fe:	68fb      	ldr	r3, [r7, #12]
 8004200:	2200      	movs	r2, #0
 8004202:	f8a3 2044 	strh.w	r2, [r3, #68]	; 0x44
  hspi->RxXferCount = 0U;
 8004206:	68fb      	ldr	r3, [r7, #12]
 8004208:	2200      	movs	r2, #0
 800420a:	f8a3 2046 	strh.w	r2, [r3, #70]	; 0x46
  hspi->TxISR       = NULL;
 800420e:	68fb      	ldr	r3, [r7, #12]
 8004210:	2200      	movs	r2, #0
 8004212:	651a      	str	r2, [r3, #80]	; 0x50
  hspi->RxISR       = NULL;
 8004214:	68fb      	ldr	r3, [r7, #12]
 8004216:	2200      	movs	r2, #0
 8004218:	64da      	str	r2, [r3, #76]	; 0x4c

  /* Configure communication direction : 1Line */
  if (hspi->Init.Direction == SPI_DIRECTION_1LINE)
 800421a:	68fb      	ldr	r3, [r7, #12]
 800421c:	689b      	ldr	r3, [r3, #8]
 800421e:	f5b3 4f00 	cmp.w	r3, #32768	; 0x8000
 8004222:	d107      	bne.n	8004234 <HAL_SPI_Transmit+0xb4>
  {
    SPI_1LINE_TX(hspi);
 8004224:	68fb      	ldr	r3, [r7, #12]
 8004226:	681b      	ldr	r3, [r3, #0]
 8004228:	68fa      	ldr	r2, [r7, #12]
 800422a:	6812      	ldr	r2, [r2, #0]
 800422c:	6812      	ldr	r2, [r2, #0]
 800422e:	f442 4280 	orr.w	r2, r2, #16384	; 0x4000
 8004232:	601a      	str	r2, [r3, #0]
    SPI_RESET_CRC(hspi);
  }
#endif /* USE_SPI_CRC */

  /* Check if the SPI is already enabled */
  if ((hspi->Instance->CR1 & SPI_CR1_SPE) != SPI_CR1_SPE)
 8004234:	68fb      	ldr	r3, [r7, #12]
 8004236:	681b      	ldr	r3, [r3, #0]
 8004238:	681b      	ldr	r3, [r3, #0]
 800423a:	f003 0340 	and.w	r3, r3, #64	; 0x40
 800423e:	2b40      	cmp	r3, #64	; 0x40
 8004240:	d007      	beq.n	8004252 <HAL_SPI_Transmit+0xd2>
  {
    /* Enable SPI peripheral */
    __HAL_SPI_ENABLE(hspi);
 8004242:	68fb      	ldr	r3, [r7, #12]
 8004244:	681b      	ldr	r3, [r3, #0]
 8004246:	68fa      	ldr	r2, [r7, #12]
 8004248:	6812      	ldr	r2, [r2, #0]
 800424a:	6812      	ldr	r2, [r2, #0]
 800424c:	f042 0240 	orr.w	r2, r2, #64	; 0x40
 8004250:	601a      	str	r2, [r3, #0]
  }

  /* Transmit data in 16 Bit mode */
  if (hspi->Init.DataSize > SPI_DATASIZE_8BIT)
 8004252:	68fb      	ldr	r3, [r7, #12]
 8004254:	68db      	ldr	r3, [r3, #12]
 8004256:	f5b3 6fe0 	cmp.w	r3, #1792	; 0x700
 800425a:	d947      	bls.n	80042ec <HAL_SPI_Transmit+0x16c>
  {
    if ((hspi->Init.Mode == SPI_MODE_SLAVE) || (hspi->TxXferCount == 0x01))
 800425c:	68fb      	ldr	r3, [r7, #12]
 800425e:	685b      	ldr	r3, [r3, #4]
 8004260:	2b00      	cmp	r3, #0
 8004262:	d004      	beq.n	800426e <HAL_SPI_Transmit+0xee>
 8004264:	68fb      	ldr	r3, [r7, #12]
 8004266:	8fdb      	ldrh	r3, [r3, #62]	; 0x3e
 8004268:	b29b      	uxth	r3, r3
 800426a:	2b01      	cmp	r3, #1
 800426c:	d138      	bne.n	80042e0 <HAL_SPI_Transmit+0x160>
    {
      hspi->Instance->DR = *((uint16_t *)pData);
 800426e:	68fb      	ldr	r3, [r7, #12]
 8004270:	681b      	ldr	r3, [r3, #0]
 8004272:	68ba      	ldr	r2, [r7, #8]
 8004274:	8812      	ldrh	r2, [r2, #0]
 8004276:	60da      	str	r2, [r3, #12]
      pData += sizeof(uint16_t);
 8004278:	68bb      	ldr	r3, [r7, #8]
 800427a:	3302      	adds	r3, #2
 800427c:	60bb      	str	r3, [r7, #8]
      hspi->TxXferCount--;
 800427e:	68fb      	ldr	r3, [r7, #12]
 8004280:	8fdb      	ldrh	r3, [r3, #62]	; 0x3e
 8004282:	b29b      	uxth	r3, r3
 8004284:	3b01      	subs	r3, #1
 8004286:	b29a      	uxth	r2, r3
 8004288:	68fb      	ldr	r3, [r7, #12]
 800428a:	87da      	strh	r2, [r3, #62]	; 0x3e
    }
    /* Transmit data in 16 Bit mode */
    while (hspi->TxXferCount > 0U)
 800428c:	e028      	b.n	80042e0 <HAL_SPI_Transmit+0x160>
    {
      /* Wait until TXE flag is set to send data */
      if (__HAL_SPI_GET_FLAG(hspi, SPI_FLAG_TXE))
 800428e:	68fb      	ldr	r3, [r7, #12]
 8004290:	681b      	ldr	r3, [r3, #0]
 8004292:	689b      	ldr	r3, [r3, #8]
 8004294:	f003 0302 	and.w	r3, r3, #2
 8004298:	2b02      	cmp	r3, #2
 800429a:	d10f      	bne.n	80042bc <HAL_SPI_Transmit+0x13c>
      {
        hspi->Instance->DR = *((uint16_t *)pData);
 800429c:	68fb      	ldr	r3, [r7, #12]
 800429e:	681b      	ldr	r3, [r3, #0]
 80042a0:	68ba      	ldr	r2, [r7, #8]
 80042a2:	8812      	ldrh	r2, [r2, #0]
 80042a4:	60da      	str	r2, [r3, #12]
        pData += sizeof(uint16_t);
 80042a6:	68bb      	ldr	r3, [r7, #8]
 80042a8:	3302      	adds	r3, #2
 80042aa:	60bb      	str	r3, [r7, #8]
        hspi->TxXferCount--;
 80042ac:	68fb      	ldr	r3, [r7, #12]
 80042ae:	8fdb      	ldrh	r3, [r3, #62]	; 0x3e
 80042b0:	b29b      	uxth	r3, r3
 80042b2:	3b01      	subs	r3, #1
 80042b4:	b29a      	uxth	r2, r3
 80042b6:	68fb      	ldr	r3, [r7, #12]
 80042b8:	87da      	strh	r2, [r3, #62]	; 0x3e
 80042ba:	e011      	b.n	80042e0 <HAL_SPI_Transmit+0x160>
      }
      else
      {
        /* Timeout management */
        if ((Timeout == 0U) || ((Timeout != HAL_MAX_DELAY) && ((HAL_GetTick() - tickstart) >=  Timeout)))
 80042bc:	683b      	ldr	r3, [r7, #0]
 80042be:	2b00      	cmp	r3, #0
 80042c0:	d00b      	beq.n	80042da <HAL_SPI_Transmit+0x15a>
 80042c2:	683b      	ldr	r3, [r7, #0]
 80042c4:	f1b3 3fff 	cmp.w	r3, #4294967295
 80042c8:	d00a      	beq.n	80042e0 <HAL_SPI_Transmit+0x160>
 80042ca:	f7fd fb7b 	bl	80019c4 <HAL_GetTick>
 80042ce:	4602      	mov	r2, r0
 80042d0:	69bb      	ldr	r3, [r7, #24]
 80042d2:	1ad2      	subs	r2, r2, r3
 80042d4:	683b      	ldr	r3, [r7, #0]
 80042d6:	429a      	cmp	r2, r3
 80042d8:	d302      	bcc.n	80042e0 <HAL_SPI_Transmit+0x160>
        {
          errorcode = HAL_TIMEOUT;
 80042da:	2303      	movs	r3, #3
 80042dc:	77fb      	strb	r3, [r7, #31]
          goto error;
 80042de:	e098      	b.n	8004412 <HAL_SPI_Transmit+0x292>
    while (hspi->TxXferCount > 0U)
 80042e0:	68fb      	ldr	r3, [r7, #12]
 80042e2:	8fdb      	ldrh	r3, [r3, #62]	; 0x3e
 80042e4:	b29b      	uxth	r3, r3
 80042e6:	2b00      	cmp	r3, #0
 80042e8:	d1d1      	bne.n	800428e <HAL_SPI_Transmit+0x10e>
 80042ea:	e072      	b.n	80043d2 <HAL_SPI_Transmit+0x252>
    }
  }
  /* Transmit data in 8 Bit mode */
  else
  {
    if ((hspi->Init.Mode == SPI_MODE_SLAVE) || (hspi->TxXferCount == 0x01))
 80042ec:	68fb      	ldr	r3, [r7, #12]
 80042ee:	685b      	ldr	r3, [r3, #4]
 80042f0:	2b00      	cmp	r3, #0
 80042f2:	d004      	beq.n	80042fe <HAL_SPI_Transmit+0x17e>
 80042f4:	68fb      	ldr	r3, [r7, #12]
 80042f6:	8fdb      	ldrh	r3, [r3, #62]	; 0x3e
 80042f8:	b29b      	uxth	r3, r3
 80042fa:	2b01      	cmp	r3, #1
 80042fc:	d164      	bne.n	80043c8 <HAL_SPI_Transmit+0x248>
    {
      if (hspi->TxXferCount > 1U)
 80042fe:	68fb      	ldr	r3, [r7, #12]
 8004300:	8fdb      	ldrh	r3, [r3, #62]	; 0x3e
 8004302:	b29b      	uxth	r3, r3
 8004304:	2b01      	cmp	r3, #1
 8004306:	d90f      	bls.n	8004328 <HAL_SPI_Transmit+0x1a8>
      {
        /* write on the data register in packing mode */
        hspi->Instance->DR = *((uint16_t *)pData);
 8004308:	68fb      	ldr	r3, [r7, #12]
 800430a:	681b      	ldr	r3, [r3, #0]
 800430c:	68ba      	ldr	r2, [r7, #8]
 800430e:	8812      	ldrh	r2, [r2, #0]
 8004310:	60da      	str	r2, [r3, #12]
        pData += sizeof(uint16_t);
 8004312:	68bb      	ldr	r3, [r7, #8]
 8004314:	3302      	adds	r3, #2
 8004316:	60bb      	str	r3, [r7, #8]
        hspi->TxXferCount -= 2U;
 8004318:	68fb      	ldr	r3, [r7, #12]
 800431a:	8fdb      	ldrh	r3, [r3, #62]	; 0x3e
 800431c:	b29b      	uxth	r3, r3
 800431e:	3b02      	subs	r3, #2
 8004320:	b29a      	uxth	r2, r3
 8004322:	68fb      	ldr	r3, [r7, #12]
 8004324:	87da      	strh	r2, [r3, #62]	; 0x3e
 8004326:	e04f      	b.n	80043c8 <HAL_SPI_Transmit+0x248>
      }
      else
      {
        *((__IO uint8_t *)&hspi->Instance->DR) = (*pData++);
 8004328:	68fb      	ldr	r3, [r7, #12]
 800432a:	681b      	ldr	r3, [r3, #0]
 800432c:	f103 020c 	add.w	r2, r3, #12
 8004330:	68bb      	ldr	r3, [r7, #8]
 8004332:	1c59      	adds	r1, r3, #1
 8004334:	60b9      	str	r1, [r7, #8]
 8004336:	781b      	ldrb	r3, [r3, #0]
 8004338:	7013      	strb	r3, [r2, #0]
        hspi->TxXferCount--;
 800433a:	68fb      	ldr	r3, [r7, #12]
 800433c:	8fdb      	ldrh	r3, [r3, #62]	; 0x3e
 800433e:	b29b      	uxth	r3, r3
 8004340:	3b01      	subs	r3, #1
 8004342:	b29a      	uxth	r2, r3
 8004344:	68fb      	ldr	r3, [r7, #12]
 8004346:	87da      	strh	r2, [r3, #62]	; 0x3e
      }
    }
    while (hspi->TxXferCount > 0U)
 8004348:	e03e      	b.n	80043c8 <HAL_SPI_Transmit+0x248>
    {
      /* Wait until TXE flag is set to send data */
      if (__HAL_SPI_GET_FLAG(hspi, SPI_FLAG_TXE))
 800434a:	68fb      	ldr	r3, [r7, #12]
 800434c:	681b      	ldr	r3, [r3, #0]
 800434e:	689b      	ldr	r3, [r3, #8]
 8004350:	f003 0302 	and.w	r3, r3, #2
 8004354:	2b02      	cmp	r3, #2
 8004356:	d125      	bne.n	80043a4 <HAL_SPI_Transmit+0x224>
      {
        if (hspi->TxXferCount > 1U)
 8004358:	68fb      	ldr	r3, [r7, #12]
 800435a:	8fdb      	ldrh	r3, [r3, #62]	; 0x3e
 800435c:	b29b      	uxth	r3, r3
 800435e:	2b01      	cmp	r3, #1
 8004360:	d90f      	bls.n	8004382 <HAL_SPI_Transmit+0x202>
        {
          /* write on the data register in packing mode */
          hspi->Instance->DR = *((uint16_t *)pData);
 8004362:	68fb      	ldr	r3, [r7, #12]
 8004364:	681b      	ldr	r3, [r3, #0]
 8004366:	68ba      	ldr	r2, [r7, #8]
 8004368:	8812      	ldrh	r2, [r2, #0]
 800436a:	60da      	str	r2, [r3, #12]
          pData += sizeof(uint16_t);
 800436c:	68bb      	ldr	r3, [r7, #8]
 800436e:	3302      	adds	r3, #2
 8004370:	60bb      	str	r3, [r7, #8]
          hspi->TxXferCount -= 2U;
 8004372:	68fb      	ldr	r3, [r7, #12]
 8004374:	8fdb      	ldrh	r3, [r3, #62]	; 0x3e
 8004376:	b29b      	uxth	r3, r3
 8004378:	3b02      	subs	r3, #2
 800437a:	b29a      	uxth	r2, r3
 800437c:	68fb      	ldr	r3, [r7, #12]
 800437e:	87da      	strh	r2, [r3, #62]	; 0x3e
 8004380:	e022      	b.n	80043c8 <HAL_SPI_Transmit+0x248>
        }
        else
        {
          *((__IO uint8_t *)&hspi->Instance->DR) = (*pData++);
 8004382:	68fb      	ldr	r3, [r7, #12]
 8004384:	681b      	ldr	r3, [r3, #0]
 8004386:	f103 020c 	add.w	r2, r3, #12
 800438a:	68bb      	ldr	r3, [r7, #8]
 800438c:	1c59      	adds	r1, r3, #1
 800438e:	60b9      	str	r1, [r7, #8]
 8004390:	781b      	ldrb	r3, [r3, #0]
 8004392:	7013      	strb	r3, [r2, #0]
          hspi->TxXferCount--;
 8004394:	68fb      	ldr	r3, [r7, #12]
 8004396:	8fdb      	ldrh	r3, [r3, #62]	; 0x3e
 8004398:	b29b      	uxth	r3, r3
 800439a:	3b01      	subs	r3, #1
 800439c:	b29a      	uxth	r2, r3
 800439e:	68fb      	ldr	r3, [r7, #12]
 80043a0:	87da      	strh	r2, [r3, #62]	; 0x3e
 80043a2:	e011      	b.n	80043c8 <HAL_SPI_Transmit+0x248>
        }
      }
      else
      {
        /* Timeout management */
        if ((Timeout == 0U) || ((Timeout != HAL_MAX_DELAY) && ((HAL_GetTick() - tickstart) >=  Timeout)))
 80043a4:	683b      	ldr	r3, [r7, #0]
 80043a6:	2b00      	cmp	r3, #0
 80043a8:	d00b      	beq.n	80043c2 <HAL_SPI_Transmit+0x242>
 80043aa:	683b      	ldr	r3, [r7, #0]
 80043ac:	f1b3 3fff 	cmp.w	r3, #4294967295
 80043b0:	d00a      	beq.n	80043c8 <HAL_SPI_Transmit+0x248>
 80043b2:	f7fd fb07 	bl	80019c4 <HAL_GetTick>
 80043b6:	4602      	mov	r2, r0
 80043b8:	69bb      	ldr	r3, [r7, #24]
 80043ba:	1ad2      	subs	r2, r2, r3
 80043bc:	683b      	ldr	r3, [r7, #0]
 80043be:	429a      	cmp	r2, r3
 80043c0:	d302      	bcc.n	80043c8 <HAL_SPI_Transmit+0x248>
        {
          errorcode = HAL_TIMEOUT;
 80043c2:	2303      	movs	r3, #3
 80043c4:	77fb      	strb	r3, [r7, #31]
          goto error;
 80043c6:	e024      	b.n	8004412 <HAL_SPI_Transmit+0x292>
    while (hspi->TxXferCount > 0U)
 80043c8:	68fb      	ldr	r3, [r7, #12]
 80043ca:	8fdb      	ldrh	r3, [r3, #62]	; 0x3e
 80043cc:	b29b      	uxth	r3, r3
 80043ce:	2b00      	cmp	r3, #0
 80043d0:	d1bb      	bne.n	800434a <HAL_SPI_Transmit+0x1ca>
    SET_BIT(hspi->Instance->CR1, SPI_CR1_CRCNEXT);
  }
#endif /* USE_SPI_CRC */

  /* Check the end of the transaction */
  if (SPI_EndRxTxTransaction(hspi, Timeout, tickstart) != HAL_OK)
 80043d2:	69ba      	ldr	r2, [r7, #24]
 80043d4:	6839      	ldr	r1, [r7, #0]
 80043d6:	68f8      	ldr	r0, [r7, #12]
 80043d8:	f000 fb01 	bl	80049de <SPI_EndRxTxTransaction>
 80043dc:	4603      	mov	r3, r0
 80043de:	2b00      	cmp	r3, #0
 80043e0:	d002      	beq.n	80043e8 <HAL_SPI_Transmit+0x268>
  {
    hspi->ErrorCode = HAL_SPI_ERROR_FLAG;
 80043e2:	68fb      	ldr	r3, [r7, #12]
 80043e4:	2220      	movs	r2, #32
 80043e6:	661a      	str	r2, [r3, #96]	; 0x60
  }

  /* Clear overrun flag in 2 Lines communication mode because received is not read */
  if (hspi->Init.Direction == SPI_DIRECTION_2LINES)
 80043e8:	68fb      	ldr	r3, [r7, #12]
 80043ea:	689b      	ldr	r3, [r3, #8]
 80043ec:	2b00      	cmp	r3, #0
 80043ee:	d10a      	bne.n	8004406 <HAL_SPI_Transmit+0x286>
  {
    __HAL_SPI_CLEAR_OVRFLAG(hspi);
 80043f0:	2300      	movs	r3, #0
 80043f2:	617b      	str	r3, [r7, #20]
 80043f4:	68fb      	ldr	r3, [r7, #12]
 80043f6:	681b      	ldr	r3, [r3, #0]
 80043f8:	68db      	ldr	r3, [r3, #12]
 80043fa:	617b      	str	r3, [r7, #20]
 80043fc:	68fb      	ldr	r3, [r7, #12]
 80043fe:	681b      	ldr	r3, [r3, #0]
 8004400:	689b      	ldr	r3, [r3, #8]
 8004402:	617b      	str	r3, [r7, #20]
 8004404:	697b      	ldr	r3, [r7, #20]
  }

  if (hspi->ErrorCode != HAL_SPI_ERROR_NONE)
 8004406:	68fb      	ldr	r3, [r7, #12]
 8004408:	6e1b      	ldr	r3, [r3, #96]	; 0x60
 800440a:	2b00      	cmp	r3, #0
 800440c:	d001      	beq.n	8004412 <HAL_SPI_Transmit+0x292>
  {
    errorcode = HAL_ERROR;
 800440e:	2301      	movs	r3, #1
 8004410:	77fb      	strb	r3, [r7, #31]
  }

error:
  hspi->State = HAL_SPI_STATE_READY;
 8004412:	68fb      	ldr	r3, [r7, #12]
 8004414:	2201      	movs	r2, #1
 8004416:	f883 205d 	strb.w	r2, [r3, #93]	; 0x5d
  /* Process Unlocked */
  __HAL_UNLOCK(hspi);
 800441a:	68fb      	ldr	r3, [r7, #12]
 800441c:	2200      	movs	r2, #0
 800441e:	f883 205c 	strb.w	r2, [r3, #92]	; 0x5c
  return errorcode;
 8004422:	7ffb      	ldrb	r3, [r7, #31]
}
 8004424:	4618      	mov	r0, r3
 8004426:	3720      	adds	r7, #32
 8004428:	46bd      	mov	sp, r7
 800442a:	bd80      	pop	{r7, pc}

0800442c <HAL_SPI_TransmitReceive>:
  * @param  Timeout: Timeout duration
  * @retval HAL status
  */
HAL_StatusTypeDef HAL_SPI_TransmitReceive(SPI_HandleTypeDef *hspi, uint8_t *pTxData, uint8_t *pRxData, uint16_t Size,
                                          uint32_t Timeout)
{
 800442c:	b580      	push	{r7, lr}
 800442e:	b08a      	sub	sp, #40	; 0x28
 8004430:	af00      	add	r7, sp, #0
 8004432:	60f8      	str	r0, [r7, #12]
 8004434:	60b9      	str	r1, [r7, #8]
 8004436:	607a      	str	r2, [r7, #4]
 8004438:	807b      	strh	r3, [r7, #2]
  uint32_t tmp = 0U, tmp1 = 0U;
 800443a:	2300      	movs	r3, #0
 800443c:	61fb      	str	r3, [r7, #28]
 800443e:	2300      	movs	r3, #0
 8004440:	61bb      	str	r3, [r7, #24]
#if (USE_SPI_CRC != 0U)
  __IO uint16_t tmpreg = 0U;
#endif /* USE_SPI_CRC */
  uint32_t tickstart = 0U;
 8004442:	2300      	movs	r3, #0
 8004444:	617b      	str	r3, [r7, #20]
  /* Variable used to alternate Rx and Tx during transfer */
  uint32_t txallowed = 1U;
 8004446:	2301      	movs	r3, #1
 8004448:	627b      	str	r3, [r7, #36]	; 0x24
  HAL_StatusTypeDef errorcode = HAL_OK;
 800444a:	2300      	movs	r3, #0
 800444c:	f887 3023 	strb.w	r3, [r7, #35]	; 0x23

  /* Check Direction parameter */
  assert_param(IS_SPI_DIRECTION_2LINES(hspi->Init.Direction));

  /* Process Locked */
  __HAL_LOCK(hspi);
 8004450:	68fb      	ldr	r3, [r7, #12]
 8004452:	f893 305c 	ldrb.w	r3, [r3, #92]	; 0x5c
 8004456:	2b01      	cmp	r3, #1
 8004458:	d101      	bne.n	800445e <HAL_SPI_TransmitReceive+0x32>
 800445a:	2302      	movs	r3, #2
 800445c:	e1e1      	b.n	8004822 <HAL_SPI_TransmitReceive+0x3f6>
 800445e:	68fb      	ldr	r3, [r7, #12]
 8004460:	2201      	movs	r2, #1
 8004462:	f883 205c 	strb.w	r2, [r3, #92]	; 0x5c

  /* Init tickstart for timeout management*/
  tickstart = HAL_GetTick();
 8004466:	f7fd faad 	bl	80019c4 <HAL_GetTick>
 800446a:	6178      	str	r0, [r7, #20]

  tmp  = hspi->State;
 800446c:	68fb      	ldr	r3, [r7, #12]
 800446e:	f893 305d 	ldrb.w	r3, [r3, #93]	; 0x5d
 8004472:	b2db      	uxtb	r3, r3
 8004474:	61fb      	str	r3, [r7, #28]
  tmp1 = hspi->Init.Mode;
 8004476:	68fb      	ldr	r3, [r7, #12]
 8004478:	685b      	ldr	r3, [r3, #4]
 800447a:	61bb      	str	r3, [r7, #24]

  if (!((tmp == HAL_SPI_STATE_READY) || \
 800447c:	69fb      	ldr	r3, [r7, #28]
 800447e:	2b01      	cmp	r3, #1
 8004480:	d00e      	beq.n	80044a0 <HAL_SPI_TransmitReceive+0x74>
 8004482:	69bb      	ldr	r3, [r7, #24]
 8004484:	f5b3 7f82 	cmp.w	r3, #260	; 0x104
 8004488:	d106      	bne.n	8004498 <HAL_SPI_TransmitReceive+0x6c>
        ((tmp1 == SPI_MODE_MASTER) && (hspi->Init.Direction == SPI_DIRECTION_2LINES) && (tmp == HAL_SPI_STATE_BUSY_RX))))
 800448a:	68fb      	ldr	r3, [r7, #12]
 800448c:	689b      	ldr	r3, [r3, #8]
 800448e:	2b00      	cmp	r3, #0
 8004490:	d102      	bne.n	8004498 <HAL_SPI_TransmitReceive+0x6c>
 8004492:	69fb      	ldr	r3, [r7, #28]
 8004494:	2b04      	cmp	r3, #4
 8004496:	d003      	beq.n	80044a0 <HAL_SPI_TransmitReceive+0x74>
  {
    errorcode = HAL_BUSY;
 8004498:	2302      	movs	r3, #2
 800449a:	f887 3023 	strb.w	r3, [r7, #35]	; 0x23
    goto error;
 800449e:	e1b6      	b.n	800480e <HAL_SPI_TransmitReceive+0x3e2>
  }

  if ((pTxData == NULL) || (pRxData == NULL) || (Size == 0U))
 80044a0:	68bb      	ldr	r3, [r7, #8]
 80044a2:	2b00      	cmp	r3, #0
 80044a4:	d005      	beq.n	80044b2 <HAL_SPI_TransmitReceive+0x86>
 80044a6:	687b      	ldr	r3, [r7, #4]
 80044a8:	2b00      	cmp	r3, #0
 80044aa:	d002      	beq.n	80044b2 <HAL_SPI_TransmitReceive+0x86>
 80044ac:	887b      	ldrh	r3, [r7, #2]
 80044ae:	2b00      	cmp	r3, #0
 80044b0:	d103      	bne.n	80044ba <HAL_SPI_TransmitReceive+0x8e>
  {
    errorcode = HAL_ERROR;
 80044b2:	2301      	movs	r3, #1
 80044b4:	f887 3023 	strb.w	r3, [r7, #35]	; 0x23
    goto error;
 80044b8:	e1a9      	b.n	800480e <HAL_SPI_TransmitReceive+0x3e2>
  }

  /* Don't overwrite in case of HAL_SPI_STATE_BUSY_RX */
  if (hspi->State != HAL_SPI_STATE_BUSY_RX)
 80044ba:	68fb      	ldr	r3, [r7, #12]
 80044bc:	f893 305d 	ldrb.w	r3, [r3, #93]	; 0x5d
 80044c0:	b2db      	uxtb	r3, r3
 80044c2:	2b04      	cmp	r3, #4
 80044c4:	d003      	beq.n	80044ce <HAL_SPI_TransmitReceive+0xa2>
  {
    hspi->State = HAL_SPI_STATE_BUSY_TX_RX;
 80044c6:	68fb      	ldr	r3, [r7, #12]
 80044c8:	2205      	movs	r2, #5
 80044ca:	f883 205d 	strb.w	r2, [r3, #93]	; 0x5d
  }

  /* Set the transaction information */
  hspi->ErrorCode   = HAL_SPI_ERROR_NONE;
 80044ce:	68fb      	ldr	r3, [r7, #12]
 80044d0:	2200      	movs	r2, #0
 80044d2:	661a      	str	r2, [r3, #96]	; 0x60
  hspi->pRxBuffPtr  = (uint8_t *)pRxData;
 80044d4:	68fb      	ldr	r3, [r7, #12]
 80044d6:	687a      	ldr	r2, [r7, #4]
 80044d8:	641a      	str	r2, [r3, #64]	; 0x40
  hspi->RxXferCount = Size;
 80044da:	68fb      	ldr	r3, [r7, #12]
 80044dc:	887a      	ldrh	r2, [r7, #2]
 80044de:	f8a3 2046 	strh.w	r2, [r3, #70]	; 0x46
  hspi->RxXferSize  = Size;
 80044e2:	68fb      	ldr	r3, [r7, #12]
 80044e4:	887a      	ldrh	r2, [r7, #2]
 80044e6:	f8a3 2044 	strh.w	r2, [r3, #68]	; 0x44
  hspi->pTxBuffPtr  = (uint8_t *)pTxData;
 80044ea:	68fb      	ldr	r3, [r7, #12]
 80044ec:	68ba      	ldr	r2, [r7, #8]
 80044ee:	639a      	str	r2, [r3, #56]	; 0x38
  hspi->TxXferCount = Size;
 80044f0:	68fb      	ldr	r3, [r7, #12]
 80044f2:	887a      	ldrh	r2, [r7, #2]
 80044f4:	87da      	strh	r2, [r3, #62]	; 0x3e
  hspi->TxXferSize  = Size;
 80044f6:	68fb      	ldr	r3, [r7, #12]
 80044f8:	887a      	ldrh	r2, [r7, #2]
 80044fa:	879a      	strh	r2, [r3, #60]	; 0x3c

  /*Init field not used in handle to zero */
  hspi->RxISR       = NULL;
 80044fc:	68fb      	ldr	r3, [r7, #12]
 80044fe:	2200      	movs	r2, #0
 8004500:	64da      	str	r2, [r3, #76]	; 0x4c
  hspi->TxISR       = NULL;
 8004502:	68fb      	ldr	r3, [r7, #12]
 8004504:	2200      	movs	r2, #0
 8004506:	651a      	str	r2, [r3, #80]	; 0x50
    SPI_RESET_CRC(hspi);
  }
#endif /* USE_SPI_CRC */

  /* Set the Rx Fido threshold */
  if ((hspi->Init.DataSize > SPI_DATASIZE_8BIT) || (hspi->RxXferCount > 1))
 8004508:	68fb      	ldr	r3, [r7, #12]
 800450a:	68db      	ldr	r3, [r3, #12]
 800450c:	f5b3 6fe0 	cmp.w	r3, #1792	; 0x700
 8004510:	d805      	bhi.n	800451e <HAL_SPI_TransmitReceive+0xf2>
 8004512:	68fb      	ldr	r3, [r7, #12]
 8004514:	f8b3 3046 	ldrh.w	r3, [r3, #70]	; 0x46
 8004518:	b29b      	uxth	r3, r3
 800451a:	2b01      	cmp	r3, #1
 800451c:	d908      	bls.n	8004530 <HAL_SPI_TransmitReceive+0x104>
  {
    /* set fiforxthreshold according the reception data length: 16bit */
    CLEAR_BIT(hspi->Instance->CR2, SPI_RXFIFO_THRESHOLD);
 800451e:	68fb      	ldr	r3, [r7, #12]
 8004520:	681b      	ldr	r3, [r3, #0]
 8004522:	68fa      	ldr	r2, [r7, #12]
 8004524:	6812      	ldr	r2, [r2, #0]
 8004526:	6852      	ldr	r2, [r2, #4]
 8004528:	f422 5280 	bic.w	r2, r2, #4096	; 0x1000
 800452c:	605a      	str	r2, [r3, #4]
 800452e:	e007      	b.n	8004540 <HAL_SPI_TransmitReceive+0x114>
  }
  else
  {
    /* set fiforxthreshold according the reception data length: 8bit */
    SET_BIT(hspi->Instance->CR2, SPI_RXFIFO_THRESHOLD);
 8004530:	68fb      	ldr	r3, [r7, #12]
 8004532:	681b      	ldr	r3, [r3, #0]
 8004534:	68fa      	ldr	r2, [r7, #12]
 8004536:	6812      	ldr	r2, [r2, #0]
 8004538:	6852      	ldr	r2, [r2, #4]
 800453a:	f442 5280 	orr.w	r2, r2, #4096	; 0x1000
 800453e:	605a      	str	r2, [r3, #4]
  }

  /* Check if the SPI is already enabled */
  if ((hspi->Instance->CR1 & SPI_CR1_SPE) != SPI_CR1_SPE)
 8004540:	68fb      	ldr	r3, [r7, #12]
 8004542:	681b      	ldr	r3, [r3, #0]
 8004544:	681b      	ldr	r3, [r3, #0]
 8004546:	f003 0340 	and.w	r3, r3, #64	; 0x40
 800454a:	2b40      	cmp	r3, #64	; 0x40
 800454c:	d007      	beq.n	800455e <HAL_SPI_TransmitReceive+0x132>
  {
    /* Enable SPI peripheral */
    __HAL_SPI_ENABLE(hspi);
 800454e:	68fb      	ldr	r3, [r7, #12]
 8004550:	681b      	ldr	r3, [r3, #0]
 8004552:	68fa      	ldr	r2, [r7, #12]
 8004554:	6812      	ldr	r2, [r2, #0]
 8004556:	6812      	ldr	r2, [r2, #0]
 8004558:	f042 0240 	orr.w	r2, r2, #64	; 0x40
 800455c:	601a      	str	r2, [r3, #0]
  }

  /* Transmit and Receive data in 16 Bit mode */
  if (hspi->Init.DataSize > SPI_DATASIZE_8BIT)
 800455e:	68fb      	ldr	r3, [r7, #12]
 8004560:	68db      	ldr	r3, [r3, #12]
 8004562:	f5b3 6fe0 	cmp.w	r3, #1792	; 0x700
 8004566:	d975      	bls.n	8004654 <HAL_SPI_TransmitReceive+0x228>
  {
    if ((hspi->Init.Mode == SPI_MODE_SLAVE) || (hspi->TxXferCount == 0x01))
 8004568:	68fb      	ldr	r3, [r7, #12]
 800456a:	685b      	ldr	r3, [r3, #4]
 800456c:	2b00      	cmp	r3, #0
 800456e:	d004      	beq.n	800457a <HAL_SPI_TransmitReceive+0x14e>
 8004570:	68fb      	ldr	r3, [r7, #12]
 8004572:	8fdb      	ldrh	r3, [r3, #62]	; 0x3e
 8004574:	b29b      	uxth	r3, r3
 8004576:	2b01      	cmp	r3, #1
 8004578:	d160      	bne.n	800463c <HAL_SPI_TransmitReceive+0x210>
    {
      hspi->Instance->DR = *((uint16_t *)pTxData);
 800457a:	68fb      	ldr	r3, [r7, #12]
 800457c:	681b      	ldr	r3, [r3, #0]
 800457e:	68ba      	ldr	r2, [r7, #8]
 8004580:	8812      	ldrh	r2, [r2, #0]
 8004582:	60da      	str	r2, [r3, #12]
      pTxData += sizeof(uint16_t);
 8004584:	68bb      	ldr	r3, [r7, #8]
 8004586:	3302      	adds	r3, #2
 8004588:	60bb      	str	r3, [r7, #8]
      hspi->TxXferCount--;
 800458a:	68fb      	ldr	r3, [r7, #12]
 800458c:	8fdb      	ldrh	r3, [r3, #62]	; 0x3e
 800458e:	b29b      	uxth	r3, r3
 8004590:	3b01      	subs	r3, #1
 8004592:	b29a      	uxth	r2, r3
 8004594:	68fb      	ldr	r3, [r7, #12]
 8004596:	87da      	strh	r2, [r3, #62]	; 0x3e
    }
    while ((hspi->TxXferCount > 0U) || (hspi->RxXferCount > 0U))
 8004598:	e050      	b.n	800463c <HAL_SPI_TransmitReceive+0x210>
    {
      /* Check TXE flag */
      if (txallowed && (hspi->TxXferCount > 0U) && (__HAL_SPI_GET_FLAG(hspi, SPI_FLAG_TXE)))
 800459a:	6a7b      	ldr	r3, [r7, #36]	; 0x24
 800459c:	2b00      	cmp	r3, #0
 800459e:	d01c      	beq.n	80045da <HAL_SPI_TransmitReceive+0x1ae>
 80045a0:	68fb      	ldr	r3, [r7, #12]
 80045a2:	8fdb      	ldrh	r3, [r3, #62]	; 0x3e
 80045a4:	b29b      	uxth	r3, r3
 80045a6:	2b00      	cmp	r3, #0
 80045a8:	d017      	beq.n	80045da <HAL_SPI_TransmitReceive+0x1ae>
 80045aa:	68fb      	ldr	r3, [r7, #12]
 80045ac:	681b      	ldr	r3, [r3, #0]
 80045ae:	689b      	ldr	r3, [r3, #8]
 80045b0:	f003 0302 	and.w	r3, r3, #2
 80045b4:	2b02      	cmp	r3, #2
 80045b6:	d110      	bne.n	80045da <HAL_SPI_TransmitReceive+0x1ae>
      {
        hspi->Instance->DR = *((uint16_t *)pTxData);
 80045b8:	68fb      	ldr	r3, [r7, #12]
 80045ba:	681b      	ldr	r3, [r3, #0]
 80045bc:	68ba      	ldr	r2, [r7, #8]
 80045be:	8812      	ldrh	r2, [r2, #0]
 80045c0:	60da      	str	r2, [r3, #12]
        pTxData += sizeof(uint16_t);
 80045c2:	68bb      	ldr	r3, [r7, #8]
 80045c4:	3302      	adds	r3, #2
 80045c6:	60bb      	str	r3, [r7, #8]
        hspi->TxXferCount--;
 80045c8:	68fb      	ldr	r3, [r7, #12]
 80045ca:	8fdb      	ldrh	r3, [r3, #62]	; 0x3e
 80045cc:	b29b      	uxth	r3, r3
 80045ce:	3b01      	subs	r3, #1
 80045d0:	b29a      	uxth	r2, r3
 80045d2:	68fb      	ldr	r3, [r7, #12]
 80045d4:	87da      	strh	r2, [r3, #62]	; 0x3e
        /* Next Data is a reception (Rx). Tx not allowed */
        txallowed = 0U;
 80045d6:	2300      	movs	r3, #0
 80045d8:	627b      	str	r3, [r7, #36]	; 0x24
        }
#endif /* USE_SPI_CRC */
      }

      /* Check RXNE flag */
      if ((hspi->RxXferCount > 0U) && (__HAL_SPI_GET_FLAG(hspi, SPI_FLAG_RXNE)))
 80045da:	68fb      	ldr	r3, [r7, #12]
 80045dc:	f8b3 3046 	ldrh.w	r3, [r3, #70]	; 0x46
 80045e0:	b29b      	uxth	r3, r3
 80045e2:	2b00      	cmp	r3, #0
 80045e4:	d01a      	beq.n	800461c <HAL_SPI_TransmitReceive+0x1f0>
 80045e6:	68fb      	ldr	r3, [r7, #12]
 80045e8:	681b      	ldr	r3, [r3, #0]
 80045ea:	689b      	ldr	r3, [r3, #8]
 80045ec:	f003 0301 	and.w	r3, r3, #1
 80045f0:	2b01      	cmp	r3, #1
 80045f2:	d113      	bne.n	800461c <HAL_SPI_TransmitReceive+0x1f0>
      {
        *((uint16_t *)pRxData) = hspi->Instance->DR;
 80045f4:	68fb      	ldr	r3, [r7, #12]
 80045f6:	681b      	ldr	r3, [r3, #0]
 80045f8:	68db      	ldr	r3, [r3, #12]
 80045fa:	b29a      	uxth	r2, r3
 80045fc:	687b      	ldr	r3, [r7, #4]
 80045fe:	801a      	strh	r2, [r3, #0]
        pRxData += sizeof(uint16_t);
 8004600:	687b      	ldr	r3, [r7, #4]
 8004602:	3302      	adds	r3, #2
 8004604:	607b      	str	r3, [r7, #4]
        hspi->RxXferCount--;
 8004606:	68fb      	ldr	r3, [r7, #12]
 8004608:	f8b3 3046 	ldrh.w	r3, [r3, #70]	; 0x46
 800460c:	b29b      	uxth	r3, r3
 800460e:	3b01      	subs	r3, #1
 8004610:	b29a      	uxth	r2, r3
 8004612:	68fb      	ldr	r3, [r7, #12]
 8004614:	f8a3 2046 	strh.w	r2, [r3, #70]	; 0x46
        /* Next Data is a Transmission (Tx). Tx is allowed */
        txallowed = 1U;
 8004618:	2301      	movs	r3, #1
 800461a:	627b      	str	r3, [r7, #36]	; 0x24
      }
      if ((Timeout != HAL_MAX_DELAY) && ((HAL_GetTick() - tickstart) >=  Timeout))
 800461c:	6b3b      	ldr	r3, [r7, #48]	; 0x30
 800461e:	f1b3 3fff 	cmp.w	r3, #4294967295
 8004622:	d00b      	beq.n	800463c <HAL_SPI_TransmitReceive+0x210>
 8004624:	f7fd f9ce 	bl	80019c4 <HAL_GetTick>
 8004628:	4602      	mov	r2, r0
 800462a:	697b      	ldr	r3, [r7, #20]
 800462c:	1ad2      	subs	r2, r2, r3
 800462e:	6b3b      	ldr	r3, [r7, #48]	; 0x30
 8004630:	429a      	cmp	r2, r3
 8004632:	d303      	bcc.n	800463c <HAL_SPI_TransmitReceive+0x210>
      {
        errorcode = HAL_TIMEOUT;
 8004634:	2303      	movs	r3, #3
 8004636:	f887 3023 	strb.w	r3, [r7, #35]	; 0x23
        goto error;
 800463a:	e0e8      	b.n	800480e <HAL_SPI_TransmitReceive+0x3e2>
    while ((hspi->TxXferCount > 0U) || (hspi->RxXferCount > 0U))
 800463c:	68fb      	ldr	r3, [r7, #12]
 800463e:	8fdb      	ldrh	r3, [r3, #62]	; 0x3e
 8004640:	b29b      	uxth	r3, r3
 8004642:	2b00      	cmp	r3, #0
 8004644:	d1a9      	bne.n	800459a <HAL_SPI_TransmitReceive+0x16e>
 8004646:	68fb      	ldr	r3, [r7, #12]
 8004648:	f8b3 3046 	ldrh.w	r3, [r3, #70]	; 0x46
 800464c:	b29b      	uxth	r3, r3
 800464e:	2b00      	cmp	r3, #0
 8004650:	d1a3      	bne.n	800459a <HAL_SPI_TransmitReceive+0x16e>
 8004652:	e0ca      	b.n	80047ea <HAL_SPI_TransmitReceive+0x3be>
    }
  }
  /* Transmit and Receive data in 8 Bit mode */
  else
  {
    if ((hspi->Init.Mode == SPI_MODE_SLAVE) || (hspi->TxXferCount == 0x01))
 8004654:	68fb      	ldr	r3, [r7, #12]
 8004656:	685b      	ldr	r3, [r3, #4]
 8004658:	2b00      	cmp	r3, #0
 800465a:	d005      	beq.n	8004668 <HAL_SPI_TransmitReceive+0x23c>
 800465c:	68fb      	ldr	r3, [r7, #12]
 800465e:	8fdb      	ldrh	r3, [r3, #62]	; 0x3e
 8004660:	b29b      	uxth	r3, r3
 8004662:	2b01      	cmp	r3, #1
 8004664:	f040 80b4 	bne.w	80047d0 <HAL_SPI_TransmitReceive+0x3a4>
    {
      if (hspi->TxXferCount > 1U)
 8004668:	68fb      	ldr	r3, [r7, #12]
 800466a:	8fdb      	ldrh	r3, [r3, #62]	; 0x3e
 800466c:	b29b      	uxth	r3, r3
 800466e:	2b01      	cmp	r3, #1
 8004670:	d90f      	bls.n	8004692 <HAL_SPI_TransmitReceive+0x266>
      {
        hspi->Instance->DR = *((uint16_t *)pTxData);
 8004672:	68fb      	ldr	r3, [r7, #12]
 8004674:	681b      	ldr	r3, [r3, #0]
 8004676:	68ba      	ldr	r2, [r7, #8]
 8004678:	8812      	ldrh	r2, [r2, #0]
 800467a:	60da      	str	r2, [r3, #12]
        pTxData += sizeof(uint16_t);
 800467c:	68bb      	ldr	r3, [r7, #8]
 800467e:	3302      	adds	r3, #2
 8004680:	60bb      	str	r3, [r7, #8]
        hspi->TxXferCount -= 2U;
 8004682:	68fb      	ldr	r3, [r7, #12]
 8004684:	8fdb      	ldrh	r3, [r3, #62]	; 0x3e
 8004686:	b29b      	uxth	r3, r3
 8004688:	3b02      	subs	r3, #2
 800468a:	b29a      	uxth	r2, r3
 800468c:	68fb      	ldr	r3, [r7, #12]
 800468e:	87da      	strh	r2, [r3, #62]	; 0x3e
 8004690:	e09e      	b.n	80047d0 <HAL_SPI_TransmitReceive+0x3a4>
      }
      else
      {
        *(__IO uint8_t *)&hspi->Instance->DR = (*pTxData++);
 8004692:	68fb      	ldr	r3, [r7, #12]
 8004694:	681b      	ldr	r3, [r3, #0]
 8004696:	f103 020c 	add.w	r2, r3, #12
 800469a:	68bb      	ldr	r3, [r7, #8]
 800469c:	1c59      	adds	r1, r3, #1
 800469e:	60b9      	str	r1, [r7, #8]
 80046a0:	781b      	ldrb	r3, [r3, #0]
 80046a2:	7013      	strb	r3, [r2, #0]
        hspi->TxXferCount--;
 80046a4:	68fb      	ldr	r3, [r7, #12]
 80046a6:	8fdb      	ldrh	r3, [r3, #62]	; 0x3e
 80046a8:	b29b      	uxth	r3, r3
 80046aa:	3b01      	subs	r3, #1
 80046ac:	b29a      	uxth	r2, r3
 80046ae:	68fb      	ldr	r3, [r7, #12]
 80046b0:	87da      	strh	r2, [r3, #62]	; 0x3e
      }
    }
    while ((hspi->TxXferCount > 0U) || (hspi->RxXferCount > 0U))
 80046b2:	e08d      	b.n	80047d0 <HAL_SPI_TransmitReceive+0x3a4>
    {
      /* check TXE flag */
      if (txallowed && (hspi->TxXferCount > 0U) && (__HAL_SPI_GET_FLAG(hspi, SPI_FLAG_TXE)))
 80046b4:	6a7b      	ldr	r3, [r7, #36]	; 0x24
 80046b6:	2b00      	cmp	r3, #0
 80046b8:	d032      	beq.n	8004720 <HAL_SPI_TransmitReceive+0x2f4>
 80046ba:	68fb      	ldr	r3, [r7, #12]
 80046bc:	8fdb      	ldrh	r3, [r3, #62]	; 0x3e
 80046be:	b29b      	uxth	r3, r3
 80046c0:	2b00      	cmp	r3, #0
 80046c2:	d02d      	beq.n	8004720 <HAL_SPI_TransmitReceive+0x2f4>
 80046c4:	68fb      	ldr	r3, [r7, #12]
 80046c6:	681b      	ldr	r3, [r3, #0]
 80046c8:	689b      	ldr	r3, [r3, #8]
 80046ca:	f003 0302 	and.w	r3, r3, #2
 80046ce:	2b02      	cmp	r3, #2
 80046d0:	d126      	bne.n	8004720 <HAL_SPI_TransmitReceive+0x2f4>
      {
        if (hspi->TxXferCount > 1U)
 80046d2:	68fb      	ldr	r3, [r7, #12]
 80046d4:	8fdb      	ldrh	r3, [r3, #62]	; 0x3e
 80046d6:	b29b      	uxth	r3, r3
 80046d8:	2b01      	cmp	r3, #1
 80046da:	d90f      	bls.n	80046fc <HAL_SPI_TransmitReceive+0x2d0>
        {
          hspi->Instance->DR = *((uint16_t *)pTxData);
 80046dc:	68fb      	ldr	r3, [r7, #12]
 80046de:	681b      	ldr	r3, [r3, #0]
 80046e0:	68ba      	ldr	r2, [r7, #8]
 80046e2:	8812      	ldrh	r2, [r2, #0]
 80046e4:	60da      	str	r2, [r3, #12]
          pTxData += sizeof(uint16_t);
 80046e6:	68bb      	ldr	r3, [r7, #8]
 80046e8:	3302      	adds	r3, #2
 80046ea:	60bb      	str	r3, [r7, #8]
          hspi->TxXferCount -= 2U;
 80046ec:	68fb      	ldr	r3, [r7, #12]
 80046ee:	8fdb      	ldrh	r3, [r3, #62]	; 0x3e
 80046f0:	b29b      	uxth	r3, r3
 80046f2:	3b02      	subs	r3, #2
 80046f4:	b29a      	uxth	r2, r3
 80046f6:	68fb      	ldr	r3, [r7, #12]
 80046f8:	87da      	strh	r2, [r3, #62]	; 0x3e
 80046fa:	e00f      	b.n	800471c <HAL_SPI_TransmitReceive+0x2f0>
        }
        else
        {
          *(__IO uint8_t *)&hspi->Instance->DR = (*pTxData++);
 80046fc:	68fb      	ldr	r3, [r7, #12]
 80046fe:	681b      	ldr	r3, [r3, #0]
 8004700:	f103 020c 	add.w	r2, r3, #12
 8004704:	68bb      	ldr	r3, [r7, #8]
 8004706:	1c59      	adds	r1, r3, #1
 8004708:	60b9      	str	r1, [r7, #8]
 800470a:	781b      	ldrb	r3, [r3, #0]
 800470c:	7013      	strb	r3, [r2, #0]
          hspi->TxXferCount--;
 800470e:	68fb      	ldr	r3, [r7, #12]
 8004710:	8fdb      	ldrh	r3, [r3, #62]	; 0x3e
 8004712:	b29b      	uxth	r3, r3
 8004714:	3b01      	subs	r3, #1
 8004716:	b29a      	uxth	r2, r3
 8004718:	68fb      	ldr	r3, [r7, #12]
 800471a:	87da      	strh	r2, [r3, #62]	; 0x3e
        }
        /* Next Data is a reception (Rx). Tx not allowed */
        txallowed = 0U;
 800471c:	2300      	movs	r3, #0
 800471e:	627b      	str	r3, [r7, #36]	; 0x24
        }
#endif /* USE_SPI_CRC */
      }

      /* Wait until RXNE flag is reset */
      if ((hspi->RxXferCount > 0U) && (__HAL_SPI_GET_FLAG(hspi, SPI_FLAG_RXNE)))
 8004720:	68fb      	ldr	r3, [r7, #12]
 8004722:	f8b3 3046 	ldrh.w	r3, [r3, #70]	; 0x46
 8004726:	b29b      	uxth	r3, r3
 8004728:	2b00      	cmp	r3, #0
 800472a:	d041      	beq.n	80047b0 <HAL_SPI_TransmitReceive+0x384>
 800472c:	68fb      	ldr	r3, [r7, #12]
 800472e:	681b      	ldr	r3, [r3, #0]
 8004730:	689b      	ldr	r3, [r3, #8]
 8004732:	f003 0301 	and.w	r3, r3, #1
 8004736:	2b01      	cmp	r3, #1
 8004738:	d13a      	bne.n	80047b0 <HAL_SPI_TransmitReceive+0x384>
      {
        if (hspi->RxXferCount > 1U)
 800473a:	68fb      	ldr	r3, [r7, #12]
 800473c:	f8b3 3046 	ldrh.w	r3, [r3, #70]	; 0x46
 8004740:	b29b      	uxth	r3, r3
 8004742:	2b01      	cmp	r3, #1
 8004744:	d920      	bls.n	8004788 <HAL_SPI_TransmitReceive+0x35c>
        {
          *((uint16_t *)pRxData) = hspi->Instance->DR;
 8004746:	68fb      	ldr	r3, [r7, #12]
 8004748:	681b      	ldr	r3, [r3, #0]
 800474a:	68db      	ldr	r3, [r3, #12]
 800474c:	b29a      	uxth	r2, r3
 800474e:	687b      	ldr	r3, [r7, #4]
 8004750:	801a      	strh	r2, [r3, #0]
          pRxData += sizeof(uint16_t);
 8004752:	687b      	ldr	r3, [r7, #4]
 8004754:	3302      	adds	r3, #2
 8004756:	607b      	str	r3, [r7, #4]
          hspi->RxXferCount -= 2U;
 8004758:	68fb      	ldr	r3, [r7, #12]
 800475a:	f8b3 3046 	ldrh.w	r3, [r3, #70]	; 0x46
 800475e:	b29b      	uxth	r3, r3
 8004760:	3b02      	subs	r3, #2
 8004762:	b29a      	uxth	r2, r3
 8004764:	68fb      	ldr	r3, [r7, #12]
 8004766:	f8a3 2046 	strh.w	r2, [r3, #70]	; 0x46
          if (hspi->RxXferCount <= 1U)
 800476a:	68fb      	ldr	r3, [r7, #12]
 800476c:	f8b3 3046 	ldrh.w	r3, [r3, #70]	; 0x46
 8004770:	b29b      	uxth	r3, r3
 8004772:	2b01      	cmp	r3, #1
 8004774:	d81a      	bhi.n	80047ac <HAL_SPI_TransmitReceive+0x380>
          {
            /* set fiforxthresold before to switch on 8 bit data size */
            SET_BIT(hspi->Instance->CR2, SPI_RXFIFO_THRESHOLD);
 8004776:	68fb      	ldr	r3, [r7, #12]
 8004778:	681b      	ldr	r3, [r3, #0]
 800477a:	68fa      	ldr	r2, [r7, #12]
 800477c:	6812      	ldr	r2, [r2, #0]
 800477e:	6852      	ldr	r2, [r2, #4]
 8004780:	f442 5280 	orr.w	r2, r2, #4096	; 0x1000
 8004784:	605a      	str	r2, [r3, #4]
 8004786:	e011      	b.n	80047ac <HAL_SPI_TransmitReceive+0x380>
          }
        }
        else
        {
          (*(uint8_t *)pRxData++) = *(__IO uint8_t *)&hspi->Instance->DR;
 8004788:	687b      	ldr	r3, [r7, #4]
 800478a:	1c5a      	adds	r2, r3, #1
 800478c:	607a      	str	r2, [r7, #4]
 800478e:	68fa      	ldr	r2, [r7, #12]
 8004790:	6812      	ldr	r2, [r2, #0]
 8004792:	320c      	adds	r2, #12
 8004794:	7812      	ldrb	r2, [r2, #0]
 8004796:	b2d2      	uxtb	r2, r2
 8004798:	701a      	strb	r2, [r3, #0]
          hspi->RxXferCount--;
 800479a:	68fb      	ldr	r3, [r7, #12]
 800479c:	f8b3 3046 	ldrh.w	r3, [r3, #70]	; 0x46
 80047a0:	b29b      	uxth	r3, r3
 80047a2:	3b01      	subs	r3, #1
 80047a4:	b29a      	uxth	r2, r3
 80047a6:	68fb      	ldr	r3, [r7, #12]
 80047a8:	f8a3 2046 	strh.w	r2, [r3, #70]	; 0x46
        }
        /* Next Data is a Transmission (Tx). Tx is allowed */
        txallowed = 1U;
 80047ac:	2301      	movs	r3, #1
 80047ae:	627b      	str	r3, [r7, #36]	; 0x24
      }
      if ((Timeout != HAL_MAX_DELAY) && ((HAL_GetTick() - tickstart) >=  Timeout))
 80047b0:	6b3b      	ldr	r3, [r7, #48]	; 0x30
 80047b2:	f1b3 3fff 	cmp.w	r3, #4294967295
 80047b6:	d00b      	beq.n	80047d0 <HAL_SPI_TransmitReceive+0x3a4>
 80047b8:	f7fd f904 	bl	80019c4 <HAL_GetTick>
 80047bc:	4602      	mov	r2, r0
 80047be:	697b      	ldr	r3, [r7, #20]
 80047c0:	1ad2      	subs	r2, r2, r3
 80047c2:	6b3b      	ldr	r3, [r7, #48]	; 0x30
 80047c4:	429a      	cmp	r2, r3
 80047c6:	d303      	bcc.n	80047d0 <HAL_SPI_TransmitReceive+0x3a4>
      {
        errorcode = HAL_TIMEOUT;
 80047c8:	2303      	movs	r3, #3
 80047ca:	f887 3023 	strb.w	r3, [r7, #35]	; 0x23
        goto error;
 80047ce:	e01e      	b.n	800480e <HAL_SPI_TransmitReceive+0x3e2>
    while ((hspi->TxXferCount > 0U) || (hspi->RxXferCount > 0U))
 80047d0:	68fb      	ldr	r3, [r7, #12]
 80047d2:	8fdb      	ldrh	r3, [r3, #62]	; 0x3e
 80047d4:	b29b      	uxth	r3, r3
 80047d6:	2b00      	cmp	r3, #0
 80047d8:	f47f af6c 	bne.w	80046b4 <HAL_SPI_TransmitReceive+0x288>
 80047dc:	68fb      	ldr	r3, [r7, #12]
 80047de:	f8b3 3046 	ldrh.w	r3, [r3, #70]	; 0x46
 80047e2:	b29b      	uxth	r3, r3
 80047e4:	2b00      	cmp	r3, #0
 80047e6:	f47f af65 	bne.w	80046b4 <HAL_SPI_TransmitReceive+0x288>
    errorcode = HAL_ERROR;
  }
#endif /* USE_SPI_CRC */

  /* Check the end of the transaction */
  if (SPI_EndRxTxTransaction(hspi, Timeout, tickstart) != HAL_OK)
 80047ea:	697a      	ldr	r2, [r7, #20]
 80047ec:	6b39      	ldr	r1, [r7, #48]	; 0x30
 80047ee:	68f8      	ldr	r0, [r7, #12]
 80047f0:	f000 f8f5 	bl	80049de <SPI_EndRxTxTransaction>
 80047f4:	4603      	mov	r3, r0
 80047f6:	2b00      	cmp	r3, #0
 80047f8:	d002      	beq.n	8004800 <HAL_SPI_TransmitReceive+0x3d4>
  {
    hspi->ErrorCode = HAL_SPI_ERROR_FLAG;
 80047fa:	68fb      	ldr	r3, [r7, #12]
 80047fc:	2220      	movs	r2, #32
 80047fe:	661a      	str	r2, [r3, #96]	; 0x60
  }

  if (hspi->ErrorCode != HAL_SPI_ERROR_NONE)
 8004800:	68fb      	ldr	r3, [r7, #12]
 8004802:	6e1b      	ldr	r3, [r3, #96]	; 0x60
 8004804:	2b00      	cmp	r3, #0
 8004806:	d002      	beq.n	800480e <HAL_SPI_TransmitReceive+0x3e2>
  {
    errorcode = HAL_ERROR;
 8004808:	2301      	movs	r3, #1
 800480a:	f887 3023 	strb.w	r3, [r7, #35]	; 0x23
  }

error :
  hspi->State = HAL_SPI_STATE_READY;
 800480e:	68fb      	ldr	r3, [r7, #12]
 8004810:	2201      	movs	r2, #1
 8004812:	f883 205d 	strb.w	r2, [r3, #93]	; 0x5d
  __HAL_UNLOCK(hspi);
 8004816:	68fb      	ldr	r3, [r7, #12]
 8004818:	2200      	movs	r2, #0
 800481a:	f883 205c 	strb.w	r2, [r3, #92]	; 0x5c
  return errorcode;
 800481e:	f897 3023 	ldrb.w	r3, [r7, #35]	; 0x23
}
 8004822:	4618      	mov	r0, r3
 8004824:	3728      	adds	r7, #40	; 0x28
 8004826:	46bd      	mov	sp, r7
 8004828:	bd80      	pop	{r7, pc}

0800482a <SPI_WaitFlagStateUntilTimeout>:
  * @param Tickstart: tick start value
  * @retval HAL status
  */
static HAL_StatusTypeDef SPI_WaitFlagStateUntilTimeout(SPI_HandleTypeDef *hspi, uint32_t Flag, uint32_t State,
                                                       uint32_t Timeout, uint32_t Tickstart)
{
 800482a:	b580      	push	{r7, lr}
 800482c:	b084      	sub	sp, #16
 800482e:	af00      	add	r7, sp, #0
 8004830:	60f8      	str	r0, [r7, #12]
 8004832:	60b9      	str	r1, [r7, #8]
 8004834:	607a      	str	r2, [r7, #4]
 8004836:	603b      	str	r3, [r7, #0]
  while ((__HAL_SPI_GET_FLAG(hspi, Flag) ? SET : RESET) != State)
 8004838:	e04d      	b.n	80048d6 <SPI_WaitFlagStateUntilTimeout+0xac>
  {
    if (Timeout != HAL_MAX_DELAY)
 800483a:	683b      	ldr	r3, [r7, #0]
 800483c:	f1b3 3fff 	cmp.w	r3, #4294967295
 8004840:	d049      	beq.n	80048d6 <SPI_WaitFlagStateUntilTimeout+0xac>
    {
      if ((Timeout == 0U) || ((HAL_GetTick() - Tickstart) >= Timeout))
 8004842:	683b      	ldr	r3, [r7, #0]
 8004844:	2b00      	cmp	r3, #0
 8004846:	d007      	beq.n	8004858 <SPI_WaitFlagStateUntilTimeout+0x2e>
 8004848:	f7fd f8bc 	bl	80019c4 <HAL_GetTick>
 800484c:	4602      	mov	r2, r0
 800484e:	69bb      	ldr	r3, [r7, #24]
 8004850:	1ad2      	subs	r2, r2, r3
 8004852:	683b      	ldr	r3, [r7, #0]
 8004854:	429a      	cmp	r2, r3
 8004856:	d33e      	bcc.n	80048d6 <SPI_WaitFlagStateUntilTimeout+0xac>
        /* Disable the SPI and reset the CRC: the CRC value should be cleared
        on both master and slave sides in order to resynchronize the master
        and slave for their respective CRC calculation */

        /* Disable TXE, RXNE and ERR interrupts for the interrupt process */
        __HAL_SPI_DISABLE_IT(hspi, (SPI_IT_TXE | SPI_IT_RXNE | SPI_IT_ERR));
 8004858:	68fb      	ldr	r3, [r7, #12]
 800485a:	681b      	ldr	r3, [r3, #0]
 800485c:	68fa      	ldr	r2, [r7, #12]
 800485e:	6812      	ldr	r2, [r2, #0]
 8004860:	6852      	ldr	r2, [r2, #4]
 8004862:	f022 02e0 	bic.w	r2, r2, #224	; 0xe0
 8004866:	605a      	str	r2, [r3, #4]

        if ((hspi->Init.Mode == SPI_MODE_MASTER) && ((hspi->Init.Direction == SPI_DIRECTION_1LINE)
 8004868:	68fb      	ldr	r3, [r7, #12]
 800486a:	685b      	ldr	r3, [r3, #4]
 800486c:	f5b3 7f82 	cmp.w	r3, #260	; 0x104
 8004870:	d111      	bne.n	8004896 <SPI_WaitFlagStateUntilTimeout+0x6c>
 8004872:	68fb      	ldr	r3, [r7, #12]
 8004874:	689b      	ldr	r3, [r3, #8]
 8004876:	f5b3 4f00 	cmp.w	r3, #32768	; 0x8000
 800487a:	d004      	beq.n	8004886 <SPI_WaitFlagStateUntilTimeout+0x5c>
                                                     || (hspi->Init.Direction == SPI_DIRECTION_2LINES_RXONLY)))
 800487c:	68fb      	ldr	r3, [r7, #12]
 800487e:	689b      	ldr	r3, [r3, #8]
 8004880:	f5b3 6f80 	cmp.w	r3, #1024	; 0x400
 8004884:	d107      	bne.n	8004896 <SPI_WaitFlagStateUntilTimeout+0x6c>
        {
          /* Disable SPI peripheral */
          __HAL_SPI_DISABLE(hspi);
 8004886:	68fb      	ldr	r3, [r7, #12]
 8004888:	681b      	ldr	r3, [r3, #0]
 800488a:	68fa      	ldr	r2, [r7, #12]
 800488c:	6812      	ldr	r2, [r2, #0]
 800488e:	6812      	ldr	r2, [r2, #0]
 8004890:	f022 0240 	bic.w	r2, r2, #64	; 0x40
 8004894:	601a      	str	r2, [r3, #0]
        }

        /* Reset CRC Calculation */
        if (hspi->Init.CRCCalculation == SPI_CRCCALCULATION_ENABLE)
 8004896:	68fb      	ldr	r3, [r7, #12]
 8004898:	6a9b      	ldr	r3, [r3, #40]	; 0x28
 800489a:	f5b3 5f00 	cmp.w	r3, #8192	; 0x2000
 800489e:	d110      	bne.n	80048c2 <SPI_WaitFlagStateUntilTimeout+0x98>
        {
          SPI_RESET_CRC(hspi);
 80048a0:	68fb      	ldr	r3, [r7, #12]
 80048a2:	681a      	ldr	r2, [r3, #0]
 80048a4:	68fb      	ldr	r3, [r7, #12]
 80048a6:	681b      	ldr	r3, [r3, #0]
 80048a8:	6819      	ldr	r1, [r3, #0]
 80048aa:	f64d 73ff 	movw	r3, #57343	; 0xdfff
 80048ae:	400b      	ands	r3, r1
 80048b0:	6013      	str	r3, [r2, #0]
 80048b2:	68fb      	ldr	r3, [r7, #12]
 80048b4:	681b      	ldr	r3, [r3, #0]
 80048b6:	68fa      	ldr	r2, [r7, #12]
 80048b8:	6812      	ldr	r2, [r2, #0]
 80048ba:	6812      	ldr	r2, [r2, #0]
 80048bc:	f442 5200 	orr.w	r2, r2, #8192	; 0x2000
 80048c0:	601a      	str	r2, [r3, #0]
        }

        hspi->State = HAL_SPI_STATE_READY;
 80048c2:	68fb      	ldr	r3, [r7, #12]
 80048c4:	2201      	movs	r2, #1
 80048c6:	f883 205d 	strb.w	r2, [r3, #93]	; 0x5d

        /* Process Unlocked */
        __HAL_UNLOCK(hspi);
 80048ca:	68fb      	ldr	r3, [r7, #12]
 80048cc:	2200      	movs	r2, #0
 80048ce:	f883 205c 	strb.w	r2, [r3, #92]	; 0x5c

        return HAL_TIMEOUT;
 80048d2:	2303      	movs	r3, #3
 80048d4:	e00e      	b.n	80048f4 <SPI_WaitFlagStateUntilTimeout+0xca>
  while ((__HAL_SPI_GET_FLAG(hspi, Flag) ? SET : RESET) != State)
 80048d6:	68fb      	ldr	r3, [r7, #12]
 80048d8:	681b      	ldr	r3, [r3, #0]
 80048da:	689a      	ldr	r2, [r3, #8]
 80048dc:	68bb      	ldr	r3, [r7, #8]
 80048de:	401a      	ands	r2, r3
 80048e0:	68bb      	ldr	r3, [r7, #8]
 80048e2:	429a      	cmp	r2, r3
 80048e4:	d101      	bne.n	80048ea <SPI_WaitFlagStateUntilTimeout+0xc0>
 80048e6:	2201      	movs	r2, #1
 80048e8:	e000      	b.n	80048ec <SPI_WaitFlagStateUntilTimeout+0xc2>
 80048ea:	2200      	movs	r2, #0
 80048ec:	687b      	ldr	r3, [r7, #4]
 80048ee:	429a      	cmp	r2, r3
 80048f0:	d1a3      	bne.n	800483a <SPI_WaitFlagStateUntilTimeout+0x10>
      }
    }
  }

  return HAL_OK;
 80048f2:	2300      	movs	r3, #0
}
 80048f4:	4618      	mov	r0, r3
 80048f6:	3710      	adds	r7, #16
 80048f8:	46bd      	mov	sp, r7
 80048fa:	bd80      	pop	{r7, pc}

080048fc <SPI_WaitFifoStateUntilTimeout>:
  * @param Tickstart: tick start value
  * @retval HAL status
  */
static HAL_StatusTypeDef SPI_WaitFifoStateUntilTimeout(SPI_HandleTypeDef *hspi, uint32_t Fifo, uint32_t State,
                                                       uint32_t Timeout, uint32_t Tickstart)
{
 80048fc:	b580      	push	{r7, lr}
 80048fe:	b086      	sub	sp, #24
 8004900:	af00      	add	r7, sp, #0
 8004902:	60f8      	str	r0, [r7, #12]
 8004904:	60b9      	str	r1, [r7, #8]
 8004906:	607a      	str	r2, [r7, #4]
 8004908:	603b      	str	r3, [r7, #0]
  __IO uint8_t tmpreg;

  while ((hspi->Instance->SR & Fifo) != State)
 800490a:	e05b      	b.n	80049c4 <SPI_WaitFifoStateUntilTimeout+0xc8>
  {
    if ((Fifo == SPI_SR_FRLVL) && (State == SPI_FRLVL_EMPTY))
 800490c:	68bb      	ldr	r3, [r7, #8]
 800490e:	f5b3 6fc0 	cmp.w	r3, #1536	; 0x600
 8004912:	d109      	bne.n	8004928 <SPI_WaitFifoStateUntilTimeout+0x2c>
 8004914:	687b      	ldr	r3, [r7, #4]
 8004916:	2b00      	cmp	r3, #0
 8004918:	d106      	bne.n	8004928 <SPI_WaitFifoStateUntilTimeout+0x2c>
    {
      tmpreg = *((__IO uint8_t *)&hspi->Instance->DR);
 800491a:	68fb      	ldr	r3, [r7, #12]
 800491c:	681b      	ldr	r3, [r3, #0]
 800491e:	330c      	adds	r3, #12
 8004920:	781b      	ldrb	r3, [r3, #0]
 8004922:	b2db      	uxtb	r3, r3
 8004924:	75fb      	strb	r3, [r7, #23]
      /* To avoid GCC warning */
      UNUSED(tmpreg);
 8004926:	7dfb      	ldrb	r3, [r7, #23]
    }

    if (Timeout != HAL_MAX_DELAY)
 8004928:	683b      	ldr	r3, [r7, #0]
 800492a:	f1b3 3fff 	cmp.w	r3, #4294967295
 800492e:	d049      	beq.n	80049c4 <SPI_WaitFifoStateUntilTimeout+0xc8>
    {
      if ((Timeout == 0) || ((HAL_GetTick() - Tickstart) >= Timeout))
 8004930:	683b      	ldr	r3, [r7, #0]
 8004932:	2b00      	cmp	r3, #0
 8004934:	d007      	beq.n	8004946 <SPI_WaitFifoStateUntilTimeout+0x4a>
 8004936:	f7fd f845 	bl	80019c4 <HAL_GetTick>
 800493a:	4602      	mov	r2, r0
 800493c:	6a3b      	ldr	r3, [r7, #32]
 800493e:	1ad2      	subs	r2, r2, r3
 8004940:	683b      	ldr	r3, [r7, #0]
 8004942:	429a      	cmp	r2, r3
 8004944:	d33e      	bcc.n	80049c4 <SPI_WaitFifoStateUntilTimeout+0xc8>
        /* Disable the SPI and reset the CRC: the CRC value should be cleared
           on both master and slave sides in order to resynchronize the master
           and slave for their respective CRC calculation */

        /* Disable TXE, RXNE and ERR interrupts for the interrupt process */
        __HAL_SPI_DISABLE_IT(hspi, (SPI_IT_TXE | SPI_IT_RXNE | SPI_IT_ERR));
 8004946:	68fb      	ldr	r3, [r7, #12]
 8004948:	681b      	ldr	r3, [r3, #0]
 800494a:	68fa      	ldr	r2, [r7, #12]
 800494c:	6812      	ldr	r2, [r2, #0]
 800494e:	6852      	ldr	r2, [r2, #4]
 8004950:	f022 02e0 	bic.w	r2, r2, #224	; 0xe0
 8004954:	605a      	str	r2, [r3, #4]

        if ((hspi->Init.Mode == SPI_MODE_MASTER) && ((hspi->Init.Direction == SPI_DIRECTION_1LINE)
 8004956:	68fb      	ldr	r3, [r7, #12]
 8004958:	685b      	ldr	r3, [r3, #4]
 800495a:	f5b3 7f82 	cmp.w	r3, #260	; 0x104
 800495e:	d111      	bne.n	8004984 <SPI_WaitFifoStateUntilTimeout+0x88>
 8004960:	68fb      	ldr	r3, [r7, #12]
 8004962:	689b      	ldr	r3, [r3, #8]
 8004964:	f5b3 4f00 	cmp.w	r3, #32768	; 0x8000
 8004968:	d004      	beq.n	8004974 <SPI_WaitFifoStateUntilTimeout+0x78>
                                                     || (hspi->Init.Direction == SPI_DIRECTION_2LINES_RXONLY)))
 800496a:	68fb      	ldr	r3, [r7, #12]
 800496c:	689b      	ldr	r3, [r3, #8]
 800496e:	f5b3 6f80 	cmp.w	r3, #1024	; 0x400
 8004972:	d107      	bne.n	8004984 <SPI_WaitFifoStateUntilTimeout+0x88>
        {
          /* Disable SPI peripheral */
          __HAL_SPI_DISABLE(hspi);
 8004974:	68fb      	ldr	r3, [r7, #12]
 8004976:	681b      	ldr	r3, [r3, #0]
 8004978:	68fa      	ldr	r2, [r7, #12]
 800497a:	6812      	ldr	r2, [r2, #0]
 800497c:	6812      	ldr	r2, [r2, #0]
 800497e:	f022 0240 	bic.w	r2, r2, #64	; 0x40
 8004982:	601a      	str	r2, [r3, #0]
        }

        /* Reset CRC Calculation */
        if (hspi->Init.CRCCalculation == SPI_CRCCALCULATION_ENABLE)
 8004984:	68fb      	ldr	r3, [r7, #12]
 8004986:	6a9b      	ldr	r3, [r3, #40]	; 0x28
 8004988:	f5b3 5f00 	cmp.w	r3, #8192	; 0x2000
 800498c:	d110      	bne.n	80049b0 <SPI_WaitFifoStateUntilTimeout+0xb4>
        {
          SPI_RESET_CRC(hspi);
 800498e:	68fb      	ldr	r3, [r7, #12]
 8004990:	681a      	ldr	r2, [r3, #0]
 8004992:	68fb      	ldr	r3, [r7, #12]
 8004994:	681b      	ldr	r3, [r3, #0]
 8004996:	6819      	ldr	r1, [r3, #0]
 8004998:	f64d 73ff 	movw	r3, #57343	; 0xdfff
 800499c:	400b      	ands	r3, r1
 800499e:	6013      	str	r3, [r2, #0]
 80049a0:	68fb      	ldr	r3, [r7, #12]
 80049a2:	681b      	ldr	r3, [r3, #0]
 80049a4:	68fa      	ldr	r2, [r7, #12]
 80049a6:	6812      	ldr	r2, [r2, #0]
 80049a8:	6812      	ldr	r2, [r2, #0]
 80049aa:	f442 5200 	orr.w	r2, r2, #8192	; 0x2000
 80049ae:	601a      	str	r2, [r3, #0]
        }

        hspi->State = HAL_SPI_STATE_READY;
 80049b0:	68fb      	ldr	r3, [r7, #12]
 80049b2:	2201      	movs	r2, #1
 80049b4:	f883 205d 	strb.w	r2, [r3, #93]	; 0x5d

        /* Process Unlocked */
        __HAL_UNLOCK(hspi);
 80049b8:	68fb      	ldr	r3, [r7, #12]
 80049ba:	2200      	movs	r2, #0
 80049bc:	f883 205c 	strb.w	r2, [r3, #92]	; 0x5c

        return HAL_TIMEOUT;
 80049c0:	2303      	movs	r3, #3
 80049c2:	e008      	b.n	80049d6 <SPI_WaitFifoStateUntilTimeout+0xda>
  while ((hspi->Instance->SR & Fifo) != State)
 80049c4:	68fb      	ldr	r3, [r7, #12]
 80049c6:	681b      	ldr	r3, [r3, #0]
 80049c8:	689a      	ldr	r2, [r3, #8]
 80049ca:	68bb      	ldr	r3, [r7, #8]
 80049cc:	401a      	ands	r2, r3
 80049ce:	687b      	ldr	r3, [r7, #4]
 80049d0:	429a      	cmp	r2, r3
 80049d2:	d19b      	bne.n	800490c <SPI_WaitFifoStateUntilTimeout+0x10>
      }
    }
  }

  return HAL_OK;
 80049d4:	2300      	movs	r3, #0
}
 80049d6:	4618      	mov	r0, r3
 80049d8:	3718      	adds	r7, #24
 80049da:	46bd      	mov	sp, r7
 80049dc:	bd80      	pop	{r7, pc}

080049de <SPI_EndRxTxTransaction>:
  * @param hspi: SPI handle
  * @param Timeout: Timeout duration
  * @param  Tickstart: tick start value
  */
static HAL_StatusTypeDef SPI_EndRxTxTransaction(SPI_HandleTypeDef *hspi, uint32_t Timeout, uint32_t Tickstart)
{
 80049de:	b580      	push	{r7, lr}
 80049e0:	b086      	sub	sp, #24
 80049e2:	af02      	add	r7, sp, #8
 80049e4:	60f8      	str	r0, [r7, #12]
 80049e6:	60b9      	str	r1, [r7, #8]
 80049e8:	607a      	str	r2, [r7, #4]
  /* Control if the TX fifo is empty */
  if (SPI_WaitFifoStateUntilTimeout(hspi, SPI_FLAG_FTLVL, SPI_FTLVL_EMPTY, Timeout, Tickstart) != HAL_OK)
 80049ea:	687b      	ldr	r3, [r7, #4]
 80049ec:	9300      	str	r3, [sp, #0]
 80049ee:	68bb      	ldr	r3, [r7, #8]
 80049f0:	2200      	movs	r2, #0
 80049f2:	f44f 51c0 	mov.w	r1, #6144	; 0x1800
 80049f6:	68f8      	ldr	r0, [r7, #12]
 80049f8:	f7ff ff80 	bl	80048fc <SPI_WaitFifoStateUntilTimeout>
 80049fc:	4603      	mov	r3, r0
 80049fe:	2b00      	cmp	r3, #0
 8004a00:	d007      	beq.n	8004a12 <SPI_EndRxTxTransaction+0x34>
  {
    SET_BIT(hspi->ErrorCode, HAL_SPI_ERROR_FLAG);
 8004a02:	68fb      	ldr	r3, [r7, #12]
 8004a04:	6e1b      	ldr	r3, [r3, #96]	; 0x60
 8004a06:	f043 0220 	orr.w	r2, r3, #32
 8004a0a:	68fb      	ldr	r3, [r7, #12]
 8004a0c:	661a      	str	r2, [r3, #96]	; 0x60
    return HAL_TIMEOUT;
 8004a0e:	2303      	movs	r3, #3
 8004a10:	e013      	b.n	8004a3a <SPI_EndRxTxTransaction+0x5c>
  }
  /* Control the BSY flag */
  if (SPI_WaitFlagStateUntilTimeout(hspi, SPI_FLAG_BSY, RESET, Timeout, Tickstart) != HAL_OK)
 8004a12:	687b      	ldr	r3, [r7, #4]
 8004a14:	9300      	str	r3, [sp, #0]
 8004a16:	68bb      	ldr	r3, [r7, #8]
 8004a18:	2200      	movs	r2, #0
 8004a1a:	2180      	movs	r1, #128	; 0x80
 8004a1c:	68f8      	ldr	r0, [r7, #12]
 8004a1e:	f7ff ff04 	bl	800482a <SPI_WaitFlagStateUntilTimeout>
 8004a22:	4603      	mov	r3, r0
 8004a24:	2b00      	cmp	r3, #0
 8004a26:	d007      	beq.n	8004a38 <SPI_EndRxTxTransaction+0x5a>
  {
    SET_BIT(hspi->ErrorCode, HAL_SPI_ERROR_FLAG);
 8004a28:	68fb      	ldr	r3, [r7, #12]
 8004a2a:	6e1b      	ldr	r3, [r3, #96]	; 0x60
 8004a2c:	f043 0220 	orr.w	r2, r3, #32
 8004a30:	68fb      	ldr	r3, [r7, #12]
 8004a32:	661a      	str	r2, [r3, #96]	; 0x60
    return HAL_TIMEOUT;
 8004a34:	2303      	movs	r3, #3
 8004a36:	e000      	b.n	8004a3a <SPI_EndRxTxTransaction+0x5c>
  }
  return HAL_OK;
 8004a38:	2300      	movs	r3, #0
}
 8004a3a:	4618      	mov	r0, r3
 8004a3c:	3710      	adds	r7, #16
 8004a3e:	46bd      	mov	sp, r7
 8004a40:	bd80      	pop	{r7, pc}

08004a42 <HAL_UART_Init>:
  *        parameters in the UART_InitTypeDef and initialize the associated handle.
  * @param huart: UART handle.
  * @retval HAL status
  */
HAL_StatusTypeDef HAL_UART_Init(UART_HandleTypeDef *huart)
{
 8004a42:	b580      	push	{r7, lr}
 8004a44:	b082      	sub	sp, #8
 8004a46:	af00      	add	r7, sp, #0
 8004a48:	6078      	str	r0, [r7, #4]
  /* Check the UART handle allocation */
  if(huart == NULL)
 8004a4a:	687b      	ldr	r3, [r7, #4]
 8004a4c:	2b00      	cmp	r3, #0
 8004a4e:	d101      	bne.n	8004a54 <HAL_UART_Init+0x12>
  {
    return HAL_ERROR;
 8004a50:	2301      	movs	r3, #1
 8004a52:	e043      	b.n	8004adc <HAL_UART_Init+0x9a>
  {
    /* Check the parameters */
    assert_param((IS_UART_INSTANCE(huart->Instance)) || (IS_LPUART_INSTANCE(huart->Instance)));
  }

  if(huart->gState == HAL_UART_STATE_RESET)
 8004a54:	687b      	ldr	r3, [r7, #4]
 8004a56:	f893 3069 	ldrb.w	r3, [r3, #105]	; 0x69
 8004a5a:	b2db      	uxtb	r3, r3
 8004a5c:	2b00      	cmp	r3, #0
 8004a5e:	d106      	bne.n	8004a6e <HAL_UART_Init+0x2c>
  {
    /* Allocate lock resource and initialize it */
    huart->Lock = HAL_UNLOCKED;
 8004a60:	687b      	ldr	r3, [r7, #4]
 8004a62:	2200      	movs	r2, #0
 8004a64:	f883 2068 	strb.w	r2, [r3, #104]	; 0x68

    /* Init the low level hardware : GPIO, CLOCK */
    HAL_UART_MspInit(huart);
 8004a68:	6878      	ldr	r0, [r7, #4]
 8004a6a:	f002 ffbd 	bl	80079e8 <HAL_UART_MspInit>
  }

  huart->gState = HAL_UART_STATE_BUSY;
 8004a6e:	687b      	ldr	r3, [r7, #4]
 8004a70:	2224      	movs	r2, #36	; 0x24
 8004a72:	f883 2069 	strb.w	r2, [r3, #105]	; 0x69

  /* Disable the Peripheral */
  __HAL_UART_DISABLE(huart);
 8004a76:	687b      	ldr	r3, [r7, #4]
 8004a78:	681b      	ldr	r3, [r3, #0]
 8004a7a:	687a      	ldr	r2, [r7, #4]
 8004a7c:	6812      	ldr	r2, [r2, #0]
 8004a7e:	6812      	ldr	r2, [r2, #0]
 8004a80:	f022 0201 	bic.w	r2, r2, #1
 8004a84:	601a      	str	r2, [r3, #0]

  /* Set the UART Communication parameters */
  if (UART_SetConfig(huart) == HAL_ERROR)
 8004a86:	6878      	ldr	r0, [r7, #4]
 8004a88:	f000 f97c 	bl	8004d84 <UART_SetConfig>
 8004a8c:	4603      	mov	r3, r0
 8004a8e:	2b01      	cmp	r3, #1
 8004a90:	d101      	bne.n	8004a96 <HAL_UART_Init+0x54>
  {
    return HAL_ERROR;
 8004a92:	2301      	movs	r3, #1
 8004a94:	e022      	b.n	8004adc <HAL_UART_Init+0x9a>
  }

  if (huart->AdvancedInit.AdvFeatureInit != UART_ADVFEATURE_NO_INIT)
 8004a96:	687b      	ldr	r3, [r7, #4]
 8004a98:	6a5b      	ldr	r3, [r3, #36]	; 0x24
 8004a9a:	2b00      	cmp	r3, #0
 8004a9c:	d002      	beq.n	8004aa4 <HAL_UART_Init+0x62>
  {
    UART_AdvFeatureConfig(huart);
 8004a9e:	6878      	ldr	r0, [r7, #4]
 8004aa0:	f000 fc3e 	bl	8005320 <UART_AdvFeatureConfig>
  }

  /* In asynchronous mode, the following bits must be kept cleared:
  - LINEN and CLKEN bits in the USART_CR2 register,
  - SCEN, HDSEL and IREN  bits in the USART_CR3 register.*/
  CLEAR_BIT(huart->Instance->CR2, (USART_CR2_LINEN | USART_CR2_CLKEN));
 8004aa4:	687b      	ldr	r3, [r7, #4]
 8004aa6:	681b      	ldr	r3, [r3, #0]
 8004aa8:	687a      	ldr	r2, [r7, #4]
 8004aaa:	6812      	ldr	r2, [r2, #0]
 8004aac:	6852      	ldr	r2, [r2, #4]
 8004aae:	f422 4290 	bic.w	r2, r2, #18432	; 0x4800
 8004ab2:	605a      	str	r2, [r3, #4]
  CLEAR_BIT(huart->Instance->CR3, (USART_CR3_SCEN | USART_CR3_HDSEL | USART_CR3_IREN));
 8004ab4:	687b      	ldr	r3, [r7, #4]
 8004ab6:	681b      	ldr	r3, [r3, #0]
 8004ab8:	687a      	ldr	r2, [r7, #4]
 8004aba:	6812      	ldr	r2, [r2, #0]
 8004abc:	6892      	ldr	r2, [r2, #8]
 8004abe:	f022 022a 	bic.w	r2, r2, #42	; 0x2a
 8004ac2:	609a      	str	r2, [r3, #8]

  /* Enable the Peripheral */
  __HAL_UART_ENABLE(huart);
 8004ac4:	687b      	ldr	r3, [r7, #4]
 8004ac6:	681b      	ldr	r3, [r3, #0]
 8004ac8:	687a      	ldr	r2, [r7, #4]
 8004aca:	6812      	ldr	r2, [r2, #0]
 8004acc:	6812      	ldr	r2, [r2, #0]
 8004ace:	f042 0201 	orr.w	r2, r2, #1
 8004ad2:	601a      	str	r2, [r3, #0]

  /* TEACK and/or REACK to check before moving huart->gState and huart->RxState to Ready */
  return (UART_CheckIdleState(huart));
 8004ad4:	6878      	ldr	r0, [r7, #4]
 8004ad6:	f000 fcc5 	bl	8005464 <UART_CheckIdleState>
 8004ada:	4603      	mov	r3, r0
}
 8004adc:	4618      	mov	r0, r3
 8004ade:	3708      	adds	r7, #8
 8004ae0:	46bd      	mov	sp, r7
 8004ae2:	bd80      	pop	{r7, pc}

08004ae4 <HAL_UART_Transmit>:
  * @param Size: Amount of data to be sent.
  * @param Timeout: Timeout duration.
  * @retval HAL status
  */
HAL_StatusTypeDef HAL_UART_Transmit(UART_HandleTypeDef *huart, uint8_t *pData, uint16_t Size, uint32_t Timeout)
{
 8004ae4:	b580      	push	{r7, lr}
 8004ae6:	b088      	sub	sp, #32
 8004ae8:	af02      	add	r7, sp, #8
 8004aea:	60f8      	str	r0, [r7, #12]
 8004aec:	60b9      	str	r1, [r7, #8]
 8004aee:	603b      	str	r3, [r7, #0]
 8004af0:	4613      	mov	r3, r2
 8004af2:	80fb      	strh	r3, [r7, #6]
  uint16_t* tmp;
  uint32_t tickstart = 0;
 8004af4:	2300      	movs	r3, #0
 8004af6:	617b      	str	r3, [r7, #20]

  /* Check that a Tx process is not already ongoing */
  if(huart->gState == HAL_UART_STATE_READY)
 8004af8:	68fb      	ldr	r3, [r7, #12]
 8004afa:	f893 3069 	ldrb.w	r3, [r3, #105]	; 0x69
 8004afe:	b2db      	uxtb	r3, r3
 8004b00:	2b20      	cmp	r3, #32
 8004b02:	d177      	bne.n	8004bf4 <HAL_UART_Transmit+0x110>
  {
    if((pData == NULL ) || (Size == 0))
 8004b04:	68bb      	ldr	r3, [r7, #8]
 8004b06:	2b00      	cmp	r3, #0
 8004b08:	d002      	beq.n	8004b10 <HAL_UART_Transmit+0x2c>
 8004b0a:	88fb      	ldrh	r3, [r7, #6]
 8004b0c:	2b00      	cmp	r3, #0
 8004b0e:	d101      	bne.n	8004b14 <HAL_UART_Transmit+0x30>
    {
      return  HAL_ERROR;
 8004b10:	2301      	movs	r3, #1
 8004b12:	e070      	b.n	8004bf6 <HAL_UART_Transmit+0x112>
    }

    /* Process Locked */
    __HAL_LOCK(huart);
 8004b14:	68fb      	ldr	r3, [r7, #12]
 8004b16:	f893 3068 	ldrb.w	r3, [r3, #104]	; 0x68
 8004b1a:	2b01      	cmp	r3, #1
 8004b1c:	d101      	bne.n	8004b22 <HAL_UART_Transmit+0x3e>
 8004b1e:	2302      	movs	r3, #2
 8004b20:	e069      	b.n	8004bf6 <HAL_UART_Transmit+0x112>
 8004b22:	68fb      	ldr	r3, [r7, #12]
 8004b24:	2201      	movs	r2, #1
 8004b26:	f883 2068 	strb.w	r2, [r3, #104]	; 0x68

    huart->ErrorCode = HAL_UART_ERROR_NONE;
 8004b2a:	68fb      	ldr	r3, [r7, #12]
 8004b2c:	2200      	movs	r2, #0
 8004b2e:	66da      	str	r2, [r3, #108]	; 0x6c
    huart->gState = HAL_UART_STATE_BUSY_TX;
 8004b30:	68fb      	ldr	r3, [r7, #12]
 8004b32:	2221      	movs	r2, #33	; 0x21
 8004b34:	f883 2069 	strb.w	r2, [r3, #105]	; 0x69

    /* Init tickstart for timeout managment*/
    tickstart = HAL_GetTick();
 8004b38:	f7fc ff44 	bl	80019c4 <HAL_GetTick>
 8004b3c:	6178      	str	r0, [r7, #20]

    huart->TxXferSize = Size;
 8004b3e:	68fb      	ldr	r3, [r7, #12]
 8004b40:	88fa      	ldrh	r2, [r7, #6]
 8004b42:	f8a3 2050 	strh.w	r2, [r3, #80]	; 0x50
    huart->TxXferCount = Size;
 8004b46:	68fb      	ldr	r3, [r7, #12]
 8004b48:	88fa      	ldrh	r2, [r7, #6]
 8004b4a:	f8a3 2052 	strh.w	r2, [r3, #82]	; 0x52
    while(huart->TxXferCount > 0)
 8004b4e:	e034      	b.n	8004bba <HAL_UART_Transmit+0xd6>
    {
      huart->TxXferCount--;
 8004b50:	68fb      	ldr	r3, [r7, #12]
 8004b52:	f8b3 3052 	ldrh.w	r3, [r3, #82]	; 0x52
 8004b56:	b29b      	uxth	r3, r3
 8004b58:	3b01      	subs	r3, #1
 8004b5a:	b29a      	uxth	r2, r3
 8004b5c:	68fb      	ldr	r3, [r7, #12]
 8004b5e:	f8a3 2052 	strh.w	r2, [r3, #82]	; 0x52
      if(UART_WaitOnFlagUntilTimeout(huart, UART_FLAG_TXE, RESET, tickstart, Timeout) != HAL_OK)
 8004b62:	683b      	ldr	r3, [r7, #0]
 8004b64:	9300      	str	r3, [sp, #0]
 8004b66:	697b      	ldr	r3, [r7, #20]
 8004b68:	2200      	movs	r2, #0
 8004b6a:	2180      	movs	r1, #128	; 0x80
 8004b6c:	68f8      	ldr	r0, [r7, #12]
 8004b6e:	f000 fcc2 	bl	80054f6 <UART_WaitOnFlagUntilTimeout>
 8004b72:	4603      	mov	r3, r0
 8004b74:	2b00      	cmp	r3, #0
 8004b76:	d001      	beq.n	8004b7c <HAL_UART_Transmit+0x98>
      {
        return HAL_TIMEOUT;
 8004b78:	2303      	movs	r3, #3
 8004b7a:	e03c      	b.n	8004bf6 <HAL_UART_Transmit+0x112>
      }
      if ((huart->Init.WordLength == UART_WORDLENGTH_9B) && (huart->Init.Parity == UART_PARITY_NONE))
 8004b7c:	68fb      	ldr	r3, [r7, #12]
 8004b7e:	689b      	ldr	r3, [r3, #8]
 8004b80:	f5b3 5f80 	cmp.w	r3, #4096	; 0x1000
 8004b84:	d111      	bne.n	8004baa <HAL_UART_Transmit+0xc6>
 8004b86:	68fb      	ldr	r3, [r7, #12]
 8004b88:	691b      	ldr	r3, [r3, #16]
 8004b8a:	2b00      	cmp	r3, #0
 8004b8c:	d10d      	bne.n	8004baa <HAL_UART_Transmit+0xc6>
      {
        tmp = (uint16_t*) pData;
 8004b8e:	68bb      	ldr	r3, [r7, #8]
 8004b90:	613b      	str	r3, [r7, #16]
        huart->Instance->TDR = (*tmp & (uint16_t)0x01FF);
 8004b92:	68fb      	ldr	r3, [r7, #12]
 8004b94:	681b      	ldr	r3, [r3, #0]
 8004b96:	693a      	ldr	r2, [r7, #16]
 8004b98:	8812      	ldrh	r2, [r2, #0]
 8004b9a:	f3c2 0208 	ubfx	r2, r2, #0, #9
 8004b9e:	b292      	uxth	r2, r2
 8004ba0:	851a      	strh	r2, [r3, #40]	; 0x28
        pData += 2;
 8004ba2:	68bb      	ldr	r3, [r7, #8]
 8004ba4:	3302      	adds	r3, #2
 8004ba6:	60bb      	str	r3, [r7, #8]
 8004ba8:	e007      	b.n	8004bba <HAL_UART_Transmit+0xd6>
      }
      else
      {
        huart->Instance->TDR = (*pData++ & (uint8_t)0xFF);
 8004baa:	68fb      	ldr	r3, [r7, #12]
 8004bac:	681a      	ldr	r2, [r3, #0]
 8004bae:	68bb      	ldr	r3, [r7, #8]
 8004bb0:	1c59      	adds	r1, r3, #1
 8004bb2:	60b9      	str	r1, [r7, #8]
 8004bb4:	781b      	ldrb	r3, [r3, #0]
 8004bb6:	b29b      	uxth	r3, r3
 8004bb8:	8513      	strh	r3, [r2, #40]	; 0x28
    while(huart->TxXferCount > 0)
 8004bba:	68fb      	ldr	r3, [r7, #12]
 8004bbc:	f8b3 3052 	ldrh.w	r3, [r3, #82]	; 0x52
 8004bc0:	b29b      	uxth	r3, r3
 8004bc2:	2b00      	cmp	r3, #0
 8004bc4:	d1c4      	bne.n	8004b50 <HAL_UART_Transmit+0x6c>
      }
    }
    if(UART_WaitOnFlagUntilTimeout(huart, UART_FLAG_TC, RESET, tickstart, Timeout) != HAL_OK)
 8004bc6:	683b      	ldr	r3, [r7, #0]
 8004bc8:	9300      	str	r3, [sp, #0]
 8004bca:	697b      	ldr	r3, [r7, #20]
 8004bcc:	2200      	movs	r2, #0
 8004bce:	2140      	movs	r1, #64	; 0x40
 8004bd0:	68f8      	ldr	r0, [r7, #12]
 8004bd2:	f000 fc90 	bl	80054f6 <UART_WaitOnFlagUntilTimeout>
 8004bd6:	4603      	mov	r3, r0
 8004bd8:	2b00      	cmp	r3, #0
 8004bda:	d001      	beq.n	8004be0 <HAL_UART_Transmit+0xfc>
    {
      return HAL_TIMEOUT;
 8004bdc:	2303      	movs	r3, #3
 8004bde:	e00a      	b.n	8004bf6 <HAL_UART_Transmit+0x112>
    }

    /* At end of Tx process, restore huart->gState to Ready */
    huart->gState = HAL_UART_STATE_READY;
 8004be0:	68fb      	ldr	r3, [r7, #12]
 8004be2:	2220      	movs	r2, #32
 8004be4:	f883 2069 	strb.w	r2, [r3, #105]	; 0x69

    /* Process Unlocked */
    __HAL_UNLOCK(huart);
 8004be8:	68fb      	ldr	r3, [r7, #12]
 8004bea:	2200      	movs	r2, #0
 8004bec:	f883 2068 	strb.w	r2, [r3, #104]	; 0x68

    return HAL_OK;
 8004bf0:	2300      	movs	r3, #0
 8004bf2:	e000      	b.n	8004bf6 <HAL_UART_Transmit+0x112>
  }
  else
  {
    return HAL_BUSY;
 8004bf4:	2302      	movs	r3, #2
  }
}
 8004bf6:	4618      	mov	r0, r3
 8004bf8:	3718      	adds	r7, #24
 8004bfa:	46bd      	mov	sp, r7
 8004bfc:	bd80      	pop	{r7, pc}

08004bfe <HAL_UART_Receive>:
  * @param Size: amount of data to be received.
  * @param Timeout: Timeout duration.
  * @retval HAL status
  */
HAL_StatusTypeDef HAL_UART_Receive(UART_HandleTypeDef *huart, uint8_t *pData, uint16_t Size, uint32_t Timeout)
{
 8004bfe:	b580      	push	{r7, lr}
 8004c00:	b08a      	sub	sp, #40	; 0x28
 8004c02:	af02      	add	r7, sp, #8
 8004c04:	60f8      	str	r0, [r7, #12]
 8004c06:	60b9      	str	r1, [r7, #8]
 8004c08:	603b      	str	r3, [r7, #0]
 8004c0a:	4613      	mov	r3, r2
 8004c0c:	80fb      	strh	r3, [r7, #6]
  uint16_t* tmp;
  uint16_t uhMask;
  uint32_t tickstart = 0;
 8004c0e:	2300      	movs	r3, #0
 8004c10:	61fb      	str	r3, [r7, #28]

  /* Check that a Rx process is not already ongoing */
  if(huart->RxState == HAL_UART_STATE_READY)
 8004c12:	68fb      	ldr	r3, [r7, #12]
 8004c14:	f893 306a 	ldrb.w	r3, [r3, #106]	; 0x6a
 8004c18:	b2db      	uxtb	r3, r3
 8004c1a:	2b20      	cmp	r3, #32
 8004c1c:	f040 80ad 	bne.w	8004d7a <HAL_UART_Receive+0x17c>
  {
    if((pData == NULL ) || (Size == 0))
 8004c20:	68bb      	ldr	r3, [r7, #8]
 8004c22:	2b00      	cmp	r3, #0
 8004c24:	d002      	beq.n	8004c2c <HAL_UART_Receive+0x2e>
 8004c26:	88fb      	ldrh	r3, [r7, #6]
 8004c28:	2b00      	cmp	r3, #0
 8004c2a:	d101      	bne.n	8004c30 <HAL_UART_Receive+0x32>
    {
      return  HAL_ERROR;
 8004c2c:	2301      	movs	r3, #1
 8004c2e:	e0a5      	b.n	8004d7c <HAL_UART_Receive+0x17e>
    }

    /* Process Locked */
    __HAL_LOCK(huart);
 8004c30:	68fb      	ldr	r3, [r7, #12]
 8004c32:	f893 3068 	ldrb.w	r3, [r3, #104]	; 0x68
 8004c36:	2b01      	cmp	r3, #1
 8004c38:	d101      	bne.n	8004c3e <HAL_UART_Receive+0x40>
 8004c3a:	2302      	movs	r3, #2
 8004c3c:	e09e      	b.n	8004d7c <HAL_UART_Receive+0x17e>
 8004c3e:	68fb      	ldr	r3, [r7, #12]
 8004c40:	2201      	movs	r2, #1
 8004c42:	f883 2068 	strb.w	r2, [r3, #104]	; 0x68

    huart->ErrorCode = HAL_UART_ERROR_NONE;
 8004c46:	68fb      	ldr	r3, [r7, #12]
 8004c48:	2200      	movs	r2, #0
 8004c4a:	66da      	str	r2, [r3, #108]	; 0x6c
    huart->RxState = HAL_UART_STATE_BUSY_RX;
 8004c4c:	68fb      	ldr	r3, [r7, #12]
 8004c4e:	2222      	movs	r2, #34	; 0x22
 8004c50:	f883 206a 	strb.w	r2, [r3, #106]	; 0x6a

    /* Init tickstart for timeout managment*/
    tickstart = HAL_GetTick();
 8004c54:	f7fc feb6 	bl	80019c4 <HAL_GetTick>
 8004c58:	61f8      	str	r0, [r7, #28]

    huart->RxXferSize = Size;
 8004c5a:	68fb      	ldr	r3, [r7, #12]
 8004c5c:	88fa      	ldrh	r2, [r7, #6]
 8004c5e:	f8a3 2058 	strh.w	r2, [r3, #88]	; 0x58
    huart->RxXferCount = Size;
 8004c62:	68fb      	ldr	r3, [r7, #12]
 8004c64:	88fa      	ldrh	r2, [r7, #6]
 8004c66:	f8a3 205a 	strh.w	r2, [r3, #90]	; 0x5a

    /* Computation of UART mask to apply to RDR register */
    UART_MASK_COMPUTATION(huart);
 8004c6a:	68fb      	ldr	r3, [r7, #12]
 8004c6c:	689b      	ldr	r3, [r3, #8]
 8004c6e:	f5b3 5f80 	cmp.w	r3, #4096	; 0x1000
 8004c72:	d10e      	bne.n	8004c92 <HAL_UART_Receive+0x94>
 8004c74:	68fb      	ldr	r3, [r7, #12]
 8004c76:	691b      	ldr	r3, [r3, #16]
 8004c78:	2b00      	cmp	r3, #0
 8004c7a:	d105      	bne.n	8004c88 <HAL_UART_Receive+0x8a>
 8004c7c:	68fb      	ldr	r3, [r7, #12]
 8004c7e:	f240 12ff 	movw	r2, #511	; 0x1ff
 8004c82:	f8a3 205c 	strh.w	r2, [r3, #92]	; 0x5c
 8004c86:	e028      	b.n	8004cda <HAL_UART_Receive+0xdc>
 8004c88:	68fb      	ldr	r3, [r7, #12]
 8004c8a:	22ff      	movs	r2, #255	; 0xff
 8004c8c:	f8a3 205c 	strh.w	r2, [r3, #92]	; 0x5c
 8004c90:	e023      	b.n	8004cda <HAL_UART_Receive+0xdc>
 8004c92:	68fb      	ldr	r3, [r7, #12]
 8004c94:	689b      	ldr	r3, [r3, #8]
 8004c96:	2b00      	cmp	r3, #0
 8004c98:	d10d      	bne.n	8004cb6 <HAL_UART_Receive+0xb8>
 8004c9a:	68fb      	ldr	r3, [r7, #12]
 8004c9c:	691b      	ldr	r3, [r3, #16]
 8004c9e:	2b00      	cmp	r3, #0
 8004ca0:	d104      	bne.n	8004cac <HAL_UART_Receive+0xae>
 8004ca2:	68fb      	ldr	r3, [r7, #12]
 8004ca4:	22ff      	movs	r2, #255	; 0xff
 8004ca6:	f8a3 205c 	strh.w	r2, [r3, #92]	; 0x5c
 8004caa:	e016      	b.n	8004cda <HAL_UART_Receive+0xdc>
 8004cac:	68fb      	ldr	r3, [r7, #12]
 8004cae:	227f      	movs	r2, #127	; 0x7f
 8004cb0:	f8a3 205c 	strh.w	r2, [r3, #92]	; 0x5c
 8004cb4:	e011      	b.n	8004cda <HAL_UART_Receive+0xdc>
 8004cb6:	68fb      	ldr	r3, [r7, #12]
 8004cb8:	689b      	ldr	r3, [r3, #8]
 8004cba:	f1b3 5f80 	cmp.w	r3, #268435456	; 0x10000000
 8004cbe:	d10c      	bne.n	8004cda <HAL_UART_Receive+0xdc>
 8004cc0:	68fb      	ldr	r3, [r7, #12]
 8004cc2:	691b      	ldr	r3, [r3, #16]
 8004cc4:	2b00      	cmp	r3, #0
 8004cc6:	d104      	bne.n	8004cd2 <HAL_UART_Receive+0xd4>
 8004cc8:	68fb      	ldr	r3, [r7, #12]
 8004cca:	227f      	movs	r2, #127	; 0x7f
 8004ccc:	f8a3 205c 	strh.w	r2, [r3, #92]	; 0x5c
 8004cd0:	e003      	b.n	8004cda <HAL_UART_Receive+0xdc>
 8004cd2:	68fb      	ldr	r3, [r7, #12]
 8004cd4:	223f      	movs	r2, #63	; 0x3f
 8004cd6:	f8a3 205c 	strh.w	r2, [r3, #92]	; 0x5c
    uhMask = huart->Mask;
 8004cda:	68fb      	ldr	r3, [r7, #12]
 8004cdc:	f8b3 305c 	ldrh.w	r3, [r3, #92]	; 0x5c
 8004ce0:	837b      	strh	r3, [r7, #26]

    /* as long as data have to be received */
    while(huart->RxXferCount > 0)
 8004ce2:	e03a      	b.n	8004d5a <HAL_UART_Receive+0x15c>
    {
      huart->RxXferCount--;
 8004ce4:	68fb      	ldr	r3, [r7, #12]
 8004ce6:	f8b3 305a 	ldrh.w	r3, [r3, #90]	; 0x5a
 8004cea:	b29b      	uxth	r3, r3
 8004cec:	3b01      	subs	r3, #1
 8004cee:	b29a      	uxth	r2, r3
 8004cf0:	68fb      	ldr	r3, [r7, #12]
 8004cf2:	f8a3 205a 	strh.w	r2, [r3, #90]	; 0x5a
      if(UART_WaitOnFlagUntilTimeout(huart, UART_FLAG_RXNE, RESET, tickstart, Timeout) != HAL_OK)
 8004cf6:	683b      	ldr	r3, [r7, #0]
 8004cf8:	9300      	str	r3, [sp, #0]
 8004cfa:	69fb      	ldr	r3, [r7, #28]
 8004cfc:	2200      	movs	r2, #0
 8004cfe:	2120      	movs	r1, #32
 8004d00:	68f8      	ldr	r0, [r7, #12]
 8004d02:	f000 fbf8 	bl	80054f6 <UART_WaitOnFlagUntilTimeout>
 8004d06:	4603      	mov	r3, r0
 8004d08:	2b00      	cmp	r3, #0
 8004d0a:	d001      	beq.n	8004d10 <HAL_UART_Receive+0x112>
      {
        return HAL_TIMEOUT;
 8004d0c:	2303      	movs	r3, #3
 8004d0e:	e035      	b.n	8004d7c <HAL_UART_Receive+0x17e>
      }
      if ((huart->Init.WordLength == UART_WORDLENGTH_9B) && (huart->Init.Parity == UART_PARITY_NONE))
 8004d10:	68fb      	ldr	r3, [r7, #12]
 8004d12:	689b      	ldr	r3, [r3, #8]
 8004d14:	f5b3 5f80 	cmp.w	r3, #4096	; 0x1000
 8004d18:	d112      	bne.n	8004d40 <HAL_UART_Receive+0x142>
 8004d1a:	68fb      	ldr	r3, [r7, #12]
 8004d1c:	691b      	ldr	r3, [r3, #16]
 8004d1e:	2b00      	cmp	r3, #0
 8004d20:	d10e      	bne.n	8004d40 <HAL_UART_Receive+0x142>
      {
        tmp = (uint16_t*) pData ;
 8004d22:	68bb      	ldr	r3, [r7, #8]
 8004d24:	617b      	str	r3, [r7, #20]
        *tmp = (uint16_t)(huart->Instance->RDR & uhMask);
 8004d26:	68fb      	ldr	r3, [r7, #12]
 8004d28:	681b      	ldr	r3, [r3, #0]
 8004d2a:	8c9b      	ldrh	r3, [r3, #36]	; 0x24
 8004d2c:	b29a      	uxth	r2, r3
 8004d2e:	8b7b      	ldrh	r3, [r7, #26]
 8004d30:	4013      	ands	r3, r2
 8004d32:	b29a      	uxth	r2, r3
 8004d34:	697b      	ldr	r3, [r7, #20]
 8004d36:	801a      	strh	r2, [r3, #0]
        pData +=2;
 8004d38:	68bb      	ldr	r3, [r7, #8]
 8004d3a:	3302      	adds	r3, #2
 8004d3c:	60bb      	str	r3, [r7, #8]
 8004d3e:	e00c      	b.n	8004d5a <HAL_UART_Receive+0x15c>
      }
      else
      {
        *pData++ = (uint8_t)(huart->Instance->RDR & (uint8_t)uhMask);
 8004d40:	68bb      	ldr	r3, [r7, #8]
 8004d42:	1c5a      	adds	r2, r3, #1
 8004d44:	60ba      	str	r2, [r7, #8]
 8004d46:	68fa      	ldr	r2, [r7, #12]
 8004d48:	6812      	ldr	r2, [r2, #0]
 8004d4a:	8c92      	ldrh	r2, [r2, #36]	; 0x24
 8004d4c:	b292      	uxth	r2, r2
 8004d4e:	b2d1      	uxtb	r1, r2
 8004d50:	8b7a      	ldrh	r2, [r7, #26]
 8004d52:	b2d2      	uxtb	r2, r2
 8004d54:	400a      	ands	r2, r1
 8004d56:	b2d2      	uxtb	r2, r2
 8004d58:	701a      	strb	r2, [r3, #0]
    while(huart->RxXferCount > 0)
 8004d5a:	68fb      	ldr	r3, [r7, #12]
 8004d5c:	f8b3 305a 	ldrh.w	r3, [r3, #90]	; 0x5a
 8004d60:	b29b      	uxth	r3, r3
 8004d62:	2b00      	cmp	r3, #0
 8004d64:	d1be      	bne.n	8004ce4 <HAL_UART_Receive+0xe6>
      }
    }

    /* At end of Rx process, restore huart->RxState to Ready */
    huart->RxState = HAL_UART_STATE_READY;
 8004d66:	68fb      	ldr	r3, [r7, #12]
 8004d68:	2220      	movs	r2, #32
 8004d6a:	f883 206a 	strb.w	r2, [r3, #106]	; 0x6a

    /* Process Unlocked */
    __HAL_UNLOCK(huart);
 8004d6e:	68fb      	ldr	r3, [r7, #12]
 8004d70:	2200      	movs	r2, #0
 8004d72:	f883 2068 	strb.w	r2, [r3, #104]	; 0x68

    return HAL_OK;
 8004d76:	2300      	movs	r3, #0
 8004d78:	e000      	b.n	8004d7c <HAL_UART_Receive+0x17e>
  }
  else
  {
    return HAL_BUSY;
 8004d7a:	2302      	movs	r3, #2
  }
}
 8004d7c:	4618      	mov	r0, r3
 8004d7e:	3720      	adds	r7, #32
 8004d80:	46bd      	mov	sp, r7
 8004d82:	bd80      	pop	{r7, pc}

08004d84 <UART_SetConfig>:
  * @brief Configure the UART peripheral.
  * @param huart: UART handle.
  * @retval HAL status
  */
HAL_StatusTypeDef UART_SetConfig(UART_HandleTypeDef *huart)
{
 8004d84:	e92d 43b0 	stmdb	sp!, {r4, r5, r7, r8, r9, lr}
 8004d88:	b086      	sub	sp, #24
 8004d8a:	af00      	add	r7, sp, #0
 8004d8c:	6078      	str	r0, [r7, #4]
  uint32_t tmpreg                     = 0x00000000;
 8004d8e:	2300      	movs	r3, #0
 8004d90:	617b      	str	r3, [r7, #20]
  UART_ClockSourceTypeDef clocksource = UART_CLOCKSOURCE_UNDEFINED;
 8004d92:	2310      	movs	r3, #16
 8004d94:	74fb      	strb	r3, [r7, #19]
  uint16_t brrtemp                    = 0x0000;
 8004d96:	2300      	movs	r3, #0
 8004d98:	81bb      	strh	r3, [r7, #12]
  uint16_t usartdiv                   = 0x0000;
 8004d9a:	2300      	movs	r3, #0
 8004d9c:	823b      	strh	r3, [r7, #16]
  HAL_StatusTypeDef ret               = HAL_OK;
 8004d9e:	2300      	movs	r3, #0
 8004da0:	73fb      	strb	r3, [r7, #15]
   *  the UART Word Length, Parity, Mode and oversampling:
   *  set the M bits according to huart->Init.WordLength value
   *  set PCE and PS bits according to huart->Init.Parity value
   *  set TE and RE bits according to huart->Init.Mode value
   *  set OVER8 bit according to huart->Init.OverSampling value */
  tmpreg = (uint32_t)huart->Init.WordLength | huart->Init.Parity | huart->Init.Mode | huart->Init.OverSampling ;
 8004da2:	687b      	ldr	r3, [r7, #4]
 8004da4:	689a      	ldr	r2, [r3, #8]
 8004da6:	687b      	ldr	r3, [r7, #4]
 8004da8:	691b      	ldr	r3, [r3, #16]
 8004daa:	431a      	orrs	r2, r3
 8004dac:	687b      	ldr	r3, [r7, #4]
 8004dae:	695b      	ldr	r3, [r3, #20]
 8004db0:	431a      	orrs	r2, r3
 8004db2:	687b      	ldr	r3, [r7, #4]
 8004db4:	69db      	ldr	r3, [r3, #28]
 8004db6:	4313      	orrs	r3, r2
 8004db8:	617b      	str	r3, [r7, #20]
  MODIFY_REG(huart->Instance->CR1, UART_CR1_FIELDS, tmpreg);
 8004dba:	687b      	ldr	r3, [r7, #4]
 8004dbc:	681a      	ldr	r2, [r3, #0]
 8004dbe:	687b      	ldr	r3, [r7, #4]
 8004dc0:	681b      	ldr	r3, [r3, #0]
 8004dc2:	6819      	ldr	r1, [r3, #0]
 8004dc4:	4bb8      	ldr	r3, [pc, #736]	; (80050a8 <UART_SetConfig+0x324>)
 8004dc6:	400b      	ands	r3, r1
 8004dc8:	6979      	ldr	r1, [r7, #20]
 8004dca:	430b      	orrs	r3, r1
 8004dcc:	6013      	str	r3, [r2, #0]

  /*-------------------------- USART CR2 Configuration -----------------------*/
  /* Configure the UART Stop Bits: Set STOP[13:12] bits according
   * to huart->Init.StopBits value */
  MODIFY_REG(huart->Instance->CR2, USART_CR2_STOP, huart->Init.StopBits);
 8004dce:	687b      	ldr	r3, [r7, #4]
 8004dd0:	681b      	ldr	r3, [r3, #0]
 8004dd2:	687a      	ldr	r2, [r7, #4]
 8004dd4:	6812      	ldr	r2, [r2, #0]
 8004dd6:	6852      	ldr	r2, [r2, #4]
 8004dd8:	f422 5140 	bic.w	r1, r2, #12288	; 0x3000
 8004ddc:	687a      	ldr	r2, [r7, #4]
 8004dde:	68d2      	ldr	r2, [r2, #12]
 8004de0:	430a      	orrs	r2, r1
 8004de2:	605a      	str	r2, [r3, #4]
  /* Configure
   * - UART HardWare Flow Control: set CTSE and RTSE bits according
   *   to huart->Init.HwFlowCtl value
   * - one-bit sampling method versus three samples' majority rule according
   *   to huart->Init.OneBitSampling (not applicable to LPUART) */
  tmpreg = (uint32_t)huart->Init.HwFlowCtl;
 8004de4:	687b      	ldr	r3, [r7, #4]
 8004de6:	699b      	ldr	r3, [r3, #24]
 8004de8:	617b      	str	r3, [r7, #20]
  if (!(UART_INSTANCE_LOWPOWER(huart)))
 8004dea:	687b      	ldr	r3, [r7, #4]
 8004dec:	681b      	ldr	r3, [r3, #0]
 8004dee:	4aaf      	ldr	r2, [pc, #700]	; (80050ac <UART_SetConfig+0x328>)
 8004df0:	4293      	cmp	r3, r2
 8004df2:	d004      	beq.n	8004dfe <UART_SetConfig+0x7a>
  {
    tmpreg |= huart->Init.OneBitSampling;
 8004df4:	687b      	ldr	r3, [r7, #4]
 8004df6:	6a1b      	ldr	r3, [r3, #32]
 8004df8:	697a      	ldr	r2, [r7, #20]
 8004dfa:	4313      	orrs	r3, r2
 8004dfc:	617b      	str	r3, [r7, #20]
  }
  MODIFY_REG(huart->Instance->CR3, (USART_CR3_RTSE | USART_CR3_CTSE | USART_CR3_ONEBIT), tmpreg);
 8004dfe:	687b      	ldr	r3, [r7, #4]
 8004e00:	681b      	ldr	r3, [r3, #0]
 8004e02:	687a      	ldr	r2, [r7, #4]
 8004e04:	6812      	ldr	r2, [r2, #0]
 8004e06:	6892      	ldr	r2, [r2, #8]
 8004e08:	f422 6130 	bic.w	r1, r2, #2816	; 0xb00
 8004e0c:	697a      	ldr	r2, [r7, #20]
 8004e0e:	430a      	orrs	r2, r1
 8004e10:	609a      	str	r2, [r3, #8]

  /*-------------------------- USART BRR Configuration -----------------------*/
  UART_GETCLOCKSOURCE(huart, clocksource);
 8004e12:	687b      	ldr	r3, [r7, #4]
 8004e14:	681b      	ldr	r3, [r3, #0]
 8004e16:	4aa6      	ldr	r2, [pc, #664]	; (80050b0 <UART_SetConfig+0x32c>)
 8004e18:	4293      	cmp	r3, r2
 8004e1a:	d121      	bne.n	8004e60 <UART_SetConfig+0xdc>
 8004e1c:	4ba5      	ldr	r3, [pc, #660]	; (80050b4 <UART_SetConfig+0x330>)
 8004e1e:	f8d3 3088 	ldr.w	r3, [r3, #136]	; 0x88
 8004e22:	f003 0303 	and.w	r3, r3, #3
 8004e26:	2b03      	cmp	r3, #3
 8004e28:	d816      	bhi.n	8004e58 <UART_SetConfig+0xd4>
 8004e2a:	a201      	add	r2, pc, #4	; (adr r2, 8004e30 <UART_SetConfig+0xac>)
 8004e2c:	f852 f023 	ldr.w	pc, [r2, r3, lsl #2]
 8004e30:	08004e41 	.word	0x08004e41
 8004e34:	08004e4d 	.word	0x08004e4d
 8004e38:	08004e47 	.word	0x08004e47
 8004e3c:	08004e53 	.word	0x08004e53
 8004e40:	2301      	movs	r3, #1
 8004e42:	74fb      	strb	r3, [r7, #19]
 8004e44:	e094      	b.n	8004f70 <UART_SetConfig+0x1ec>
 8004e46:	2302      	movs	r3, #2
 8004e48:	74fb      	strb	r3, [r7, #19]
 8004e4a:	e091      	b.n	8004f70 <UART_SetConfig+0x1ec>
 8004e4c:	2304      	movs	r3, #4
 8004e4e:	74fb      	strb	r3, [r7, #19]
 8004e50:	e08e      	b.n	8004f70 <UART_SetConfig+0x1ec>
 8004e52:	2308      	movs	r3, #8
 8004e54:	74fb      	strb	r3, [r7, #19]
 8004e56:	e08b      	b.n	8004f70 <UART_SetConfig+0x1ec>
 8004e58:	2310      	movs	r3, #16
 8004e5a:	74fb      	strb	r3, [r7, #19]
 8004e5c:	bf00      	nop
 8004e5e:	e087      	b.n	8004f70 <UART_SetConfig+0x1ec>
 8004e60:	687b      	ldr	r3, [r7, #4]
 8004e62:	681b      	ldr	r3, [r3, #0]
 8004e64:	4a94      	ldr	r2, [pc, #592]	; (80050b8 <UART_SetConfig+0x334>)
 8004e66:	4293      	cmp	r3, r2
 8004e68:	d134      	bne.n	8004ed4 <UART_SetConfig+0x150>
 8004e6a:	4b92      	ldr	r3, [pc, #584]	; (80050b4 <UART_SetConfig+0x330>)
 8004e6c:	f8d3 3088 	ldr.w	r3, [r3, #136]	; 0x88
 8004e70:	f003 030c 	and.w	r3, r3, #12
 8004e74:	2b0c      	cmp	r3, #12
 8004e76:	d829      	bhi.n	8004ecc <UART_SetConfig+0x148>
 8004e78:	a201      	add	r2, pc, #4	; (adr r2, 8004e80 <UART_SetConfig+0xfc>)
 8004e7a:	f852 f023 	ldr.w	pc, [r2, r3, lsl #2]
 8004e7e:	bf00      	nop
 8004e80:	08004eb5 	.word	0x08004eb5
 8004e84:	08004ecd 	.word	0x08004ecd
 8004e88:	08004ecd 	.word	0x08004ecd
 8004e8c:	08004ecd 	.word	0x08004ecd
 8004e90:	08004ec1 	.word	0x08004ec1
 8004e94:	08004ecd 	.word	0x08004ecd
 8004e98:	08004ecd 	.word	0x08004ecd
 8004e9c:	08004ecd 	.word	0x08004ecd
 8004ea0:	08004ebb 	.word	0x08004ebb
 8004ea4:	08004ecd 	.word	0x08004ecd
 8004ea8:	08004ecd 	.word	0x08004ecd
 8004eac:	08004ecd 	.word	0x08004ecd
 8004eb0:	08004ec7 	.word	0x08004ec7
 8004eb4:	2300      	movs	r3, #0
 8004eb6:	74fb      	strb	r3, [r7, #19]
 8004eb8:	e05a      	b.n	8004f70 <UART_SetConfig+0x1ec>
 8004eba:	2302      	movs	r3, #2
 8004ebc:	74fb      	strb	r3, [r7, #19]
 8004ebe:	e057      	b.n	8004f70 <UART_SetConfig+0x1ec>
 8004ec0:	2304      	movs	r3, #4
 8004ec2:	74fb      	strb	r3, [r7, #19]
 8004ec4:	e054      	b.n	8004f70 <UART_SetConfig+0x1ec>
 8004ec6:	2308      	movs	r3, #8
 8004ec8:	74fb      	strb	r3, [r7, #19]
 8004eca:	e051      	b.n	8004f70 <UART_SetConfig+0x1ec>
 8004ecc:	2310      	movs	r3, #16
 8004ece:	74fb      	strb	r3, [r7, #19]
 8004ed0:	bf00      	nop
 8004ed2:	e04d      	b.n	8004f70 <UART_SetConfig+0x1ec>
 8004ed4:	687b      	ldr	r3, [r7, #4]
 8004ed6:	681b      	ldr	r3, [r3, #0]
 8004ed8:	4a78      	ldr	r2, [pc, #480]	; (80050bc <UART_SetConfig+0x338>)
 8004eda:	4293      	cmp	r3, r2
 8004edc:	d120      	bne.n	8004f20 <UART_SetConfig+0x19c>
 8004ede:	4b75      	ldr	r3, [pc, #468]	; (80050b4 <UART_SetConfig+0x330>)
 8004ee0:	f8d3 3088 	ldr.w	r3, [r3, #136]	; 0x88
 8004ee4:	f003 0330 	and.w	r3, r3, #48	; 0x30
 8004ee8:	2b10      	cmp	r3, #16
 8004eea:	d00f      	beq.n	8004f0c <UART_SetConfig+0x188>
 8004eec:	2b10      	cmp	r3, #16
 8004eee:	d802      	bhi.n	8004ef6 <UART_SetConfig+0x172>
 8004ef0:	2b00      	cmp	r3, #0
 8004ef2:	d005      	beq.n	8004f00 <UART_SetConfig+0x17c>
 8004ef4:	e010      	b.n	8004f18 <UART_SetConfig+0x194>
 8004ef6:	2b20      	cmp	r3, #32
 8004ef8:	d005      	beq.n	8004f06 <UART_SetConfig+0x182>
 8004efa:	2b30      	cmp	r3, #48	; 0x30
 8004efc:	d009      	beq.n	8004f12 <UART_SetConfig+0x18e>
 8004efe:	e00b      	b.n	8004f18 <UART_SetConfig+0x194>
 8004f00:	2300      	movs	r3, #0
 8004f02:	74fb      	strb	r3, [r7, #19]
 8004f04:	e034      	b.n	8004f70 <UART_SetConfig+0x1ec>
 8004f06:	2302      	movs	r3, #2
 8004f08:	74fb      	strb	r3, [r7, #19]
 8004f0a:	e031      	b.n	8004f70 <UART_SetConfig+0x1ec>
 8004f0c:	2304      	movs	r3, #4
 8004f0e:	74fb      	strb	r3, [r7, #19]
 8004f10:	e02e      	b.n	8004f70 <UART_SetConfig+0x1ec>
 8004f12:	2308      	movs	r3, #8
 8004f14:	74fb      	strb	r3, [r7, #19]
 8004f16:	e02b      	b.n	8004f70 <UART_SetConfig+0x1ec>
 8004f18:	2310      	movs	r3, #16
 8004f1a:	74fb      	strb	r3, [r7, #19]
 8004f1c:	bf00      	nop
 8004f1e:	e027      	b.n	8004f70 <UART_SetConfig+0x1ec>
 8004f20:	687b      	ldr	r3, [r7, #4]
 8004f22:	681b      	ldr	r3, [r3, #0]
 8004f24:	4a61      	ldr	r2, [pc, #388]	; (80050ac <UART_SetConfig+0x328>)
 8004f26:	4293      	cmp	r3, r2
 8004f28:	d123      	bne.n	8004f72 <UART_SetConfig+0x1ee>
 8004f2a:	4b62      	ldr	r3, [pc, #392]	; (80050b4 <UART_SetConfig+0x330>)
 8004f2c:	f8d3 3088 	ldr.w	r3, [r3, #136]	; 0x88
 8004f30:	f403 6340 	and.w	r3, r3, #3072	; 0xc00
 8004f34:	f5b3 6f80 	cmp.w	r3, #1024	; 0x400
 8004f38:	d012      	beq.n	8004f60 <UART_SetConfig+0x1dc>
 8004f3a:	f5b3 6f80 	cmp.w	r3, #1024	; 0x400
 8004f3e:	d802      	bhi.n	8004f46 <UART_SetConfig+0x1c2>
 8004f40:	2b00      	cmp	r3, #0
 8004f42:	d007      	beq.n	8004f54 <UART_SetConfig+0x1d0>
 8004f44:	e012      	b.n	8004f6c <UART_SetConfig+0x1e8>
 8004f46:	f5b3 6f00 	cmp.w	r3, #2048	; 0x800
 8004f4a:	d006      	beq.n	8004f5a <UART_SetConfig+0x1d6>
 8004f4c:	f5b3 6f40 	cmp.w	r3, #3072	; 0xc00
 8004f50:	d009      	beq.n	8004f66 <UART_SetConfig+0x1e2>
 8004f52:	e00b      	b.n	8004f6c <UART_SetConfig+0x1e8>
 8004f54:	2300      	movs	r3, #0
 8004f56:	74fb      	strb	r3, [r7, #19]
 8004f58:	e00a      	b.n	8004f70 <UART_SetConfig+0x1ec>
 8004f5a:	2302      	movs	r3, #2
 8004f5c:	74fb      	strb	r3, [r7, #19]
 8004f5e:	e007      	b.n	8004f70 <UART_SetConfig+0x1ec>
 8004f60:	2304      	movs	r3, #4
 8004f62:	74fb      	strb	r3, [r7, #19]
 8004f64:	e004      	b.n	8004f70 <UART_SetConfig+0x1ec>
 8004f66:	2308      	movs	r3, #8
 8004f68:	74fb      	strb	r3, [r7, #19]
 8004f6a:	e001      	b.n	8004f70 <UART_SetConfig+0x1ec>
 8004f6c:	2310      	movs	r3, #16
 8004f6e:	74fb      	strb	r3, [r7, #19]
 8004f70:	bf00      	nop

  /* Check LPUART instance */
  if(UART_INSTANCE_LOWPOWER(huart))
 8004f72:	687b      	ldr	r3, [r7, #4]
 8004f74:	681b      	ldr	r3, [r3, #0]
 8004f76:	4a4d      	ldr	r2, [pc, #308]	; (80050ac <UART_SetConfig+0x328>)
 8004f78:	4293      	cmp	r3, r2
 8004f7a:	f040 80ec 	bne.w	8005156 <UART_SetConfig+0x3d2>
  {
    /* Retrieve frequency clock */
    tmpreg = 0;
 8004f7e:	2300      	movs	r3, #0
 8004f80:	617b      	str	r3, [r7, #20]

    switch (clocksource)
 8004f82:	7cfb      	ldrb	r3, [r7, #19]
 8004f84:	2b08      	cmp	r3, #8
 8004f86:	d824      	bhi.n	8004fd2 <UART_SetConfig+0x24e>
 8004f88:	a201      	add	r2, pc, #4	; (adr r2, 8004f90 <UART_SetConfig+0x20c>)
 8004f8a:	f852 f023 	ldr.w	pc, [r2, r3, lsl #2]
 8004f8e:	bf00      	nop
 8004f90:	08004fb5 	.word	0x08004fb5
 8004f94:	08004fd3 	.word	0x08004fd3
 8004f98:	08004fbd 	.word	0x08004fbd
 8004f9c:	08004fd3 	.word	0x08004fd3
 8004fa0:	08004fc3 	.word	0x08004fc3
 8004fa4:	08004fd3 	.word	0x08004fd3
 8004fa8:	08004fd3 	.word	0x08004fd3
 8004fac:	08004fd3 	.word	0x08004fd3
 8004fb0:	08004fcb 	.word	0x08004fcb
    {
    case UART_CLOCKSOURCE_PCLK1:
      tmpreg = HAL_RCC_GetPCLK1Freq();
 8004fb4:	f7fe fc0c 	bl	80037d0 <HAL_RCC_GetPCLK1Freq>
 8004fb8:	6178      	str	r0, [r7, #20]
      break;
 8004fba:	e00d      	b.n	8004fd8 <UART_SetConfig+0x254>
    case UART_CLOCKSOURCE_HSI:
      tmpreg = (uint32_t) HSI_VALUE;
 8004fbc:	4b40      	ldr	r3, [pc, #256]	; (80050c0 <UART_SetConfig+0x33c>)
 8004fbe:	617b      	str	r3, [r7, #20]
      break;
 8004fc0:	e00a      	b.n	8004fd8 <UART_SetConfig+0x254>
    case UART_CLOCKSOURCE_SYSCLK:
      tmpreg = HAL_RCC_GetSysClockFreq();
 8004fc2:	f7fe faff 	bl	80035c4 <HAL_RCC_GetSysClockFreq>
 8004fc6:	6178      	str	r0, [r7, #20]
      break;
 8004fc8:	e006      	b.n	8004fd8 <UART_SetConfig+0x254>
    case UART_CLOCKSOURCE_LSE:
      tmpreg = (uint32_t) LSE_VALUE;
 8004fca:	f44f 4300 	mov.w	r3, #32768	; 0x8000
 8004fce:	617b      	str	r3, [r7, #20]
      break;
 8004fd0:	e002      	b.n	8004fd8 <UART_SetConfig+0x254>
    case UART_CLOCKSOURCE_UNDEFINED:
    default:
        ret = HAL_ERROR;
 8004fd2:	2301      	movs	r3, #1
 8004fd4:	73fb      	strb	r3, [r7, #15]
      break;
 8004fd6:	bf00      	nop
    }

    /* if proper clock source reported */
    if (tmpreg != 0)
 8004fd8:	697b      	ldr	r3, [r7, #20]
 8004fda:	2b00      	cmp	r3, #0
 8004fdc:	f000 8199 	beq.w	8005312 <UART_SetConfig+0x58e>
    {
      /* ensure that Frequency clock is in the range [3 * baudrate, 4096 * baudrate] */
      if ( (tmpreg < (3 * huart->Init.BaudRate) ) ||
 8004fe0:	687b      	ldr	r3, [r7, #4]
 8004fe2:	685a      	ldr	r2, [r3, #4]
 8004fe4:	4613      	mov	r3, r2
 8004fe6:	005b      	lsls	r3, r3, #1
 8004fe8:	441a      	add	r2, r3
 8004fea:	697b      	ldr	r3, [r7, #20]
 8004fec:	429a      	cmp	r2, r3
 8004fee:	d805      	bhi.n	8004ffc <UART_SetConfig+0x278>
           (tmpreg > (4096 * huart->Init.BaudRate) ))
 8004ff0:	687b      	ldr	r3, [r7, #4]
 8004ff2:	685b      	ldr	r3, [r3, #4]
 8004ff4:	031a      	lsls	r2, r3, #12
      if ( (tmpreg < (3 * huart->Init.BaudRate) ) ||
 8004ff6:	697b      	ldr	r3, [r7, #20]
 8004ff8:	429a      	cmp	r2, r3
 8004ffa:	d202      	bcs.n	8005002 <UART_SetConfig+0x27e>
      {
        ret = HAL_ERROR;
 8004ffc:	2301      	movs	r3, #1
 8004ffe:	73fb      	strb	r3, [r7, #15]
 8005000:	e187      	b.n	8005312 <UART_SetConfig+0x58e>
      }
      else
      {
        switch (clocksource)
 8005002:	7cfb      	ldrb	r3, [r7, #19]
 8005004:	2b08      	cmp	r3, #8
 8005006:	f200 8093 	bhi.w	8005130 <UART_SetConfig+0x3ac>
 800500a:	a201      	add	r2, pc, #4	; (adr r2, 8005010 <UART_SetConfig+0x28c>)
 800500c:	f852 f023 	ldr.w	pc, [r2, r3, lsl #2]
 8005010:	08005035 	.word	0x08005035
 8005014:	08005131 	.word	0x08005131
 8005018:	08005075 	.word	0x08005075
 800501c:	08005131 	.word	0x08005131
 8005020:	080050c9 	.word	0x080050c9
 8005024:	08005131 	.word	0x08005131
 8005028:	08005131 	.word	0x08005131
 800502c:	08005131 	.word	0x08005131
 8005030:	08005107 	.word	0x08005107
        {
        case UART_CLOCKSOURCE_PCLK1:
          tmpreg = (uint32_t)(UART_DIV_LPUART(HAL_RCC_GetPCLK1Freq(), huart->Init.BaudRate));
 8005034:	f7fe fbcc 	bl	80037d0 <HAL_RCC_GetPCLK1Freq>
 8005038:	4603      	mov	r3, r0
 800503a:	f04f 0400 	mov.w	r4, #0
 800503e:	ea4f 2904 	mov.w	r9, r4, lsl #8
 8005042:	ea49 6913 	orr.w	r9, r9, r3, lsr #24
 8005046:	ea4f 2803 	mov.w	r8, r3, lsl #8
 800504a:	687b      	ldr	r3, [r7, #4]
 800504c:	685b      	ldr	r3, [r3, #4]
 800504e:	085b      	lsrs	r3, r3, #1
 8005050:	f04f 0400 	mov.w	r4, #0
 8005054:	eb18 0003 	adds.w	r0, r8, r3
 8005058:	eb49 0104 	adc.w	r1, r9, r4
 800505c:	687b      	ldr	r3, [r7, #4]
 800505e:	685b      	ldr	r3, [r3, #4]
 8005060:	f04f 0400 	mov.w	r4, #0
 8005064:	461a      	mov	r2, r3
 8005066:	4623      	mov	r3, r4
 8005068:	f7fb f8ba 	bl	80001e0 <__aeabi_uldivmod>
 800506c:	4603      	mov	r3, r0
 800506e:	460c      	mov	r4, r1
 8005070:	617b      	str	r3, [r7, #20]
          break;
 8005072:	e060      	b.n	8005136 <UART_SetConfig+0x3b2>
        case UART_CLOCKSOURCE_HSI:
          tmpreg = (uint32_t)(UART_DIV_LPUART(HSI_VALUE, huart->Init.BaudRate));
 8005074:	687b      	ldr	r3, [r7, #4]
 8005076:	685b      	ldr	r3, [r3, #4]
 8005078:	085b      	lsrs	r3, r3, #1
 800507a:	f04f 0400 	mov.w	r4, #0
 800507e:	4911      	ldr	r1, [pc, #68]	; (80050c4 <UART_SetConfig+0x340>)
 8005080:	f04f 0200 	mov.w	r2, #0
 8005084:	eb13 0801 	adds.w	r8, r3, r1
 8005088:	eb44 0902 	adc.w	r9, r4, r2
 800508c:	4640      	mov	r0, r8
 800508e:	4649      	mov	r1, r9
 8005090:	687b      	ldr	r3, [r7, #4]
 8005092:	685b      	ldr	r3, [r3, #4]
 8005094:	f04f 0400 	mov.w	r4, #0
 8005098:	461a      	mov	r2, r3
 800509a:	4623      	mov	r3, r4
 800509c:	f7fb f8a0 	bl	80001e0 <__aeabi_uldivmod>
 80050a0:	4603      	mov	r3, r0
 80050a2:	460c      	mov	r4, r1
 80050a4:	617b      	str	r3, [r7, #20]
          break;
 80050a6:	e046      	b.n	8005136 <UART_SetConfig+0x3b2>
 80050a8:	efff69f3 	.word	0xefff69f3
 80050ac:	40008000 	.word	0x40008000
 80050b0:	40013800 	.word	0x40013800
 80050b4:	40021000 	.word	0x40021000
 80050b8:	40004400 	.word	0x40004400
 80050bc:	40004800 	.word	0x40004800
 80050c0:	00f42400 	.word	0x00f42400
 80050c4:	f4240000 	.word	0xf4240000
        case UART_CLOCKSOURCE_SYSCLK:
          tmpreg = (uint32_t)(UART_DIV_LPUART(HAL_RCC_GetSysClockFreq(), huart->Init.BaudRate));
 80050c8:	f7fe fa7c 	bl	80035c4 <HAL_RCC_GetSysClockFreq>
 80050cc:	4603      	mov	r3, r0
 80050ce:	461a      	mov	r2, r3
 80050d0:	f04f 0300 	mov.w	r3, #0
 80050d4:	021d      	lsls	r5, r3, #8
 80050d6:	ea45 6512 	orr.w	r5, r5, r2, lsr #24
 80050da:	0214      	lsls	r4, r2, #8
 80050dc:	687b      	ldr	r3, [r7, #4]
 80050de:	685b      	ldr	r3, [r3, #4]
 80050e0:	085b      	lsrs	r3, r3, #1
 80050e2:	461a      	mov	r2, r3
 80050e4:	f04f 0300 	mov.w	r3, #0
 80050e8:	18a0      	adds	r0, r4, r2
 80050ea:	eb45 0103 	adc.w	r1, r5, r3
 80050ee:	687b      	ldr	r3, [r7, #4]
 80050f0:	685b      	ldr	r3, [r3, #4]
 80050f2:	f04f 0400 	mov.w	r4, #0
 80050f6:	461a      	mov	r2, r3
 80050f8:	4623      	mov	r3, r4
 80050fa:	f7fb f871 	bl	80001e0 <__aeabi_uldivmod>
 80050fe:	4603      	mov	r3, r0
 8005100:	460c      	mov	r4, r1
 8005102:	617b      	str	r3, [r7, #20]
          break;
 8005104:	e017      	b.n	8005136 <UART_SetConfig+0x3b2>
        case UART_CLOCKSOURCE_LSE:
          tmpreg = (uint32_t)(UART_DIV_LPUART(LSE_VALUE, huart->Init.BaudRate));
 8005106:	687b      	ldr	r3, [r7, #4]
 8005108:	685b      	ldr	r3, [r3, #4]
 800510a:	085b      	lsrs	r3, r3, #1
 800510c:	f04f 0400 	mov.w	r4, #0
 8005110:	f513 0000 	adds.w	r0, r3, #8388608	; 0x800000
 8005114:	f144 0100 	adc.w	r1, r4, #0
 8005118:	687b      	ldr	r3, [r7, #4]
 800511a:	685b      	ldr	r3, [r3, #4]
 800511c:	f04f 0400 	mov.w	r4, #0
 8005120:	461a      	mov	r2, r3
 8005122:	4623      	mov	r3, r4
 8005124:	f7fb f85c 	bl	80001e0 <__aeabi_uldivmod>
 8005128:	4603      	mov	r3, r0
 800512a:	460c      	mov	r4, r1
 800512c:	617b      	str	r3, [r7, #20]
          break;
 800512e:	e002      	b.n	8005136 <UART_SetConfig+0x3b2>
        case UART_CLOCKSOURCE_UNDEFINED:
        default:
          ret = HAL_ERROR;
 8005130:	2301      	movs	r3, #1
 8005132:	73fb      	strb	r3, [r7, #15]
          break;
 8005134:	bf00      	nop
        }
   
        if ((tmpreg >= UART_LPUART_BRR_MIN) && (tmpreg <= UART_LPUART_BRR_MAX))
 8005136:	697b      	ldr	r3, [r7, #20]
 8005138:	f5b3 7f40 	cmp.w	r3, #768	; 0x300
 800513c:	d308      	bcc.n	8005150 <UART_SetConfig+0x3cc>
 800513e:	697b      	ldr	r3, [r7, #20]
 8005140:	f5b3 1f80 	cmp.w	r3, #1048576	; 0x100000
 8005144:	d204      	bcs.n	8005150 <UART_SetConfig+0x3cc>
        {
           huart->Instance->BRR = tmpreg;
 8005146:	687b      	ldr	r3, [r7, #4]
 8005148:	681b      	ldr	r3, [r3, #0]
 800514a:	697a      	ldr	r2, [r7, #20]
 800514c:	60da      	str	r2, [r3, #12]
 800514e:	e0e0      	b.n	8005312 <UART_SetConfig+0x58e>
        }
        else
        {
          ret = HAL_ERROR;
 8005150:	2301      	movs	r3, #1
 8005152:	73fb      	strb	r3, [r7, #15]
 8005154:	e0dd      	b.n	8005312 <UART_SetConfig+0x58e>
        }
      }  /*   if ( (tmpreg < (3 * huart->Init.BaudRate) ) || (tmpreg > (4096 * huart->Init.BaudRate) )) */
    } /* if (tmpreg != 0) */
  }
  /* Check UART Over Sampling to set Baud Rate Register */
  else if (huart->Init.OverSampling == UART_OVERSAMPLING_8)
 8005156:	687b      	ldr	r3, [r7, #4]
 8005158:	69db      	ldr	r3, [r3, #28]
 800515a:	f5b3 4f00 	cmp.w	r3, #32768	; 0x8000
 800515e:	d16e      	bne.n	800523e <UART_SetConfig+0x4ba>
  {
    switch (clocksource)
 8005160:	7cfb      	ldrb	r3, [r7, #19]
 8005162:	2b08      	cmp	r3, #8
 8005164:	d856      	bhi.n	8005214 <UART_SetConfig+0x490>
 8005166:	a201      	add	r2, pc, #4	; (adr r2, 800516c <UART_SetConfig+0x3e8>)
 8005168:	f852 f023 	ldr.w	pc, [r2, r3, lsl #2]
 800516c:	08005191 	.word	0x08005191
 8005170:	080051ad 	.word	0x080051ad
 8005174:	080051c9 	.word	0x080051c9
 8005178:	08005215 	.word	0x08005215
 800517c:	080051e3 	.word	0x080051e3
 8005180:	08005215 	.word	0x08005215
 8005184:	08005215 	.word	0x08005215
 8005188:	08005215 	.word	0x08005215
 800518c:	080051ff 	.word	0x080051ff
    {
    case UART_CLOCKSOURCE_PCLK1:
      usartdiv = (uint16_t)(UART_DIV_SAMPLING8(HAL_RCC_GetPCLK1Freq(), huart->Init.BaudRate));
 8005190:	f7fe fb1e 	bl	80037d0 <HAL_RCC_GetPCLK1Freq>
 8005194:	4603      	mov	r3, r0
 8005196:	005a      	lsls	r2, r3, #1
 8005198:	687b      	ldr	r3, [r7, #4]
 800519a:	685b      	ldr	r3, [r3, #4]
 800519c:	085b      	lsrs	r3, r3, #1
 800519e:	441a      	add	r2, r3
 80051a0:	687b      	ldr	r3, [r7, #4]
 80051a2:	685b      	ldr	r3, [r3, #4]
 80051a4:	fbb2 f3f3 	udiv	r3, r2, r3
 80051a8:	823b      	strh	r3, [r7, #16]
      break;
 80051aa:	e036      	b.n	800521a <UART_SetConfig+0x496>
    case UART_CLOCKSOURCE_PCLK2:
      usartdiv = (uint16_t)(UART_DIV_SAMPLING8(HAL_RCC_GetPCLK2Freq(), huart->Init.BaudRate));
 80051ac:	f7fe fb32 	bl	8003814 <HAL_RCC_GetPCLK2Freq>
 80051b0:	4603      	mov	r3, r0
 80051b2:	005a      	lsls	r2, r3, #1
 80051b4:	687b      	ldr	r3, [r7, #4]
 80051b6:	685b      	ldr	r3, [r3, #4]
 80051b8:	085b      	lsrs	r3, r3, #1
 80051ba:	441a      	add	r2, r3
 80051bc:	687b      	ldr	r3, [r7, #4]
 80051be:	685b      	ldr	r3, [r3, #4]
 80051c0:	fbb2 f3f3 	udiv	r3, r2, r3
 80051c4:	823b      	strh	r3, [r7, #16]
      break;
 80051c6:	e028      	b.n	800521a <UART_SetConfig+0x496>
    case UART_CLOCKSOURCE_HSI:
      usartdiv = (uint16_t)(UART_DIV_SAMPLING8(HSI_VALUE, huart->Init.BaudRate));
 80051c8:	687b      	ldr	r3, [r7, #4]
 80051ca:	685b      	ldr	r3, [r3, #4]
 80051cc:	085b      	lsrs	r3, r3, #1
 80051ce:	f103 73f4 	add.w	r3, r3, #31981568	; 0x1e80000
 80051d2:	f503 4390 	add.w	r3, r3, #18432	; 0x4800
 80051d6:	687a      	ldr	r2, [r7, #4]
 80051d8:	6852      	ldr	r2, [r2, #4]
 80051da:	fbb3 f3f2 	udiv	r3, r3, r2
 80051de:	823b      	strh	r3, [r7, #16]
      break;
 80051e0:	e01b      	b.n	800521a <UART_SetConfig+0x496>
    case UART_CLOCKSOURCE_SYSCLK:
      usartdiv = (uint16_t)(UART_DIV_SAMPLING8(HAL_RCC_GetSysClockFreq(), huart->Init.BaudRate));
 80051e2:	f7fe f9ef 	bl	80035c4 <HAL_RCC_GetSysClockFreq>
 80051e6:	4603      	mov	r3, r0
 80051e8:	005a      	lsls	r2, r3, #1
 80051ea:	687b      	ldr	r3, [r7, #4]
 80051ec:	685b      	ldr	r3, [r3, #4]
 80051ee:	085b      	lsrs	r3, r3, #1
 80051f0:	441a      	add	r2, r3
 80051f2:	687b      	ldr	r3, [r7, #4]
 80051f4:	685b      	ldr	r3, [r3, #4]
 80051f6:	fbb2 f3f3 	udiv	r3, r2, r3
 80051fa:	823b      	strh	r3, [r7, #16]
      break;
 80051fc:	e00d      	b.n	800521a <UART_SetConfig+0x496>
    case UART_CLOCKSOURCE_LSE:
      usartdiv = (uint16_t)(UART_DIV_SAMPLING8(LSE_VALUE, huart->Init.BaudRate));
 80051fe:	687b      	ldr	r3, [r7, #4]
 8005200:	685b      	ldr	r3, [r3, #4]
 8005202:	085b      	lsrs	r3, r3, #1
 8005204:	f503 3280 	add.w	r2, r3, #65536	; 0x10000
 8005208:	687b      	ldr	r3, [r7, #4]
 800520a:	685b      	ldr	r3, [r3, #4]
 800520c:	fbb2 f3f3 	udiv	r3, r2, r3
 8005210:	823b      	strh	r3, [r7, #16]
      break;
 8005212:	e002      	b.n	800521a <UART_SetConfig+0x496>
    case UART_CLOCKSOURCE_UNDEFINED:
    default:
        ret = HAL_ERROR;
 8005214:	2301      	movs	r3, #1
 8005216:	73fb      	strb	r3, [r7, #15]
      break;
 8005218:	bf00      	nop
    }

    brrtemp = usartdiv & 0xFFF0;
 800521a:	8a3b      	ldrh	r3, [r7, #16]
 800521c:	f023 030f 	bic.w	r3, r3, #15
 8005220:	81bb      	strh	r3, [r7, #12]
    brrtemp |= (uint16_t)((usartdiv & (uint16_t)0x000F) >> 1U);
 8005222:	8a3b      	ldrh	r3, [r7, #16]
 8005224:	105b      	asrs	r3, r3, #1
 8005226:	b29b      	uxth	r3, r3
 8005228:	f003 0307 	and.w	r3, r3, #7
 800522c:	b29a      	uxth	r2, r3
 800522e:	89bb      	ldrh	r3, [r7, #12]
 8005230:	4313      	orrs	r3, r2
 8005232:	81bb      	strh	r3, [r7, #12]
    huart->Instance->BRR = brrtemp;
 8005234:	687b      	ldr	r3, [r7, #4]
 8005236:	681b      	ldr	r3, [r3, #0]
 8005238:	89ba      	ldrh	r2, [r7, #12]
 800523a:	60da      	str	r2, [r3, #12]
 800523c:	e069      	b.n	8005312 <UART_SetConfig+0x58e>
  }
  else
  {
    switch (clocksource)
 800523e:	7cfb      	ldrb	r3, [r7, #19]
 8005240:	2b08      	cmp	r3, #8
 8005242:	d863      	bhi.n	800530c <UART_SetConfig+0x588>
 8005244:	a201      	add	r2, pc, #4	; (adr r2, 800524c <UART_SetConfig+0x4c8>)
 8005246:	f852 f023 	ldr.w	pc, [r2, r3, lsl #2]
 800524a:	bf00      	nop
 800524c:	08005271 	.word	0x08005271
 8005250:	08005291 	.word	0x08005291
 8005254:	080052b1 	.word	0x080052b1
 8005258:	0800530d 	.word	0x0800530d
 800525c:	080052d1 	.word	0x080052d1
 8005260:	0800530d 	.word	0x0800530d
 8005264:	0800530d 	.word	0x0800530d
 8005268:	0800530d 	.word	0x0800530d
 800526c:	080052f1 	.word	0x080052f1
    {
    case UART_CLOCKSOURCE_PCLK1:
      huart->Instance->BRR = (uint16_t)(UART_DIV_SAMPLING16(HAL_RCC_GetPCLK1Freq(), huart->Init.BaudRate));
 8005270:	687b      	ldr	r3, [r7, #4]
 8005272:	681c      	ldr	r4, [r3, #0]
 8005274:	f7fe faac 	bl	80037d0 <HAL_RCC_GetPCLK1Freq>
 8005278:	4602      	mov	r2, r0
 800527a:	687b      	ldr	r3, [r7, #4]
 800527c:	685b      	ldr	r3, [r3, #4]
 800527e:	085b      	lsrs	r3, r3, #1
 8005280:	441a      	add	r2, r3
 8005282:	687b      	ldr	r3, [r7, #4]
 8005284:	685b      	ldr	r3, [r3, #4]
 8005286:	fbb2 f3f3 	udiv	r3, r2, r3
 800528a:	b29b      	uxth	r3, r3
 800528c:	60e3      	str	r3, [r4, #12]
      break;
 800528e:	e040      	b.n	8005312 <UART_SetConfig+0x58e>
    case UART_CLOCKSOURCE_PCLK2:
      huart->Instance->BRR = (uint16_t)(UART_DIV_SAMPLING16(HAL_RCC_GetPCLK2Freq(), huart->Init.BaudRate));
 8005290:	687b      	ldr	r3, [r7, #4]
 8005292:	681c      	ldr	r4, [r3, #0]
 8005294:	f7fe fabe 	bl	8003814 <HAL_RCC_GetPCLK2Freq>
 8005298:	4602      	mov	r2, r0
 800529a:	687b      	ldr	r3, [r7, #4]
 800529c:	685b      	ldr	r3, [r3, #4]
 800529e:	085b      	lsrs	r3, r3, #1
 80052a0:	441a      	add	r2, r3
 80052a2:	687b      	ldr	r3, [r7, #4]
 80052a4:	685b      	ldr	r3, [r3, #4]
 80052a6:	fbb2 f3f3 	udiv	r3, r2, r3
 80052aa:	b29b      	uxth	r3, r3
 80052ac:	60e3      	str	r3, [r4, #12]
      break;
 80052ae:	e030      	b.n	8005312 <UART_SetConfig+0x58e>
    case UART_CLOCKSOURCE_HSI:
      huart->Instance->BRR = (uint16_t)(UART_DIV_SAMPLING16(HSI_VALUE, huart->Init.BaudRate));
 80052b0:	687b      	ldr	r3, [r7, #4]
 80052b2:	681a      	ldr	r2, [r3, #0]
 80052b4:	687b      	ldr	r3, [r7, #4]
 80052b6:	685b      	ldr	r3, [r3, #4]
 80052b8:	085b      	lsrs	r3, r3, #1
 80052ba:	f503 0374 	add.w	r3, r3, #15990784	; 0xf40000
 80052be:	f503 5310 	add.w	r3, r3, #9216	; 0x2400
 80052c2:	6879      	ldr	r1, [r7, #4]
 80052c4:	6849      	ldr	r1, [r1, #4]
 80052c6:	fbb3 f3f1 	udiv	r3, r3, r1
 80052ca:	b29b      	uxth	r3, r3
 80052cc:	60d3      	str	r3, [r2, #12]
      break;
 80052ce:	e020      	b.n	8005312 <UART_SetConfig+0x58e>
    case UART_CLOCKSOURCE_SYSCLK:
      huart->Instance->BRR = (uint16_t)(UART_DIV_SAMPLING16(HAL_RCC_GetSysClockFreq(), huart->Init.BaudRate));
 80052d0:	687b      	ldr	r3, [r7, #4]
 80052d2:	681c      	ldr	r4, [r3, #0]
 80052d4:	f7fe f976 	bl	80035c4 <HAL_RCC_GetSysClockFreq>
 80052d8:	4602      	mov	r2, r0
 80052da:	687b      	ldr	r3, [r7, #4]
 80052dc:	685b      	ldr	r3, [r3, #4]
 80052de:	085b      	lsrs	r3, r3, #1
 80052e0:	441a      	add	r2, r3
 80052e2:	687b      	ldr	r3, [r7, #4]
 80052e4:	685b      	ldr	r3, [r3, #4]
 80052e6:	fbb2 f3f3 	udiv	r3, r2, r3
 80052ea:	b29b      	uxth	r3, r3
 80052ec:	60e3      	str	r3, [r4, #12]
      break;
 80052ee:	e010      	b.n	8005312 <UART_SetConfig+0x58e>
    case UART_CLOCKSOURCE_LSE:
      huart->Instance->BRR = (uint16_t)(UART_DIV_SAMPLING16(LSE_VALUE, huart->Init.BaudRate));
 80052f0:	687b      	ldr	r3, [r7, #4]
 80052f2:	681b      	ldr	r3, [r3, #0]
 80052f4:	687a      	ldr	r2, [r7, #4]
 80052f6:	6852      	ldr	r2, [r2, #4]
 80052f8:	0852      	lsrs	r2, r2, #1
 80052fa:	f502 4100 	add.w	r1, r2, #32768	; 0x8000
 80052fe:	687a      	ldr	r2, [r7, #4]
 8005300:	6852      	ldr	r2, [r2, #4]
 8005302:	fbb1 f2f2 	udiv	r2, r1, r2
 8005306:	b292      	uxth	r2, r2
 8005308:	60da      	str	r2, [r3, #12]
      break;
 800530a:	e002      	b.n	8005312 <UART_SetConfig+0x58e>
    case UART_CLOCKSOURCE_UNDEFINED:
    default:
        ret = HAL_ERROR;
 800530c:	2301      	movs	r3, #1
 800530e:	73fb      	strb	r3, [r7, #15]
      break;
 8005310:	bf00      	nop
    }
  }

  return ret;
 8005312:	7bfb      	ldrb	r3, [r7, #15]

}
 8005314:	4618      	mov	r0, r3
 8005316:	3718      	adds	r7, #24
 8005318:	46bd      	mov	sp, r7
 800531a:	e8bd 83b0 	ldmia.w	sp!, {r4, r5, r7, r8, r9, pc}
 800531e:	bf00      	nop

08005320 <UART_AdvFeatureConfig>:
  * @brief Configure the UART peripheral advanced features.
  * @param huart: UART handle.
  * @retval None
  */
void UART_AdvFeatureConfig(UART_HandleTypeDef *huart)
{
 8005320:	b480      	push	{r7}
 8005322:	b083      	sub	sp, #12
 8005324:	af00      	add	r7, sp, #0
 8005326:	6078      	str	r0, [r7, #4]
  /* Check whether the set of advanced features to configure is properly set */
  assert_param(IS_UART_ADVFEATURE_INIT(huart->AdvancedInit.AdvFeatureInit));

  /* if required, configure TX pin active level inversion */
  if(HAL_IS_BIT_SET(huart->AdvancedInit.AdvFeatureInit, UART_ADVFEATURE_TXINVERT_INIT))
 8005328:	687b      	ldr	r3, [r7, #4]
 800532a:	6a5b      	ldr	r3, [r3, #36]	; 0x24
 800532c:	f003 0301 	and.w	r3, r3, #1
 8005330:	2b00      	cmp	r3, #0
 8005332:	d00a      	beq.n	800534a <UART_AdvFeatureConfig+0x2a>
  {
    assert_param(IS_UART_ADVFEATURE_TXINV(huart->AdvancedInit.TxPinLevelInvert));
    MODIFY_REG(huart->Instance->CR2, USART_CR2_TXINV, huart->AdvancedInit.TxPinLevelInvert);
 8005334:	687b      	ldr	r3, [r7, #4]
 8005336:	681b      	ldr	r3, [r3, #0]
 8005338:	687a      	ldr	r2, [r7, #4]
 800533a:	6812      	ldr	r2, [r2, #0]
 800533c:	6852      	ldr	r2, [r2, #4]
 800533e:	f422 3100 	bic.w	r1, r2, #131072	; 0x20000
 8005342:	687a      	ldr	r2, [r7, #4]
 8005344:	6a92      	ldr	r2, [r2, #40]	; 0x28
 8005346:	430a      	orrs	r2, r1
 8005348:	605a      	str	r2, [r3, #4]
  }

  /* if required, configure RX pin active level inversion */
  if(HAL_IS_BIT_SET(huart->AdvancedInit.AdvFeatureInit, UART_ADVFEATURE_RXINVERT_INIT))
 800534a:	687b      	ldr	r3, [r7, #4]
 800534c:	6a5b      	ldr	r3, [r3, #36]	; 0x24
 800534e:	f003 0302 	and.w	r3, r3, #2
 8005352:	2b00      	cmp	r3, #0
 8005354:	d00a      	beq.n	800536c <UART_AdvFeatureConfig+0x4c>
  {
    assert_param(IS_UART_ADVFEATURE_RXINV(huart->AdvancedInit.RxPinLevelInvert));
    MODIFY_REG(huart->Instance->CR2, USART_CR2_RXINV, huart->AdvancedInit.RxPinLevelInvert);
 8005356:	687b      	ldr	r3, [r7, #4]
 8005358:	681b      	ldr	r3, [r3, #0]
 800535a:	687a      	ldr	r2, [r7, #4]
 800535c:	6812      	ldr	r2, [r2, #0]
 800535e:	6852      	ldr	r2, [r2, #4]
 8005360:	f422 3180 	bic.w	r1, r2, #65536	; 0x10000
 8005364:	687a      	ldr	r2, [r7, #4]
 8005366:	6ad2      	ldr	r2, [r2, #44]	; 0x2c
 8005368:	430a      	orrs	r2, r1
 800536a:	605a      	str	r2, [r3, #4]
  }

  /* if required, configure data inversion */
  if(HAL_IS_BIT_SET(huart->AdvancedInit.AdvFeatureInit, UART_ADVFEATURE_DATAINVERT_INIT))
 800536c:	687b      	ldr	r3, [r7, #4]
 800536e:	6a5b      	ldr	r3, [r3, #36]	; 0x24
 8005370:	f003 0304 	and.w	r3, r3, #4
 8005374:	2b00      	cmp	r3, #0
 8005376:	d00a      	beq.n	800538e <UART_AdvFeatureConfig+0x6e>
  {
    assert_param(IS_UART_ADVFEATURE_DATAINV(huart->AdvancedInit.DataInvert));
    MODIFY_REG(huart->Instance->CR2, USART_CR2_DATAINV, huart->AdvancedInit.DataInvert);
 8005378:	687b      	ldr	r3, [r7, #4]
 800537a:	681b      	ldr	r3, [r3, #0]
 800537c:	687a      	ldr	r2, [r7, #4]
 800537e:	6812      	ldr	r2, [r2, #0]
 8005380:	6852      	ldr	r2, [r2, #4]
 8005382:	f422 2180 	bic.w	r1, r2, #262144	; 0x40000
 8005386:	687a      	ldr	r2, [r7, #4]
 8005388:	6b12      	ldr	r2, [r2, #48]	; 0x30
 800538a:	430a      	orrs	r2, r1
 800538c:	605a      	str	r2, [r3, #4]
  }

  /* if required, configure RX/TX pins swap */
  if(HAL_IS_BIT_SET(huart->AdvancedInit.AdvFeatureInit, UART_ADVFEATURE_SWAP_INIT))
 800538e:	687b      	ldr	r3, [r7, #4]
 8005390:	6a5b      	ldr	r3, [r3, #36]	; 0x24
 8005392:	f003 0308 	and.w	r3, r3, #8
 8005396:	2b00      	cmp	r3, #0
 8005398:	d00a      	beq.n	80053b0 <UART_AdvFeatureConfig+0x90>
  {
    assert_param(IS_UART_ADVFEATURE_SWAP(huart->AdvancedInit.Swap));
    MODIFY_REG(huart->Instance->CR2, USART_CR2_SWAP, huart->AdvancedInit.Swap);
 800539a:	687b      	ldr	r3, [r7, #4]
 800539c:	681b      	ldr	r3, [r3, #0]
 800539e:	687a      	ldr	r2, [r7, #4]
 80053a0:	6812      	ldr	r2, [r2, #0]
 80053a2:	6852      	ldr	r2, [r2, #4]
 80053a4:	f422 4100 	bic.w	r1, r2, #32768	; 0x8000
 80053a8:	687a      	ldr	r2, [r7, #4]
 80053aa:	6b52      	ldr	r2, [r2, #52]	; 0x34
 80053ac:	430a      	orrs	r2, r1
 80053ae:	605a      	str	r2, [r3, #4]
  }

  /* if required, configure RX overrun detection disabling */
  if(HAL_IS_BIT_SET(huart->AdvancedInit.AdvFeatureInit, UART_ADVFEATURE_RXOVERRUNDISABLE_INIT))
 80053b0:	687b      	ldr	r3, [r7, #4]
 80053b2:	6a5b      	ldr	r3, [r3, #36]	; 0x24
 80053b4:	f003 0310 	and.w	r3, r3, #16
 80053b8:	2b00      	cmp	r3, #0
 80053ba:	d00a      	beq.n	80053d2 <UART_AdvFeatureConfig+0xb2>
  {
    assert_param(IS_UART_OVERRUN(huart->AdvancedInit.OverrunDisable));
    MODIFY_REG(huart->Instance->CR3, USART_CR3_OVRDIS, huart->AdvancedInit.OverrunDisable);
 80053bc:	687b      	ldr	r3, [r7, #4]
 80053be:	681b      	ldr	r3, [r3, #0]
 80053c0:	687a      	ldr	r2, [r7, #4]
 80053c2:	6812      	ldr	r2, [r2, #0]
 80053c4:	6892      	ldr	r2, [r2, #8]
 80053c6:	f422 5180 	bic.w	r1, r2, #4096	; 0x1000
 80053ca:	687a      	ldr	r2, [r7, #4]
 80053cc:	6b92      	ldr	r2, [r2, #56]	; 0x38
 80053ce:	430a      	orrs	r2, r1
 80053d0:	609a      	str	r2, [r3, #8]
  }

  /* if required, configure DMA disabling on reception error */
  if(HAL_IS_BIT_SET(huart->AdvancedInit.AdvFeatureInit, UART_ADVFEATURE_DMADISABLEONERROR_INIT))
 80053d2:	687b      	ldr	r3, [r7, #4]
 80053d4:	6a5b      	ldr	r3, [r3, #36]	; 0x24
 80053d6:	f003 0320 	and.w	r3, r3, #32
 80053da:	2b00      	cmp	r3, #0
 80053dc:	d00a      	beq.n	80053f4 <UART_AdvFeatureConfig+0xd4>
  {
    assert_param(IS_UART_ADVFEATURE_DMAONRXERROR(huart->AdvancedInit.DMADisableonRxError));
    MODIFY_REG(huart->Instance->CR3, USART_CR3_DDRE, huart->AdvancedInit.DMADisableonRxError);
 80053de:	687b      	ldr	r3, [r7, #4]
 80053e0:	681b      	ldr	r3, [r3, #0]
 80053e2:	687a      	ldr	r2, [r7, #4]
 80053e4:	6812      	ldr	r2, [r2, #0]
 80053e6:	6892      	ldr	r2, [r2, #8]
 80053e8:	f422 5100 	bic.w	r1, r2, #8192	; 0x2000
 80053ec:	687a      	ldr	r2, [r7, #4]
 80053ee:	6bd2      	ldr	r2, [r2, #60]	; 0x3c
 80053f0:	430a      	orrs	r2, r1
 80053f2:	609a      	str	r2, [r3, #8]
  }

  /* if required, configure auto Baud rate detection scheme */
  if(HAL_IS_BIT_SET(huart->AdvancedInit.AdvFeatureInit, UART_ADVFEATURE_AUTOBAUDRATE_INIT))
 80053f4:	687b      	ldr	r3, [r7, #4]
 80053f6:	6a5b      	ldr	r3, [r3, #36]	; 0x24
 80053f8:	f003 0340 	and.w	r3, r3, #64	; 0x40
 80053fc:	2b00      	cmp	r3, #0
 80053fe:	d01a      	beq.n	8005436 <UART_AdvFeatureConfig+0x116>
  {
    assert_param(IS_USART_AUTOBAUDRATE_DETECTION_INSTANCE(huart->Instance));
    assert_param(IS_UART_ADVFEATURE_AUTOBAUDRATE(huart->AdvancedInit.AutoBaudRateEnable));
    MODIFY_REG(huart->Instance->CR2, USART_CR2_ABREN, huart->AdvancedInit.AutoBaudRateEnable);
 8005400:	687b      	ldr	r3, [r7, #4]
 8005402:	681b      	ldr	r3, [r3, #0]
 8005404:	687a      	ldr	r2, [r7, #4]
 8005406:	6812      	ldr	r2, [r2, #0]
 8005408:	6852      	ldr	r2, [r2, #4]
 800540a:	f422 1180 	bic.w	r1, r2, #1048576	; 0x100000
 800540e:	687a      	ldr	r2, [r7, #4]
 8005410:	6c12      	ldr	r2, [r2, #64]	; 0x40
 8005412:	430a      	orrs	r2, r1
 8005414:	605a      	str	r2, [r3, #4]
    /* set auto Baudrate detection parameters if detection is enabled */
    if(huart->AdvancedInit.AutoBaudRateEnable == UART_ADVFEATURE_AUTOBAUDRATE_ENABLE)
 8005416:	687b      	ldr	r3, [r7, #4]
 8005418:	6c1b      	ldr	r3, [r3, #64]	; 0x40
 800541a:	f5b3 1f80 	cmp.w	r3, #1048576	; 0x100000
 800541e:	d10a      	bne.n	8005436 <UART_AdvFeatureConfig+0x116>
    {
      assert_param(IS_UART_ADVFEATURE_AUTOBAUDRATEMODE(huart->AdvancedInit.AutoBaudRateMode));
      MODIFY_REG(huart->Instance->CR2, USART_CR2_ABRMODE, huart->AdvancedInit.AutoBaudRateMode);
 8005420:	687b      	ldr	r3, [r7, #4]
 8005422:	681b      	ldr	r3, [r3, #0]
 8005424:	687a      	ldr	r2, [r7, #4]
 8005426:	6812      	ldr	r2, [r2, #0]
 8005428:	6852      	ldr	r2, [r2, #4]
 800542a:	f422 01c0 	bic.w	r1, r2, #6291456	; 0x600000
 800542e:	687a      	ldr	r2, [r7, #4]
 8005430:	6c52      	ldr	r2, [r2, #68]	; 0x44
 8005432:	430a      	orrs	r2, r1
 8005434:	605a      	str	r2, [r3, #4]
    }
  }

  /* if required, configure MSB first on communication line */
  if(HAL_IS_BIT_SET(huart->AdvancedInit.AdvFeatureInit, UART_ADVFEATURE_MSBFIRST_INIT))
 8005436:	687b      	ldr	r3, [r7, #4]
 8005438:	6a5b      	ldr	r3, [r3, #36]	; 0x24
 800543a:	f003 0380 	and.w	r3, r3, #128	; 0x80
 800543e:	2b00      	cmp	r3, #0
 8005440:	d00a      	beq.n	8005458 <UART_AdvFeatureConfig+0x138>
  {
    assert_param(IS_UART_ADVFEATURE_MSBFIRST(huart->AdvancedInit.MSBFirst));
    MODIFY_REG(huart->Instance->CR2, USART_CR2_MSBFIRST, huart->AdvancedInit.MSBFirst);
 8005442:	687b      	ldr	r3, [r7, #4]
 8005444:	681b      	ldr	r3, [r3, #0]
 8005446:	687a      	ldr	r2, [r7, #4]
 8005448:	6812      	ldr	r2, [r2, #0]
 800544a:	6852      	ldr	r2, [r2, #4]
 800544c:	f422 2100 	bic.w	r1, r2, #524288	; 0x80000
 8005450:	687a      	ldr	r2, [r7, #4]
 8005452:	6c92      	ldr	r2, [r2, #72]	; 0x48
 8005454:	430a      	orrs	r2, r1
 8005456:	605a      	str	r2, [r3, #4]
  }
}
 8005458:	bf00      	nop
 800545a:	370c      	adds	r7, #12
 800545c:	46bd      	mov	sp, r7
 800545e:	f85d 7b04 	ldr.w	r7, [sp], #4
 8005462:	4770      	bx	lr

08005464 <UART_CheckIdleState>:
  * @brief Check the UART Idle State.
  * @param huart UART handle.
  * @retval HAL status
  */
HAL_StatusTypeDef UART_CheckIdleState(UART_HandleTypeDef *huart)
{
 8005464:	b580      	push	{r7, lr}
 8005466:	b086      	sub	sp, #24
 8005468:	af02      	add	r7, sp, #8
 800546a:	6078      	str	r0, [r7, #4]
  uint32_t tickstart = 0;
 800546c:	2300      	movs	r3, #0
 800546e:	60fb      	str	r3, [r7, #12]

  /* Initialize the UART ErrorCode */
  huart->ErrorCode = HAL_UART_ERROR_NONE;
 8005470:	687b      	ldr	r3, [r7, #4]
 8005472:	2200      	movs	r2, #0
 8005474:	66da      	str	r2, [r3, #108]	; 0x6c

  /* Init tickstart for timeout managment*/
  tickstart = HAL_GetTick();
 8005476:	f7fc faa5 	bl	80019c4 <HAL_GetTick>
 800547a:	60f8      	str	r0, [r7, #12]

  /* Check if the Transmitter is enabled */
  if((huart->Instance->CR1 & USART_CR1_TE) == USART_CR1_TE)
 800547c:	687b      	ldr	r3, [r7, #4]
 800547e:	681b      	ldr	r3, [r3, #0]
 8005480:	681b      	ldr	r3, [r3, #0]
 8005482:	f003 0308 	and.w	r3, r3, #8
 8005486:	2b08      	cmp	r3, #8
 8005488:	d10e      	bne.n	80054a8 <UART_CheckIdleState+0x44>
  {
    /* Wait until TEACK flag is set */
    if(UART_WaitOnFlagUntilTimeout(huart, USART_ISR_TEACK, RESET, tickstart, HAL_UART_TIMEOUT_VALUE) != HAL_OK)
 800548a:	f06f 437e 	mvn.w	r3, #4261412864	; 0xfe000000
 800548e:	9300      	str	r3, [sp, #0]
 8005490:	68fb      	ldr	r3, [r7, #12]
 8005492:	2200      	movs	r2, #0
 8005494:	f44f 1100 	mov.w	r1, #2097152	; 0x200000
 8005498:	6878      	ldr	r0, [r7, #4]
 800549a:	f000 f82c 	bl	80054f6 <UART_WaitOnFlagUntilTimeout>
 800549e:	4603      	mov	r3, r0
 80054a0:	2b00      	cmp	r3, #0
 80054a2:	d001      	beq.n	80054a8 <UART_CheckIdleState+0x44>
    {
      /* Timeout occurred */
      return HAL_TIMEOUT;
 80054a4:	2303      	movs	r3, #3
 80054a6:	e022      	b.n	80054ee <UART_CheckIdleState+0x8a>
    }
  }
  /* Check if the Receiver is enabled */
  if((huart->Instance->CR1 & USART_CR1_RE) == USART_CR1_RE)
 80054a8:	687b      	ldr	r3, [r7, #4]
 80054aa:	681b      	ldr	r3, [r3, #0]
 80054ac:	681b      	ldr	r3, [r3, #0]
 80054ae:	f003 0304 	and.w	r3, r3, #4
 80054b2:	2b04      	cmp	r3, #4
 80054b4:	d10e      	bne.n	80054d4 <UART_CheckIdleState+0x70>
  {
    /* Wait until REACK flag is set */
    if(UART_WaitOnFlagUntilTimeout(huart, USART_ISR_REACK, RESET, tickstart, HAL_UART_TIMEOUT_VALUE) != HAL_OK)
 80054b6:	f06f 437e 	mvn.w	r3, #4261412864	; 0xfe000000
 80054ba:	9300      	str	r3, [sp, #0]
 80054bc:	68fb      	ldr	r3, [r7, #12]
 80054be:	2200      	movs	r2, #0
 80054c0:	f44f 0180 	mov.w	r1, #4194304	; 0x400000
 80054c4:	6878      	ldr	r0, [r7, #4]
 80054c6:	f000 f816 	bl	80054f6 <UART_WaitOnFlagUntilTimeout>
 80054ca:	4603      	mov	r3, r0
 80054cc:	2b00      	cmp	r3, #0
 80054ce:	d001      	beq.n	80054d4 <UART_CheckIdleState+0x70>
    {
      /* Timeout occurred */
      return HAL_TIMEOUT;
 80054d0:	2303      	movs	r3, #3
 80054d2:	e00c      	b.n	80054ee <UART_CheckIdleState+0x8a>
    }
  }

  /* Initialize the UART State */
  huart->gState  = HAL_UART_STATE_READY;
 80054d4:	687b      	ldr	r3, [r7, #4]
 80054d6:	2220      	movs	r2, #32
 80054d8:	f883 2069 	strb.w	r2, [r3, #105]	; 0x69
  huart->RxState = HAL_UART_STATE_READY;
 80054dc:	687b      	ldr	r3, [r7, #4]
 80054de:	2220      	movs	r2, #32
 80054e0:	f883 206a 	strb.w	r2, [r3, #106]	; 0x6a

  /* Process Unlocked */
  __HAL_UNLOCK(huart);
 80054e4:	687b      	ldr	r3, [r7, #4]
 80054e6:	2200      	movs	r2, #0
 80054e8:	f883 2068 	strb.w	r2, [r3, #104]	; 0x68

  return HAL_OK;
 80054ec:	2300      	movs	r3, #0
}
 80054ee:	4618      	mov	r0, r3
 80054f0:	3710      	adds	r7, #16
 80054f2:	46bd      	mov	sp, r7
 80054f4:	bd80      	pop	{r7, pc}

080054f6 <UART_WaitOnFlagUntilTimeout>:
  * @param  Tickstart Tick start value
  * @param  Timeout Timeout duration
  * @retval HAL status
  */
HAL_StatusTypeDef UART_WaitOnFlagUntilTimeout(UART_HandleTypeDef *huart, uint32_t Flag, FlagStatus Status, uint32_t Tickstart, uint32_t Timeout)
{
 80054f6:	b580      	push	{r7, lr}
 80054f8:	b084      	sub	sp, #16
 80054fa:	af00      	add	r7, sp, #0
 80054fc:	60f8      	str	r0, [r7, #12]
 80054fe:	60b9      	str	r1, [r7, #8]
 8005500:	603b      	str	r3, [r7, #0]
 8005502:	4613      	mov	r3, r2
 8005504:	71fb      	strb	r3, [r7, #7]
  /* Wait until flag is set */
  while((__HAL_UART_GET_FLAG(huart, Flag) ? SET : RESET) == Status)
 8005506:	e02c      	b.n	8005562 <UART_WaitOnFlagUntilTimeout+0x6c>
  {
    /* Check for the Timeout */
    if(Timeout != HAL_MAX_DELAY)
 8005508:	69bb      	ldr	r3, [r7, #24]
 800550a:	f1b3 3fff 	cmp.w	r3, #4294967295
 800550e:	d028      	beq.n	8005562 <UART_WaitOnFlagUntilTimeout+0x6c>
    {
      if((Timeout == 0) || ((HAL_GetTick()-Tickstart) > Timeout))
 8005510:	69bb      	ldr	r3, [r7, #24]
 8005512:	2b00      	cmp	r3, #0
 8005514:	d007      	beq.n	8005526 <UART_WaitOnFlagUntilTimeout+0x30>
 8005516:	f7fc fa55 	bl	80019c4 <HAL_GetTick>
 800551a:	4602      	mov	r2, r0
 800551c:	683b      	ldr	r3, [r7, #0]
 800551e:	1ad2      	subs	r2, r2, r3
 8005520:	69bb      	ldr	r3, [r7, #24]
 8005522:	429a      	cmp	r2, r3
 8005524:	d91d      	bls.n	8005562 <UART_WaitOnFlagUntilTimeout+0x6c>
      {
        /* Disable TXE, RXNE, PE and ERR (Frame error, noise error, overrun error) interrupts for the interrupt process */
        CLEAR_BIT(huart->Instance->CR1, (USART_CR1_RXNEIE | USART_CR1_PEIE | USART_CR1_TXEIE));
 8005526:	68fb      	ldr	r3, [r7, #12]
 8005528:	681b      	ldr	r3, [r3, #0]
 800552a:	68fa      	ldr	r2, [r7, #12]
 800552c:	6812      	ldr	r2, [r2, #0]
 800552e:	6812      	ldr	r2, [r2, #0]
 8005530:	f422 72d0 	bic.w	r2, r2, #416	; 0x1a0
 8005534:	601a      	str	r2, [r3, #0]
        CLEAR_BIT(huart->Instance->CR3, USART_CR3_EIE);
 8005536:	68fb      	ldr	r3, [r7, #12]
 8005538:	681b      	ldr	r3, [r3, #0]
 800553a:	68fa      	ldr	r2, [r7, #12]
 800553c:	6812      	ldr	r2, [r2, #0]
 800553e:	6892      	ldr	r2, [r2, #8]
 8005540:	f022 0201 	bic.w	r2, r2, #1
 8005544:	609a      	str	r2, [r3, #8]

        huart->gState  = HAL_UART_STATE_READY;
 8005546:	68fb      	ldr	r3, [r7, #12]
 8005548:	2220      	movs	r2, #32
 800554a:	f883 2069 	strb.w	r2, [r3, #105]	; 0x69
        huart->RxState = HAL_UART_STATE_READY;
 800554e:	68fb      	ldr	r3, [r7, #12]
 8005550:	2220      	movs	r2, #32
 8005552:	f883 206a 	strb.w	r2, [r3, #106]	; 0x6a

        /* Process Unlocked */
        __HAL_UNLOCK(huart);
 8005556:	68fb      	ldr	r3, [r7, #12]
 8005558:	2200      	movs	r2, #0
 800555a:	f883 2068 	strb.w	r2, [r3, #104]	; 0x68
        return HAL_TIMEOUT;
 800555e:	2303      	movs	r3, #3
 8005560:	e00f      	b.n	8005582 <UART_WaitOnFlagUntilTimeout+0x8c>
  while((__HAL_UART_GET_FLAG(huart, Flag) ? SET : RESET) == Status)
 8005562:	68fb      	ldr	r3, [r7, #12]
 8005564:	681b      	ldr	r3, [r3, #0]
 8005566:	69da      	ldr	r2, [r3, #28]
 8005568:	68bb      	ldr	r3, [r7, #8]
 800556a:	401a      	ands	r2, r3
 800556c:	68bb      	ldr	r3, [r7, #8]
 800556e:	429a      	cmp	r2, r3
 8005570:	bf0c      	ite	eq
 8005572:	2301      	moveq	r3, #1
 8005574:	2300      	movne	r3, #0
 8005576:	b2db      	uxtb	r3, r3
 8005578:	461a      	mov	r2, r3
 800557a:	79fb      	ldrb	r3, [r7, #7]
 800557c:	429a      	cmp	r2, r3
 800557e:	d0c3      	beq.n	8005508 <UART_WaitOnFlagUntilTimeout+0x12>
      }
    }
  }
  return HAL_OK;
 8005580:	2300      	movs	r3, #0
}
 8005582:	4618      	mov	r0, r3
 8005584:	3710      	adds	r7, #16
 8005586:	46bd      	mov	sp, r7
 8005588:	bd80      	pop	{r7, pc}

0800558a <osSystickHandler>:
* @brief  Handles the tick increment
* @param  none.
* @retval none.
*/
void osSystickHandler(void)
{
 800558a:	b580      	push	{r7, lr}
 800558c:	af00      	add	r7, sp, #0

#if (INCLUDE_xTaskGetSchedulerState  == 1 )
  if (xTaskGetSchedulerState() != taskSCHEDULER_NOT_STARTED)
 800558e:	f001 f90f 	bl	80067b0 <xTaskGetSchedulerState>
 8005592:	4603      	mov	r3, r0
 8005594:	2b01      	cmp	r3, #1
 8005596:	d001      	beq.n	800559c <osSystickHandler+0x12>
  {
#endif  /* INCLUDE_xTaskGetSchedulerState */  
    xPortSysTickHandler();
 8005598:	f000 fa3c 	bl	8005a14 <xPortSysTickHandler>
#if (INCLUDE_xTaskGetSchedulerState  == 1 )
  }
#endif  /* INCLUDE_xTaskGetSchedulerState */  
}
 800559c:	bf00      	nop
 800559e:	bd80      	pop	{r7, pc}

080055a0 <vListInitialise>:
/*-----------------------------------------------------------
 * PUBLIC LIST API documented in list.h
 *----------------------------------------------------------*/

void vListInitialise( List_t * const pxList )
{
 80055a0:	b480      	push	{r7}
 80055a2:	b083      	sub	sp, #12
 80055a4:	af00      	add	r7, sp, #0
 80055a6:	6078      	str	r0, [r7, #4]
	/* The list structure contains a list item which is used to mark the
	end of the list.  To initialise the list the list end is inserted
	as the only list entry. */
	pxList->pxIndex = ( ListItem_t * ) &( pxList->xListEnd );			/*lint !e826 !e740 The mini list structure is used as the list end to save RAM.  This is checked and valid. */
 80055a8:	687b      	ldr	r3, [r7, #4]
 80055aa:	f103 0208 	add.w	r2, r3, #8
 80055ae:	687b      	ldr	r3, [r7, #4]
 80055b0:	605a      	str	r2, [r3, #4]

	/* The list end value is the highest possible value in the list to
	ensure it remains at the end of the list. */
	pxList->xListEnd.xItemValue = portMAX_DELAY;
 80055b2:	687b      	ldr	r3, [r7, #4]
 80055b4:	f04f 32ff 	mov.w	r2, #4294967295
 80055b8:	609a      	str	r2, [r3, #8]

	/* The list end next and previous pointers point to itself so we know
	when the list is empty. */
	pxList->xListEnd.pxNext = ( ListItem_t * ) &( pxList->xListEnd );	/*lint !e826 !e740 The mini list structure is used as the list end to save RAM.  This is checked and valid. */
 80055ba:	687b      	ldr	r3, [r7, #4]
 80055bc:	f103 0208 	add.w	r2, r3, #8
 80055c0:	687b      	ldr	r3, [r7, #4]
 80055c2:	60da      	str	r2, [r3, #12]
	pxList->xListEnd.pxPrevious = ( ListItem_t * ) &( pxList->xListEnd );/*lint !e826 !e740 The mini list structure is used as the list end to save RAM.  This is checked and valid. */
 80055c4:	687b      	ldr	r3, [r7, #4]
 80055c6:	f103 0208 	add.w	r2, r3, #8
 80055ca:	687b      	ldr	r3, [r7, #4]
 80055cc:	611a      	str	r2, [r3, #16]

	pxList->uxNumberOfItems = ( UBaseType_t ) 0U;
 80055ce:	687b      	ldr	r3, [r7, #4]
 80055d0:	2200      	movs	r2, #0
 80055d2:	601a      	str	r2, [r3, #0]

	/* Write known values into the list if
	configUSE_LIST_DATA_INTEGRITY_CHECK_BYTES is set to 1. */
	listSET_LIST_INTEGRITY_CHECK_1_VALUE( pxList );
	listSET_LIST_INTEGRITY_CHECK_2_VALUE( pxList );
}
 80055d4:	bf00      	nop
 80055d6:	370c      	adds	r7, #12
 80055d8:	46bd      	mov	sp, r7
 80055da:	f85d 7b04 	ldr.w	r7, [sp], #4
 80055de:	4770      	bx	lr

080055e0 <vListInitialiseItem>:
/*-----------------------------------------------------------*/

void vListInitialiseItem( ListItem_t * const pxItem )
{
 80055e0:	b480      	push	{r7}
 80055e2:	b083      	sub	sp, #12
 80055e4:	af00      	add	r7, sp, #0
 80055e6:	6078      	str	r0, [r7, #4]
	/* Make sure the list item is not recorded as being on a list. */
	pxItem->pvContainer = NULL;
 80055e8:	687b      	ldr	r3, [r7, #4]
 80055ea:	2200      	movs	r2, #0
 80055ec:	611a      	str	r2, [r3, #16]

	/* Write known values into the list item if
	configUSE_LIST_DATA_INTEGRITY_CHECK_BYTES is set to 1. */
	listSET_FIRST_LIST_ITEM_INTEGRITY_CHECK_VALUE( pxItem );
	listSET_SECOND_LIST_ITEM_INTEGRITY_CHECK_VALUE( pxItem );
}
 80055ee:	bf00      	nop
 80055f0:	370c      	adds	r7, #12
 80055f2:	46bd      	mov	sp, r7
 80055f4:	f85d 7b04 	ldr.w	r7, [sp], #4
 80055f8:	4770      	bx	lr

080055fa <vListInsertEnd>:
/*-----------------------------------------------------------*/

void vListInsertEnd( List_t * const pxList, ListItem_t * const pxNewListItem )
{
 80055fa:	b480      	push	{r7}
 80055fc:	b085      	sub	sp, #20
 80055fe:	af00      	add	r7, sp, #0
 8005600:	6078      	str	r0, [r7, #4]
 8005602:	6039      	str	r1, [r7, #0]
ListItem_t * const pxIndex = pxList->pxIndex;
 8005604:	687b      	ldr	r3, [r7, #4]
 8005606:	685b      	ldr	r3, [r3, #4]
 8005608:	60fb      	str	r3, [r7, #12]
	listTEST_LIST_ITEM_INTEGRITY( pxNewListItem );

	/* Insert a new list item into pxList, but rather than sort the list,
	makes the new list item the last item to be removed by a call to
	listGET_OWNER_OF_NEXT_ENTRY(). */
	pxNewListItem->pxNext = pxIndex;
 800560a:	683b      	ldr	r3, [r7, #0]
 800560c:	68fa      	ldr	r2, [r7, #12]
 800560e:	605a      	str	r2, [r3, #4]
	pxNewListItem->pxPrevious = pxIndex->pxPrevious;
 8005610:	68fb      	ldr	r3, [r7, #12]
 8005612:	689a      	ldr	r2, [r3, #8]
 8005614:	683b      	ldr	r3, [r7, #0]
 8005616:	609a      	str	r2, [r3, #8]

	/* Only used during decision coverage testing. */
	mtCOVERAGE_TEST_DELAY();

	pxIndex->pxPrevious->pxNext = pxNewListItem;
 8005618:	68fb      	ldr	r3, [r7, #12]
 800561a:	689b      	ldr	r3, [r3, #8]
 800561c:	683a      	ldr	r2, [r7, #0]
 800561e:	605a      	str	r2, [r3, #4]
	pxIndex->pxPrevious = pxNewListItem;
 8005620:	68fb      	ldr	r3, [r7, #12]
 8005622:	683a      	ldr	r2, [r7, #0]
 8005624:	609a      	str	r2, [r3, #8]

	/* Remember which list the item is in. */
	pxNewListItem->pvContainer = ( void * ) pxList;
 8005626:	683b      	ldr	r3, [r7, #0]
 8005628:	687a      	ldr	r2, [r7, #4]
 800562a:	611a      	str	r2, [r3, #16]

	( pxList->uxNumberOfItems )++;
 800562c:	687b      	ldr	r3, [r7, #4]
 800562e:	681b      	ldr	r3, [r3, #0]
 8005630:	1c5a      	adds	r2, r3, #1
 8005632:	687b      	ldr	r3, [r7, #4]
 8005634:	601a      	str	r2, [r3, #0]
}
 8005636:	bf00      	nop
 8005638:	3714      	adds	r7, #20
 800563a:	46bd      	mov	sp, r7
 800563c:	f85d 7b04 	ldr.w	r7, [sp], #4
 8005640:	4770      	bx	lr

08005642 <vListInsert>:
/*-----------------------------------------------------------*/

void vListInsert( List_t * const pxList, ListItem_t * const pxNewListItem )
{
 8005642:	b480      	push	{r7}
 8005644:	b085      	sub	sp, #20
 8005646:	af00      	add	r7, sp, #0
 8005648:	6078      	str	r0, [r7, #4]
 800564a:	6039      	str	r1, [r7, #0]
ListItem_t *pxIterator;
const TickType_t xValueOfInsertion = pxNewListItem->xItemValue;
 800564c:	683b      	ldr	r3, [r7, #0]
 800564e:	681b      	ldr	r3, [r3, #0]
 8005650:	60bb      	str	r3, [r7, #8]
	new list item should be placed after it.  This ensures that TCB's which are
	stored in ready lists (all of which have the same xItemValue value) get a
	share of the CPU.  However, if the xItemValue is the same as the back marker
	the iteration loop below will not end.  Therefore the value is checked
	first, and the algorithm slightly modified if necessary. */
	if( xValueOfInsertion == portMAX_DELAY )
 8005652:	68bb      	ldr	r3, [r7, #8]
 8005654:	f1b3 3fff 	cmp.w	r3, #4294967295
 8005658:	d103      	bne.n	8005662 <vListInsert+0x20>
	{
		pxIterator = pxList->xListEnd.pxPrevious;
 800565a:	687b      	ldr	r3, [r7, #4]
 800565c:	691b      	ldr	r3, [r3, #16]
 800565e:	60fb      	str	r3, [r7, #12]
 8005660:	e00c      	b.n	800567c <vListInsert+0x3a>
			4) Using a queue or semaphore before it has been initialised or
			   before the scheduler has been started (are interrupts firing
			   before vTaskStartScheduler() has been called?).
		**********************************************************************/

		for( pxIterator = ( ListItem_t * ) &( pxList->xListEnd ); pxIterator->pxNext->xItemValue <= xValueOfInsertion; pxIterator = pxIterator->pxNext ) /*lint !e826 !e740 The mini list structure is used as the list end to save RAM.  This is checked and valid. */
 8005662:	687b      	ldr	r3, [r7, #4]
 8005664:	3308      	adds	r3, #8
 8005666:	60fb      	str	r3, [r7, #12]
 8005668:	e002      	b.n	8005670 <vListInsert+0x2e>
 800566a:	68fb      	ldr	r3, [r7, #12]
 800566c:	685b      	ldr	r3, [r3, #4]
 800566e:	60fb      	str	r3, [r7, #12]
 8005670:	68fb      	ldr	r3, [r7, #12]
 8005672:	685b      	ldr	r3, [r3, #4]
 8005674:	681a      	ldr	r2, [r3, #0]
 8005676:	68bb      	ldr	r3, [r7, #8]
 8005678:	429a      	cmp	r2, r3
 800567a:	d9f6      	bls.n	800566a <vListInsert+0x28>
			/* There is nothing to do here, just iterating to the wanted
			insertion position. */
		}
	}

	pxNewListItem->pxNext = pxIterator->pxNext;
 800567c:	68fb      	ldr	r3, [r7, #12]
 800567e:	685a      	ldr	r2, [r3, #4]
 8005680:	683b      	ldr	r3, [r7, #0]
 8005682:	605a      	str	r2, [r3, #4]
	pxNewListItem->pxNext->pxPrevious = pxNewListItem;
 8005684:	683b      	ldr	r3, [r7, #0]
 8005686:	685b      	ldr	r3, [r3, #4]
 8005688:	683a      	ldr	r2, [r7, #0]
 800568a:	609a      	str	r2, [r3, #8]
	pxNewListItem->pxPrevious = pxIterator;
 800568c:	683b      	ldr	r3, [r7, #0]
 800568e:	68fa      	ldr	r2, [r7, #12]
 8005690:	609a      	str	r2, [r3, #8]
	pxIterator->pxNext = pxNewListItem;
 8005692:	68fb      	ldr	r3, [r7, #12]
 8005694:	683a      	ldr	r2, [r7, #0]
 8005696:	605a      	str	r2, [r3, #4]

	/* Remember which list the item is in.  This allows fast removal of the
	item later. */
	pxNewListItem->pvContainer = ( void * ) pxList;
 8005698:	683b      	ldr	r3, [r7, #0]
 800569a:	687a      	ldr	r2, [r7, #4]
 800569c:	611a      	str	r2, [r3, #16]

	( pxList->uxNumberOfItems )++;
 800569e:	687b      	ldr	r3, [r7, #4]
 80056a0:	681b      	ldr	r3, [r3, #0]
 80056a2:	1c5a      	adds	r2, r3, #1
 80056a4:	687b      	ldr	r3, [r7, #4]
 80056a6:	601a      	str	r2, [r3, #0]
}
 80056a8:	bf00      	nop
 80056aa:	3714      	adds	r7, #20
 80056ac:	46bd      	mov	sp, r7
 80056ae:	f85d 7b04 	ldr.w	r7, [sp], #4
 80056b2:	4770      	bx	lr

080056b4 <uxListRemove>:
/*-----------------------------------------------------------*/

UBaseType_t uxListRemove( ListItem_t * const pxItemToRemove )
{
 80056b4:	b480      	push	{r7}
 80056b6:	b085      	sub	sp, #20
 80056b8:	af00      	add	r7, sp, #0
 80056ba:	6078      	str	r0, [r7, #4]
/* The list item knows which list it is in.  Obtain the list from the list
item. */
List_t * const pxList = ( List_t * ) pxItemToRemove->pvContainer;
 80056bc:	687b      	ldr	r3, [r7, #4]
 80056be:	691b      	ldr	r3, [r3, #16]
 80056c0:	60fb      	str	r3, [r7, #12]

	pxItemToRemove->pxNext->pxPrevious = pxItemToRemove->pxPrevious;
 80056c2:	687b      	ldr	r3, [r7, #4]
 80056c4:	685b      	ldr	r3, [r3, #4]
 80056c6:	687a      	ldr	r2, [r7, #4]
 80056c8:	6892      	ldr	r2, [r2, #8]
 80056ca:	609a      	str	r2, [r3, #8]
	pxItemToRemove->pxPrevious->pxNext = pxItemToRemove->pxNext;
 80056cc:	687b      	ldr	r3, [r7, #4]
 80056ce:	689b      	ldr	r3, [r3, #8]
 80056d0:	687a      	ldr	r2, [r7, #4]
 80056d2:	6852      	ldr	r2, [r2, #4]
 80056d4:	605a      	str	r2, [r3, #4]

	/* Only used during decision coverage testing. */
	mtCOVERAGE_TEST_DELAY();

	/* Make sure the index is left pointing to a valid item. */
	if( pxList->pxIndex == pxItemToRemove )
 80056d6:	68fb      	ldr	r3, [r7, #12]
 80056d8:	685a      	ldr	r2, [r3, #4]
 80056da:	687b      	ldr	r3, [r7, #4]
 80056dc:	429a      	cmp	r2, r3
 80056de:	d103      	bne.n	80056e8 <uxListRemove+0x34>
	{
		pxList->pxIndex = pxItemToRemove->pxPrevious;
 80056e0:	687b      	ldr	r3, [r7, #4]
 80056e2:	689a      	ldr	r2, [r3, #8]
 80056e4:	68fb      	ldr	r3, [r7, #12]
 80056e6:	605a      	str	r2, [r3, #4]
	else
	{
		mtCOVERAGE_TEST_MARKER();
	}

	pxItemToRemove->pvContainer = NULL;
 80056e8:	687b      	ldr	r3, [r7, #4]
 80056ea:	2200      	movs	r2, #0
 80056ec:	611a      	str	r2, [r3, #16]
	( pxList->uxNumberOfItems )--;
 80056ee:	68fb      	ldr	r3, [r7, #12]
 80056f0:	681b      	ldr	r3, [r3, #0]
 80056f2:	1e5a      	subs	r2, r3, #1
 80056f4:	68fb      	ldr	r3, [r7, #12]
 80056f6:	601a      	str	r2, [r3, #0]

	return pxList->uxNumberOfItems;
 80056f8:	68fb      	ldr	r3, [r7, #12]
 80056fa:	681b      	ldr	r3, [r3, #0]
}
 80056fc:	4618      	mov	r0, r3
 80056fe:	3714      	adds	r7, #20
 8005700:	46bd      	mov	sp, r7
 8005702:	f85d 7b04 	ldr.w	r7, [sp], #4
 8005706:	4770      	bx	lr

08005708 <pxPortInitialiseStack>:

/*
 * See header file for description.
 */
StackType_t *pxPortInitialiseStack( StackType_t *pxTopOfStack, TaskFunction_t pxCode, void *pvParameters )
{
 8005708:	b480      	push	{r7}
 800570a:	b085      	sub	sp, #20
 800570c:	af00      	add	r7, sp, #0
 800570e:	60f8      	str	r0, [r7, #12]
 8005710:	60b9      	str	r1, [r7, #8]
 8005712:	607a      	str	r2, [r7, #4]
	/* Simulate the stack frame as it would be created by a context switch
	interrupt. */

	/* Offset added to account for the way the MCU uses the stack on entry/exit
	of interrupts, and to ensure alignment. */
	pxTopOfStack--;
 8005714:	68fb      	ldr	r3, [r7, #12]
 8005716:	3b04      	subs	r3, #4
 8005718:	60fb      	str	r3, [r7, #12]

	*pxTopOfStack = portINITIAL_XPSR;	/* xPSR */
 800571a:	68fb      	ldr	r3, [r7, #12]
 800571c:	f04f 7280 	mov.w	r2, #16777216	; 0x1000000
 8005720:	601a      	str	r2, [r3, #0]
	pxTopOfStack--;
 8005722:	68fb      	ldr	r3, [r7, #12]
 8005724:	3b04      	subs	r3, #4
 8005726:	60fb      	str	r3, [r7, #12]
	*pxTopOfStack = ( StackType_t ) pxCode;	/* PC */
 8005728:	68ba      	ldr	r2, [r7, #8]
 800572a:	68fb      	ldr	r3, [r7, #12]
 800572c:	601a      	str	r2, [r3, #0]
	pxTopOfStack--;
 800572e:	68fb      	ldr	r3, [r7, #12]
 8005730:	3b04      	subs	r3, #4
 8005732:	60fb      	str	r3, [r7, #12]
	*pxTopOfStack = ( StackType_t ) portTASK_RETURN_ADDRESS;	/* LR */
 8005734:	4a0c      	ldr	r2, [pc, #48]	; (8005768 <pxPortInitialiseStack+0x60>)
 8005736:	68fb      	ldr	r3, [r7, #12]
 8005738:	601a      	str	r2, [r3, #0]

	/* Save code space by skipping register initialisation. */
	pxTopOfStack -= 5;	/* R12, R3, R2 and R1. */
 800573a:	68fb      	ldr	r3, [r7, #12]
 800573c:	3b14      	subs	r3, #20
 800573e:	60fb      	str	r3, [r7, #12]
	*pxTopOfStack = ( StackType_t ) pvParameters;	/* R0 */
 8005740:	687a      	ldr	r2, [r7, #4]
 8005742:	68fb      	ldr	r3, [r7, #12]
 8005744:	601a      	str	r2, [r3, #0]

	/* A save method is being used that requires each task to maintain its
	own exec return value. */
	pxTopOfStack--;
 8005746:	68fb      	ldr	r3, [r7, #12]
 8005748:	3b04      	subs	r3, #4
 800574a:	60fb      	str	r3, [r7, #12]
	*pxTopOfStack = portINITIAL_EXEC_RETURN;
 800574c:	68fb      	ldr	r3, [r7, #12]
 800574e:	f06f 0202 	mvn.w	r2, #2
 8005752:	601a      	str	r2, [r3, #0]

	pxTopOfStack -= 8;	/* R11, R10, R9, R8, R7, R6, R5 and R4. */
 8005754:	68fb      	ldr	r3, [r7, #12]
 8005756:	3b20      	subs	r3, #32
 8005758:	60fb      	str	r3, [r7, #12]

	return pxTopOfStack;
 800575a:	68fb      	ldr	r3, [r7, #12]
}
 800575c:	4618      	mov	r0, r3
 800575e:	3714      	adds	r7, #20
 8005760:	46bd      	mov	sp, r7
 8005762:	f85d 7b04 	ldr.w	r7, [sp], #4
 8005766:	4770      	bx	lr
 8005768:	0800576d 	.word	0x0800576d

0800576c <prvTaskExitError>:
/*-----------------------------------------------------------*/

static void prvTaskExitError( void )
{
 800576c:	b480      	push	{r7}
 800576e:	b083      	sub	sp, #12
 8005770:	af00      	add	r7, sp, #0
	its caller as there is nothing to return to.  If a task wants to exit it
	should instead call vTaskDelete( NULL ).

	Artificially force an assert() to be triggered if configASSERT() is
	defined, then stop here so application writers can catch the error. */
	configASSERT( uxCriticalNesting == ~0UL );
 8005772:	4b0c      	ldr	r3, [pc, #48]	; (80057a4 <prvTaskExitError+0x38>)
 8005774:	681b      	ldr	r3, [r3, #0]
 8005776:	f1b3 3fff 	cmp.w	r3, #4294967295
 800577a:	d009      	beq.n	8005790 <prvTaskExitError+0x24>

portFORCE_INLINE static void vPortRaiseBASEPRI( void )
{
uint32_t ulNewBASEPRI;

	__asm volatile
 800577c:	f04f 0350 	mov.w	r3, #80	; 0x50
 8005780:	f383 8811 	msr	BASEPRI, r3
 8005784:	f3bf 8f6f 	isb	sy
 8005788:	f3bf 8f4f 	dsb	sy
 800578c:	607b      	str	r3, [r7, #4]
 800578e:	e7fe      	b.n	800578e <prvTaskExitError+0x22>
 8005790:	f04f 0350 	mov.w	r3, #80	; 0x50
 8005794:	f383 8811 	msr	BASEPRI, r3
 8005798:	f3bf 8f6f 	isb	sy
 800579c:	f3bf 8f4f 	dsb	sy
 80057a0:	603b      	str	r3, [r7, #0]
	portDISABLE_INTERRUPTS();
	for( ;; );
 80057a2:	e7fe      	b.n	80057a2 <prvTaskExitError+0x36>
 80057a4:	2000003c 	.word	0x2000003c

080057a8 <SVC_Handler>:
}
/*-----------------------------------------------------------*/

void vPortSVCHandler( void )
{
	__asm volatile (
 80057a8:	4b06      	ldr	r3, [pc, #24]	; (80057c4 <pxCurrentTCBConst2>)
 80057aa:	6819      	ldr	r1, [r3, #0]
 80057ac:	6808      	ldr	r0, [r1, #0]
 80057ae:	e8b0 4ff0 	ldmia.w	r0!, {r4, r5, r6, r7, r8, r9, sl, fp, lr}
 80057b2:	f380 8809 	msr	PSP, r0
 80057b6:	f3bf 8f6f 	isb	sy
 80057ba:	f04f 0000 	mov.w	r0, #0
 80057be:	f380 8811 	msr	BASEPRI, r0
 80057c2:	4770      	bx	lr

080057c4 <pxCurrentTCBConst2>:
 80057c4:	20007de8 	.word	0x20007de8
					"	bx r14							\n"
					"									\n"
					"	.align 2						\n"
					"pxCurrentTCBConst2: .word pxCurrentTCB				\n"
				);
}
 80057c8:	bf00      	nop
 80057ca:	bf00      	nop

080057cc <prvPortStartFirstTask>:
/*-----------------------------------------------------------*/

static void prvPortStartFirstTask( void )
{
	__asm volatile(
 80057cc:	4806      	ldr	r0, [pc, #24]	; (80057e8 <prvPortStartFirstTask+0x1c>)
 80057ce:	6800      	ldr	r0, [r0, #0]
 80057d0:	6800      	ldr	r0, [r0, #0]
 80057d2:	f380 8808 	msr	MSP, r0
 80057d6:	b662      	cpsie	i
 80057d8:	b661      	cpsie	f
 80057da:	f3bf 8f4f 	dsb	sy
 80057de:	f3bf 8f6f 	isb	sy
 80057e2:	df00      	svc	0
 80057e4:	bf00      	nop
					" dsb					\n"
					" isb					\n"
					" svc 0					\n" /* System call to start first task. */
					" nop					\n"
				);
}
 80057e6:	bf00      	nop
 80057e8:	e000ed08 	.word	0xe000ed08

080057ec <xPortStartScheduler>:

/*
 * See header file for description.
 */
BaseType_t xPortStartScheduler( void )
{
 80057ec:	b580      	push	{r7, lr}
 80057ee:	b086      	sub	sp, #24
 80057f0:	af00      	add	r7, sp, #0
	configASSERT( configMAX_SYSCALL_INTERRUPT_PRIORITY );

	/* This port can be used on all revisions of the Cortex-M7 core other than
	the r0p1 parts.  r0p1 parts should use the port from the
	/source/portable/GCC/ARM_CM7/r0p1 directory. */
	configASSERT( portCPUID != portCORTEX_M7_r0p1_ID );
 80057f2:	4b3b      	ldr	r3, [pc, #236]	; (80058e0 <xPortStartScheduler+0xf4>)
 80057f4:	681b      	ldr	r3, [r3, #0]
 80057f6:	4a3b      	ldr	r2, [pc, #236]	; (80058e4 <xPortStartScheduler+0xf8>)
 80057f8:	4293      	cmp	r3, r2
 80057fa:	d109      	bne.n	8005810 <xPortStartScheduler+0x24>
 80057fc:	f04f 0350 	mov.w	r3, #80	; 0x50
 8005800:	f383 8811 	msr	BASEPRI, r3
 8005804:	f3bf 8f6f 	isb	sy
 8005808:	f3bf 8f4f 	dsb	sy
 800580c:	613b      	str	r3, [r7, #16]
 800580e:	e7fe      	b.n	800580e <xPortStartScheduler+0x22>
	configASSERT( portCPUID != portCORTEX_M7_r0p0_ID );
 8005810:	4b33      	ldr	r3, [pc, #204]	; (80058e0 <xPortStartScheduler+0xf4>)
 8005812:	681b      	ldr	r3, [r3, #0]
 8005814:	4a34      	ldr	r2, [pc, #208]	; (80058e8 <xPortStartScheduler+0xfc>)
 8005816:	4293      	cmp	r3, r2
 8005818:	d109      	bne.n	800582e <xPortStartScheduler+0x42>
 800581a:	f04f 0350 	mov.w	r3, #80	; 0x50
 800581e:	f383 8811 	msr	BASEPRI, r3
 8005822:	f3bf 8f6f 	isb	sy
 8005826:	f3bf 8f4f 	dsb	sy
 800582a:	60fb      	str	r3, [r7, #12]
 800582c:	e7fe      	b.n	800582c <xPortStartScheduler+0x40>

	#if( configASSERT_DEFINED == 1 )
	{
		volatile uint32_t ulOriginalPriority;
		volatile uint8_t * const pucFirstUserPriorityRegister = ( volatile uint8_t * const ) ( portNVIC_IP_REGISTERS_OFFSET_16 + portFIRST_USER_INTERRUPT_NUMBER );
 800582e:	4b2f      	ldr	r3, [pc, #188]	; (80058ec <xPortStartScheduler+0x100>)
 8005830:	617b      	str	r3, [r7, #20]
		functions can be called.  ISR safe functions are those that end in
		"FromISR".  FreeRTOS maintains separate thread and ISR API functions to
		ensure interrupt entry is as fast and simple as possible.

		Save the interrupt priority value that is about to be clobbered. */
		ulOriginalPriority = *pucFirstUserPriorityRegister;
 8005832:	697b      	ldr	r3, [r7, #20]
 8005834:	781b      	ldrb	r3, [r3, #0]
 8005836:	b2db      	uxtb	r3, r3
 8005838:	60bb      	str	r3, [r7, #8]

		/* Determine the number of priority bits available.  First write to all
		possible bits. */
		*pucFirstUserPriorityRegister = portMAX_8_BIT_VALUE;
 800583a:	697b      	ldr	r3, [r7, #20]
 800583c:	22ff      	movs	r2, #255	; 0xff
 800583e:	701a      	strb	r2, [r3, #0]

		/* Read the value back to see how many bits stuck. */
		ucMaxPriorityValue = *pucFirstUserPriorityRegister;
 8005840:	697b      	ldr	r3, [r7, #20]
 8005842:	781b      	ldrb	r3, [r3, #0]
 8005844:	b2db      	uxtb	r3, r3
 8005846:	71fb      	strb	r3, [r7, #7]

		/* Use the same mask on the maximum system call priority. */
		ucMaxSysCallPriority = configMAX_SYSCALL_INTERRUPT_PRIORITY & ucMaxPriorityValue;
 8005848:	79fb      	ldrb	r3, [r7, #7]
 800584a:	b2db      	uxtb	r3, r3
 800584c:	f003 0350 	and.w	r3, r3, #80	; 0x50
 8005850:	b2da      	uxtb	r2, r3
 8005852:	4b27      	ldr	r3, [pc, #156]	; (80058f0 <xPortStartScheduler+0x104>)
 8005854:	701a      	strb	r2, [r3, #0]

		/* Calculate the maximum acceptable priority group value for the number
		of bits read back. */
		ulMaxPRIGROUPValue = portMAX_PRIGROUP_BITS;
 8005856:	4b27      	ldr	r3, [pc, #156]	; (80058f4 <xPortStartScheduler+0x108>)
 8005858:	2207      	movs	r2, #7
 800585a:	601a      	str	r2, [r3, #0]
		while( ( ucMaxPriorityValue & portTOP_BIT_OF_BYTE ) == portTOP_BIT_OF_BYTE )
 800585c:	e009      	b.n	8005872 <xPortStartScheduler+0x86>
		{
			ulMaxPRIGROUPValue--;
 800585e:	4b25      	ldr	r3, [pc, #148]	; (80058f4 <xPortStartScheduler+0x108>)
 8005860:	681b      	ldr	r3, [r3, #0]
 8005862:	3b01      	subs	r3, #1
 8005864:	4a23      	ldr	r2, [pc, #140]	; (80058f4 <xPortStartScheduler+0x108>)
 8005866:	6013      	str	r3, [r2, #0]
			ucMaxPriorityValue <<= ( uint8_t ) 0x01;
 8005868:	79fb      	ldrb	r3, [r7, #7]
 800586a:	b2db      	uxtb	r3, r3
 800586c:	005b      	lsls	r3, r3, #1
 800586e:	b2db      	uxtb	r3, r3
 8005870:	71fb      	strb	r3, [r7, #7]
		while( ( ucMaxPriorityValue & portTOP_BIT_OF_BYTE ) == portTOP_BIT_OF_BYTE )
 8005872:	79fb      	ldrb	r3, [r7, #7]
 8005874:	b2db      	uxtb	r3, r3
 8005876:	f003 0380 	and.w	r3, r3, #128	; 0x80
 800587a:	2b80      	cmp	r3, #128	; 0x80
 800587c:	d0ef      	beq.n	800585e <xPortStartScheduler+0x72>
		}

		/* Shift the priority group value back to its position within the AIRCR
		register. */
		ulMaxPRIGROUPValue <<= portPRIGROUP_SHIFT;
 800587e:	4b1d      	ldr	r3, [pc, #116]	; (80058f4 <xPortStartScheduler+0x108>)
 8005880:	681b      	ldr	r3, [r3, #0]
 8005882:	021b      	lsls	r3, r3, #8
 8005884:	4a1b      	ldr	r2, [pc, #108]	; (80058f4 <xPortStartScheduler+0x108>)
 8005886:	6013      	str	r3, [r2, #0]
		ulMaxPRIGROUPValue &= portPRIORITY_GROUP_MASK;
 8005888:	4b1a      	ldr	r3, [pc, #104]	; (80058f4 <xPortStartScheduler+0x108>)
 800588a:	681b      	ldr	r3, [r3, #0]
 800588c:	f403 63e0 	and.w	r3, r3, #1792	; 0x700
 8005890:	4a18      	ldr	r2, [pc, #96]	; (80058f4 <xPortStartScheduler+0x108>)
 8005892:	6013      	str	r3, [r2, #0]

		/* Restore the clobbered interrupt priority register to its original
		value. */
		*pucFirstUserPriorityRegister = ulOriginalPriority;
 8005894:	68bb      	ldr	r3, [r7, #8]
 8005896:	b2da      	uxtb	r2, r3
 8005898:	697b      	ldr	r3, [r7, #20]
 800589a:	701a      	strb	r2, [r3, #0]
	}
	#endif /* conifgASSERT_DEFINED */

	/* Make PendSV and SysTick the lowest priority interrupts. */
	portNVIC_SYSPRI2_REG |= portNVIC_PENDSV_PRI;
 800589c:	4a16      	ldr	r2, [pc, #88]	; (80058f8 <xPortStartScheduler+0x10c>)
 800589e:	4b16      	ldr	r3, [pc, #88]	; (80058f8 <xPortStartScheduler+0x10c>)
 80058a0:	681b      	ldr	r3, [r3, #0]
 80058a2:	f443 0370 	orr.w	r3, r3, #15728640	; 0xf00000
 80058a6:	6013      	str	r3, [r2, #0]
	portNVIC_SYSPRI2_REG |= portNVIC_SYSTICK_PRI;
 80058a8:	4a13      	ldr	r2, [pc, #76]	; (80058f8 <xPortStartScheduler+0x10c>)
 80058aa:	4b13      	ldr	r3, [pc, #76]	; (80058f8 <xPortStartScheduler+0x10c>)
 80058ac:	681b      	ldr	r3, [r3, #0]
 80058ae:	f043 4370 	orr.w	r3, r3, #4026531840	; 0xf0000000
 80058b2:	6013      	str	r3, [r2, #0]

	/* Start the timer that generates the tick ISR.  Interrupts are disabled
	here already. */
	vPortSetupTimerInterrupt();
 80058b4:	f000 f8d2 	bl	8005a5c <vPortSetupTimerInterrupt>

	/* Initialise the critical nesting count ready for the first task. */
	uxCriticalNesting = 0;
 80058b8:	4b10      	ldr	r3, [pc, #64]	; (80058fc <xPortStartScheduler+0x110>)
 80058ba:	2200      	movs	r2, #0
 80058bc:	601a      	str	r2, [r3, #0]

	/* Ensure the VFP is enabled - it should be anyway. */
	vPortEnableVFP();
 80058be:	f000 f8e9 	bl	8005a94 <vPortEnableVFP>

	/* Lazy save always. */
	*( portFPCCR ) |= portASPEN_AND_LSPEN_BITS;
 80058c2:	4a0f      	ldr	r2, [pc, #60]	; (8005900 <xPortStartScheduler+0x114>)
 80058c4:	4b0e      	ldr	r3, [pc, #56]	; (8005900 <xPortStartScheduler+0x114>)
 80058c6:	681b      	ldr	r3, [r3, #0]
 80058c8:	f043 4340 	orr.w	r3, r3, #3221225472	; 0xc0000000
 80058cc:	6013      	str	r3, [r2, #0]

	/* Start the first task. */
	prvPortStartFirstTask();
 80058ce:	f7ff ff7d 	bl	80057cc <prvPortStartFirstTask>

	/* Should never get here as the tasks will now be executing!  Call the task
	exit error function to prevent compiler warnings about a static function
	not being called in the case that the application writer overrides this
	functionality by defining configTASK_RETURN_ADDRESS. */
	prvTaskExitError();
 80058d2:	f7ff ff4b 	bl	800576c <prvTaskExitError>

	/* Should not get here! */
	return 0;
 80058d6:	2300      	movs	r3, #0
}
 80058d8:	4618      	mov	r0, r3
 80058da:	3718      	adds	r7, #24
 80058dc:	46bd      	mov	sp, r7
 80058de:	bd80      	pop	{r7, pc}
 80058e0:	e000ed00 	.word	0xe000ed00
 80058e4:	410fc271 	.word	0x410fc271
 80058e8:	410fc270 	.word	0x410fc270
 80058ec:	e000e400 	.word	0xe000e400
 80058f0:	200000c8 	.word	0x200000c8
 80058f4:	200000cc 	.word	0x200000cc
 80058f8:	e000ed20 	.word	0xe000ed20
 80058fc:	2000003c 	.word	0x2000003c
 8005900:	e000ef34 	.word	0xe000ef34

08005904 <vPortEnterCritical>:
	configASSERT( uxCriticalNesting == 1000UL );
}
/*-----------------------------------------------------------*/

void vPortEnterCritical( void )
{
 8005904:	b480      	push	{r7}
 8005906:	b083      	sub	sp, #12
 8005908:	af00      	add	r7, sp, #0
 800590a:	f04f 0350 	mov.w	r3, #80	; 0x50
 800590e:	f383 8811 	msr	BASEPRI, r3
 8005912:	f3bf 8f6f 	isb	sy
 8005916:	f3bf 8f4f 	dsb	sy
 800591a:	607b      	str	r3, [r7, #4]
	portDISABLE_INTERRUPTS();
	uxCriticalNesting++;
 800591c:	4b0e      	ldr	r3, [pc, #56]	; (8005958 <vPortEnterCritical+0x54>)
 800591e:	681b      	ldr	r3, [r3, #0]
 8005920:	3301      	adds	r3, #1
 8005922:	4a0d      	ldr	r2, [pc, #52]	; (8005958 <vPortEnterCritical+0x54>)
 8005924:	6013      	str	r3, [r2, #0]
	/* This is not the interrupt safe version of the enter critical function so
	assert() if it is being called from an interrupt context.  Only API
	functions that end in "FromISR" can be used in an interrupt.  Only assert if
	the critical nesting count is 1 to protect against recursive calls if the
	assert function also uses a critical section. */
	if( uxCriticalNesting == 1 )
 8005926:	4b0c      	ldr	r3, [pc, #48]	; (8005958 <vPortEnterCritical+0x54>)
 8005928:	681b      	ldr	r3, [r3, #0]
 800592a:	2b01      	cmp	r3, #1
 800592c:	d10e      	bne.n	800594c <vPortEnterCritical+0x48>
	{
		configASSERT( ( portNVIC_INT_CTRL_REG & portVECTACTIVE_MASK ) == 0 );
 800592e:	4b0b      	ldr	r3, [pc, #44]	; (800595c <vPortEnterCritical+0x58>)
 8005930:	681b      	ldr	r3, [r3, #0]
 8005932:	b2db      	uxtb	r3, r3
 8005934:	2b00      	cmp	r3, #0
 8005936:	d009      	beq.n	800594c <vPortEnterCritical+0x48>
 8005938:	f04f 0350 	mov.w	r3, #80	; 0x50
 800593c:	f383 8811 	msr	BASEPRI, r3
 8005940:	f3bf 8f6f 	isb	sy
 8005944:	f3bf 8f4f 	dsb	sy
 8005948:	603b      	str	r3, [r7, #0]
 800594a:	e7fe      	b.n	800594a <vPortEnterCritical+0x46>
	}
}
 800594c:	bf00      	nop
 800594e:	370c      	adds	r7, #12
 8005950:	46bd      	mov	sp, r7
 8005952:	f85d 7b04 	ldr.w	r7, [sp], #4
 8005956:	4770      	bx	lr
 8005958:	2000003c 	.word	0x2000003c
 800595c:	e000ed04 	.word	0xe000ed04

08005960 <vPortExitCritical>:
/*-----------------------------------------------------------*/

void vPortExitCritical( void )
{
 8005960:	b480      	push	{r7}
 8005962:	b083      	sub	sp, #12
 8005964:	af00      	add	r7, sp, #0
	configASSERT( uxCriticalNesting );
 8005966:	4b11      	ldr	r3, [pc, #68]	; (80059ac <vPortExitCritical+0x4c>)
 8005968:	681b      	ldr	r3, [r3, #0]
 800596a:	2b00      	cmp	r3, #0
 800596c:	d109      	bne.n	8005982 <vPortExitCritical+0x22>
 800596e:	f04f 0350 	mov.w	r3, #80	; 0x50
 8005972:	f383 8811 	msr	BASEPRI, r3
 8005976:	f3bf 8f6f 	isb	sy
 800597a:	f3bf 8f4f 	dsb	sy
 800597e:	607b      	str	r3, [r7, #4]
 8005980:	e7fe      	b.n	8005980 <vPortExitCritical+0x20>
	uxCriticalNesting--;
 8005982:	4b0a      	ldr	r3, [pc, #40]	; (80059ac <vPortExitCritical+0x4c>)
 8005984:	681b      	ldr	r3, [r3, #0]
 8005986:	3b01      	subs	r3, #1
 8005988:	4a08      	ldr	r2, [pc, #32]	; (80059ac <vPortExitCritical+0x4c>)
 800598a:	6013      	str	r3, [r2, #0]
	if( uxCriticalNesting == 0 )
 800598c:	4b07      	ldr	r3, [pc, #28]	; (80059ac <vPortExitCritical+0x4c>)
 800598e:	681b      	ldr	r3, [r3, #0]
 8005990:	2b00      	cmp	r3, #0
 8005992:	d104      	bne.n	800599e <vPortExitCritical+0x3e>
 8005994:	2300      	movs	r3, #0
 8005996:	603b      	str	r3, [r7, #0]
}
/*-----------------------------------------------------------*/

portFORCE_INLINE static void vPortSetBASEPRI( uint32_t ulNewMaskValue )
{
	__asm volatile
 8005998:	683b      	ldr	r3, [r7, #0]
 800599a:	f383 8811 	msr	BASEPRI, r3
	{
		portENABLE_INTERRUPTS();
	}
}
 800599e:	bf00      	nop
 80059a0:	370c      	adds	r7, #12
 80059a2:	46bd      	mov	sp, r7
 80059a4:	f85d 7b04 	ldr.w	r7, [sp], #4
 80059a8:	4770      	bx	lr
 80059aa:	bf00      	nop
 80059ac:	2000003c 	.word	0x2000003c

080059b0 <PendSV_Handler>:

void xPortPendSVHandler( void )
{
	/* This is a naked function. */

	__asm volatile
 80059b0:	f3ef 8009 	mrs	r0, PSP
 80059b4:	f3bf 8f6f 	isb	sy
 80059b8:	4b14      	ldr	r3, [pc, #80]	; (8005a0c <pxCurrentTCBConst>)
 80059ba:	681a      	ldr	r2, [r3, #0]
 80059bc:	f01e 0f10 	tst.w	lr, #16
 80059c0:	bf08      	it	eq
 80059c2:	ed20 8a10 	vstmdbeq	r0!, {s16-s31}
 80059c6:	e920 4ff0 	stmdb	r0!, {r4, r5, r6, r7, r8, r9, sl, fp, lr}
 80059ca:	6010      	str	r0, [r2, #0]
 80059cc:	f84d 3d04 	str.w	r3, [sp, #-4]!
 80059d0:	f04f 0050 	mov.w	r0, #80	; 0x50
 80059d4:	f380 8811 	msr	BASEPRI, r0
 80059d8:	f3bf 8f4f 	dsb	sy
 80059dc:	f3bf 8f6f 	isb	sy
 80059e0:	f000 fd02 	bl	80063e8 <vTaskSwitchContext>
 80059e4:	f04f 0000 	mov.w	r0, #0
 80059e8:	f380 8811 	msr	BASEPRI, r0
 80059ec:	bc08      	pop	{r3}
 80059ee:	6819      	ldr	r1, [r3, #0]
 80059f0:	6808      	ldr	r0, [r1, #0]
 80059f2:	e8b0 4ff0 	ldmia.w	r0!, {r4, r5, r6, r7, r8, r9, sl, fp, lr}
 80059f6:	f01e 0f10 	tst.w	lr, #16
 80059fa:	bf08      	it	eq
 80059fc:	ecb0 8a10 	vldmiaeq	r0!, {s16-s31}
 8005a00:	f380 8809 	msr	PSP, r0
 8005a04:	f3bf 8f6f 	isb	sy
 8005a08:	4770      	bx	lr
 8005a0a:	bf00      	nop

08005a0c <pxCurrentTCBConst>:
 8005a0c:	20007de8 	.word	0x20007de8
	"										\n"
	"	.align 2							\n"
	"pxCurrentTCBConst: .word pxCurrentTCB	\n"
	::"i"(configMAX_SYSCALL_INTERRUPT_PRIORITY)
	);
}
 8005a10:	bf00      	nop
 8005a12:	bf00      	nop

08005a14 <xPortSysTickHandler>:
/*-----------------------------------------------------------*/

void xPortSysTickHandler( void )
{
 8005a14:	b580      	push	{r7, lr}
 8005a16:	b084      	sub	sp, #16
 8005a18:	af00      	add	r7, sp, #0
	__asm volatile
 8005a1a:	f3ef 8211 	mrs	r2, BASEPRI
 8005a1e:	f04f 0350 	mov.w	r3, #80	; 0x50
 8005a22:	f383 8811 	msr	BASEPRI, r3
 8005a26:	f3bf 8f6f 	isb	sy
 8005a2a:	f3bf 8f4f 	dsb	sy
 8005a2e:	60fa      	str	r2, [r7, #12]
 8005a30:	60bb      	str	r3, [r7, #8]
	save and then restore the interrupt mask value as its value is already
	known. */
	( void ) portSET_INTERRUPT_MASK_FROM_ISR();
	{
		/* Increment the RTOS tick. */
		if( xTaskIncrementTick() != pdFALSE )
 8005a32:	f000 fc1b 	bl	800626c <xTaskIncrementTick>
 8005a36:	4603      	mov	r3, r0
 8005a38:	2b00      	cmp	r3, #0
 8005a3a:	d003      	beq.n	8005a44 <xPortSysTickHandler+0x30>
		{
			/* A context switch is required.  Context switching is performed in
			the PendSV interrupt.  Pend the PendSV interrupt. */
			portNVIC_INT_CTRL_REG = portNVIC_PENDSVSET_BIT;
 8005a3c:	4b06      	ldr	r3, [pc, #24]	; (8005a58 <xPortSysTickHandler+0x44>)
 8005a3e:	f04f 5280 	mov.w	r2, #268435456	; 0x10000000
 8005a42:	601a      	str	r2, [r3, #0]
 8005a44:	2300      	movs	r3, #0
 8005a46:	607b      	str	r3, [r7, #4]
	__asm volatile
 8005a48:	687b      	ldr	r3, [r7, #4]
 8005a4a:	f383 8811 	msr	BASEPRI, r3
		}
	}
	portCLEAR_INTERRUPT_MASK_FROM_ISR( 0 );
}
 8005a4e:	bf00      	nop
 8005a50:	3710      	adds	r7, #16
 8005a52:	46bd      	mov	sp, r7
 8005a54:	bd80      	pop	{r7, pc}
 8005a56:	bf00      	nop
 8005a58:	e000ed04 	.word	0xe000ed04

08005a5c <vPortSetupTimerInterrupt>:
/*
 * Setup the systick timer to generate the tick interrupts at the required
 * frequency.
 */
__attribute__(( weak )) void vPortSetupTimerInterrupt( void )
{
 8005a5c:	b480      	push	{r7}
 8005a5e:	af00      	add	r7, sp, #0
		ulStoppedTimerCompensation = portMISSED_COUNTS_FACTOR / ( configCPU_CLOCK_HZ / configSYSTICK_CLOCK_HZ );
	}
	#endif /* configUSE_TICKLESS_IDLE */

	/* Configure SysTick to interrupt at the requested rate. */
	portNVIC_SYSTICK_LOAD_REG = ( configSYSTICK_CLOCK_HZ / configTICK_RATE_HZ ) - 1UL;
 8005a60:	4a08      	ldr	r2, [pc, #32]	; (8005a84 <vPortSetupTimerInterrupt+0x28>)
 8005a62:	4b09      	ldr	r3, [pc, #36]	; (8005a88 <vPortSetupTimerInterrupt+0x2c>)
 8005a64:	681b      	ldr	r3, [r3, #0]
 8005a66:	4909      	ldr	r1, [pc, #36]	; (8005a8c <vPortSetupTimerInterrupt+0x30>)
 8005a68:	fba1 1303 	umull	r1, r3, r1, r3
 8005a6c:	099b      	lsrs	r3, r3, #6
 8005a6e:	3b01      	subs	r3, #1
 8005a70:	6013      	str	r3, [r2, #0]
	portNVIC_SYSTICK_CTRL_REG = ( portNVIC_SYSTICK_CLK_BIT | portNVIC_SYSTICK_INT_BIT | portNVIC_SYSTICK_ENABLE_BIT );
 8005a72:	4b07      	ldr	r3, [pc, #28]	; (8005a90 <vPortSetupTimerInterrupt+0x34>)
 8005a74:	2207      	movs	r2, #7
 8005a76:	601a      	str	r2, [r3, #0]
}
 8005a78:	bf00      	nop
 8005a7a:	46bd      	mov	sp, r7
 8005a7c:	f85d 7b04 	ldr.w	r7, [sp], #4
 8005a80:	4770      	bx	lr
 8005a82:	bf00      	nop
 8005a84:	e000e014 	.word	0xe000e014
 8005a88:	20000044 	.word	0x20000044
 8005a8c:	10624dd3 	.word	0x10624dd3
 8005a90:	e000e010 	.word	0xe000e010

08005a94 <vPortEnableVFP>:
/*-----------------------------------------------------------*/

/* This is a naked function. */
static void vPortEnableVFP( void )
{
	__asm volatile
 8005a94:	f8df 000c 	ldr.w	r0, [pc, #12]	; 8005aa4 <vPortEnableVFP+0x10>
 8005a98:	6801      	ldr	r1, [r0, #0]
 8005a9a:	f441 0170 	orr.w	r1, r1, #15728640	; 0xf00000
 8005a9e:	6001      	str	r1, [r0, #0]
 8005aa0:	4770      	bx	lr
		"								\n"
		"	orr r1, r1, #( 0xf << 20 )	\n" /* Enable CP10 and CP11 coprocessors, then save back. */
		"	str r1, [r0]				\n"
		"	bx r14						"
	);
}
 8005aa2:	bf00      	nop
 8005aa4:	e000ed88 	.word	0xe000ed88

08005aa8 <pvPortMalloc>:
static size_t xBlockAllocatedBit = 0;

/*-----------------------------------------------------------*/

void *pvPortMalloc( size_t xWantedSize )
{
 8005aa8:	b580      	push	{r7, lr}
 8005aaa:	b08a      	sub	sp, #40	; 0x28
 8005aac:	af00      	add	r7, sp, #0
 8005aae:	6078      	str	r0, [r7, #4]
BlockLink_t *pxBlock, *pxPreviousBlock, *pxNewBlockLink;
void *pvReturn = NULL;
 8005ab0:	2300      	movs	r3, #0
 8005ab2:	61fb      	str	r3, [r7, #28]

	vTaskSuspendAll();
 8005ab4:	f000 fb38 	bl	8006128 <vTaskSuspendAll>
	{
		/* If this is the first call to malloc then the heap will require
		initialisation to setup the list of free blocks. */
		if( pxEnd == NULL )
 8005ab8:	4b57      	ldr	r3, [pc, #348]	; (8005c18 <pvPortMalloc+0x170>)
 8005aba:	681b      	ldr	r3, [r3, #0]
 8005abc:	2b00      	cmp	r3, #0
 8005abe:	d101      	bne.n	8005ac4 <pvPortMalloc+0x1c>
		{
			prvHeapInit();
 8005ac0:	f000 f90c 	bl	8005cdc <prvHeapInit>

		/* Check the requested block size is not so large that the top bit is
		set.  The top bit of the block size member of the BlockLink_t structure
		is used to determine who owns the block - the application or the
		kernel, so it must be free. */
		if( ( xWantedSize & xBlockAllocatedBit ) == 0 )
 8005ac4:	4b55      	ldr	r3, [pc, #340]	; (8005c1c <pvPortMalloc+0x174>)
 8005ac6:	681a      	ldr	r2, [r3, #0]
 8005ac8:	687b      	ldr	r3, [r7, #4]
 8005aca:	4013      	ands	r3, r2
 8005acc:	2b00      	cmp	r3, #0
 8005ace:	f040 808c 	bne.w	8005bea <pvPortMalloc+0x142>
		{
			/* The wanted size is increased so it can contain a BlockLink_t
			structure in addition to the requested amount of bytes. */
			if( xWantedSize > 0 )
 8005ad2:	687b      	ldr	r3, [r7, #4]
 8005ad4:	2b00      	cmp	r3, #0
 8005ad6:	d01c      	beq.n	8005b12 <pvPortMalloc+0x6a>
			{
				xWantedSize += xHeapStructSize;
 8005ad8:	2208      	movs	r2, #8
 8005ada:	687b      	ldr	r3, [r7, #4]
 8005adc:	4413      	add	r3, r2
 8005ade:	607b      	str	r3, [r7, #4]

				/* Ensure that blocks are always aligned to the required number
				of bytes. */
				if( ( xWantedSize & portBYTE_ALIGNMENT_MASK ) != 0x00 )
 8005ae0:	687b      	ldr	r3, [r7, #4]
 8005ae2:	f003 0307 	and.w	r3, r3, #7
 8005ae6:	2b00      	cmp	r3, #0
 8005ae8:	d013      	beq.n	8005b12 <pvPortMalloc+0x6a>
				{
					/* Byte alignment required. */
					xWantedSize += ( portBYTE_ALIGNMENT - ( xWantedSize & portBYTE_ALIGNMENT_MASK ) );
 8005aea:	687b      	ldr	r3, [r7, #4]
 8005aec:	f023 0307 	bic.w	r3, r3, #7
 8005af0:	3308      	adds	r3, #8
 8005af2:	607b      	str	r3, [r7, #4]
					configASSERT( ( xWantedSize & portBYTE_ALIGNMENT_MASK ) == 0 );
 8005af4:	687b      	ldr	r3, [r7, #4]
 8005af6:	f003 0307 	and.w	r3, r3, #7
 8005afa:	2b00      	cmp	r3, #0
 8005afc:	d009      	beq.n	8005b12 <pvPortMalloc+0x6a>
	__asm volatile
 8005afe:	f04f 0350 	mov.w	r3, #80	; 0x50
 8005b02:	f383 8811 	msr	BASEPRI, r3
 8005b06:	f3bf 8f6f 	isb	sy
 8005b0a:	f3bf 8f4f 	dsb	sy
 8005b0e:	617b      	str	r3, [r7, #20]
 8005b10:	e7fe      	b.n	8005b10 <pvPortMalloc+0x68>
			else
			{
				mtCOVERAGE_TEST_MARKER();
			}

			if( ( xWantedSize > 0 ) && ( xWantedSize <= xFreeBytesRemaining ) )
 8005b12:	687b      	ldr	r3, [r7, #4]
 8005b14:	2b00      	cmp	r3, #0
 8005b16:	d068      	beq.n	8005bea <pvPortMalloc+0x142>
 8005b18:	4b41      	ldr	r3, [pc, #260]	; (8005c20 <pvPortMalloc+0x178>)
 8005b1a:	681b      	ldr	r3, [r3, #0]
 8005b1c:	687a      	ldr	r2, [r7, #4]
 8005b1e:	429a      	cmp	r2, r3
 8005b20:	d863      	bhi.n	8005bea <pvPortMalloc+0x142>
			{
				/* Traverse the list from the start	(lowest address) block until
				one	of adequate size is found. */
				pxPreviousBlock = &xStart;
 8005b22:	4b40      	ldr	r3, [pc, #256]	; (8005c24 <pvPortMalloc+0x17c>)
 8005b24:	623b      	str	r3, [r7, #32]
				pxBlock = xStart.pxNextFreeBlock;
 8005b26:	4b3f      	ldr	r3, [pc, #252]	; (8005c24 <pvPortMalloc+0x17c>)
 8005b28:	681b      	ldr	r3, [r3, #0]
 8005b2a:	627b      	str	r3, [r7, #36]	; 0x24
				while( ( pxBlock->xBlockSize < xWantedSize ) && ( pxBlock->pxNextFreeBlock != NULL ) )
 8005b2c:	e004      	b.n	8005b38 <pvPortMalloc+0x90>
				{
					pxPreviousBlock = pxBlock;
 8005b2e:	6a7b      	ldr	r3, [r7, #36]	; 0x24
 8005b30:	623b      	str	r3, [r7, #32]
					pxBlock = pxBlock->pxNextFreeBlock;
 8005b32:	6a7b      	ldr	r3, [r7, #36]	; 0x24
 8005b34:	681b      	ldr	r3, [r3, #0]
 8005b36:	627b      	str	r3, [r7, #36]	; 0x24
				while( ( pxBlock->xBlockSize < xWantedSize ) && ( pxBlock->pxNextFreeBlock != NULL ) )
 8005b38:	6a7b      	ldr	r3, [r7, #36]	; 0x24
 8005b3a:	685a      	ldr	r2, [r3, #4]
 8005b3c:	687b      	ldr	r3, [r7, #4]
 8005b3e:	429a      	cmp	r2, r3
 8005b40:	d203      	bcs.n	8005b4a <pvPortMalloc+0xa2>
 8005b42:	6a7b      	ldr	r3, [r7, #36]	; 0x24
 8005b44:	681b      	ldr	r3, [r3, #0]
 8005b46:	2b00      	cmp	r3, #0
 8005b48:	d1f1      	bne.n	8005b2e <pvPortMalloc+0x86>
				}

				/* If the end marker was reached then a block of adequate size
				was	not found. */
				if( pxBlock != pxEnd )
 8005b4a:	4b33      	ldr	r3, [pc, #204]	; (8005c18 <pvPortMalloc+0x170>)
 8005b4c:	681b      	ldr	r3, [r3, #0]
 8005b4e:	6a7a      	ldr	r2, [r7, #36]	; 0x24
 8005b50:	429a      	cmp	r2, r3
 8005b52:	d04a      	beq.n	8005bea <pvPortMalloc+0x142>
				{
					/* Return the memory space pointed to - jumping over the
					BlockLink_t structure at its start. */
					pvReturn = ( void * ) ( ( ( uint8_t * ) pxPreviousBlock->pxNextFreeBlock ) + xHeapStructSize );
 8005b54:	6a3b      	ldr	r3, [r7, #32]
 8005b56:	681b      	ldr	r3, [r3, #0]
 8005b58:	2208      	movs	r2, #8
 8005b5a:	4413      	add	r3, r2
 8005b5c:	61fb      	str	r3, [r7, #28]

					/* This block is being returned for use so must be taken out
					of the list of free blocks. */
					pxPreviousBlock->pxNextFreeBlock = pxBlock->pxNextFreeBlock;
 8005b5e:	6a7b      	ldr	r3, [r7, #36]	; 0x24
 8005b60:	681a      	ldr	r2, [r3, #0]
 8005b62:	6a3b      	ldr	r3, [r7, #32]
 8005b64:	601a      	str	r2, [r3, #0]

					/* If the block is larger than required it can be split into
					two. */
					if( ( pxBlock->xBlockSize - xWantedSize ) > heapMINIMUM_BLOCK_SIZE )
 8005b66:	6a7b      	ldr	r3, [r7, #36]	; 0x24
 8005b68:	685a      	ldr	r2, [r3, #4]
 8005b6a:	687b      	ldr	r3, [r7, #4]
 8005b6c:	1ad2      	subs	r2, r2, r3
 8005b6e:	2308      	movs	r3, #8
 8005b70:	005b      	lsls	r3, r3, #1
 8005b72:	429a      	cmp	r2, r3
 8005b74:	d91e      	bls.n	8005bb4 <pvPortMalloc+0x10c>
					{
						/* This block is to be split into two.  Create a new
						block following the number of bytes requested. The void
						cast is used to prevent byte alignment warnings from the
						compiler. */
						pxNewBlockLink = ( void * ) ( ( ( uint8_t * ) pxBlock ) + xWantedSize );
 8005b76:	6a7a      	ldr	r2, [r7, #36]	; 0x24
 8005b78:	687b      	ldr	r3, [r7, #4]
 8005b7a:	4413      	add	r3, r2
 8005b7c:	61bb      	str	r3, [r7, #24]
						configASSERT( ( ( ( size_t ) pxNewBlockLink ) & portBYTE_ALIGNMENT_MASK ) == 0 );
 8005b7e:	69bb      	ldr	r3, [r7, #24]
 8005b80:	f003 0307 	and.w	r3, r3, #7
 8005b84:	2b00      	cmp	r3, #0
 8005b86:	d009      	beq.n	8005b9c <pvPortMalloc+0xf4>
 8005b88:	f04f 0350 	mov.w	r3, #80	; 0x50
 8005b8c:	f383 8811 	msr	BASEPRI, r3
 8005b90:	f3bf 8f6f 	isb	sy
 8005b94:	f3bf 8f4f 	dsb	sy
 8005b98:	613b      	str	r3, [r7, #16]
 8005b9a:	e7fe      	b.n	8005b9a <pvPortMalloc+0xf2>

						/* Calculate the sizes of two blocks split from the
						single block. */
						pxNewBlockLink->xBlockSize = pxBlock->xBlockSize - xWantedSize;
 8005b9c:	6a7b      	ldr	r3, [r7, #36]	; 0x24
 8005b9e:	685a      	ldr	r2, [r3, #4]
 8005ba0:	687b      	ldr	r3, [r7, #4]
 8005ba2:	1ad2      	subs	r2, r2, r3
 8005ba4:	69bb      	ldr	r3, [r7, #24]
 8005ba6:	605a      	str	r2, [r3, #4]
						pxBlock->xBlockSize = xWantedSize;
 8005ba8:	6a7b      	ldr	r3, [r7, #36]	; 0x24
 8005baa:	687a      	ldr	r2, [r7, #4]
 8005bac:	605a      	str	r2, [r3, #4]

						/* Insert the new block into the list of free blocks. */
						prvInsertBlockIntoFreeList( pxNewBlockLink );
 8005bae:	69b8      	ldr	r0, [r7, #24]
 8005bb0:	f000 f8f6 	bl	8005da0 <prvInsertBlockIntoFreeList>
					else
					{
						mtCOVERAGE_TEST_MARKER();
					}

					xFreeBytesRemaining -= pxBlock->xBlockSize;
 8005bb4:	4b1a      	ldr	r3, [pc, #104]	; (8005c20 <pvPortMalloc+0x178>)
 8005bb6:	681a      	ldr	r2, [r3, #0]
 8005bb8:	6a7b      	ldr	r3, [r7, #36]	; 0x24
 8005bba:	685b      	ldr	r3, [r3, #4]
 8005bbc:	1ad3      	subs	r3, r2, r3
 8005bbe:	4a18      	ldr	r2, [pc, #96]	; (8005c20 <pvPortMalloc+0x178>)
 8005bc0:	6013      	str	r3, [r2, #0]

					if( xFreeBytesRemaining < xMinimumEverFreeBytesRemaining )
 8005bc2:	4b17      	ldr	r3, [pc, #92]	; (8005c20 <pvPortMalloc+0x178>)
 8005bc4:	681a      	ldr	r2, [r3, #0]
 8005bc6:	4b18      	ldr	r3, [pc, #96]	; (8005c28 <pvPortMalloc+0x180>)
 8005bc8:	681b      	ldr	r3, [r3, #0]
 8005bca:	429a      	cmp	r2, r3
 8005bcc:	d203      	bcs.n	8005bd6 <pvPortMalloc+0x12e>
					{
						xMinimumEverFreeBytesRemaining = xFreeBytesRemaining;
 8005bce:	4b14      	ldr	r3, [pc, #80]	; (8005c20 <pvPortMalloc+0x178>)
 8005bd0:	681b      	ldr	r3, [r3, #0]
 8005bd2:	4a15      	ldr	r2, [pc, #84]	; (8005c28 <pvPortMalloc+0x180>)
 8005bd4:	6013      	str	r3, [r2, #0]
						mtCOVERAGE_TEST_MARKER();
					}

					/* The block is being returned - it is allocated and owned
					by the application and has no "next" block. */
					pxBlock->xBlockSize |= xBlockAllocatedBit;
 8005bd6:	6a7b      	ldr	r3, [r7, #36]	; 0x24
 8005bd8:	685a      	ldr	r2, [r3, #4]
 8005bda:	4b10      	ldr	r3, [pc, #64]	; (8005c1c <pvPortMalloc+0x174>)
 8005bdc:	681b      	ldr	r3, [r3, #0]
 8005bde:	431a      	orrs	r2, r3
 8005be0:	6a7b      	ldr	r3, [r7, #36]	; 0x24
 8005be2:	605a      	str	r2, [r3, #4]
					pxBlock->pxNextFreeBlock = NULL;
 8005be4:	6a7b      	ldr	r3, [r7, #36]	; 0x24
 8005be6:	2200      	movs	r2, #0
 8005be8:	601a      	str	r2, [r3, #0]
			mtCOVERAGE_TEST_MARKER();
		}

		traceMALLOC( pvReturn, xWantedSize );
	}
	( void ) xTaskResumeAll();
 8005bea:	f000 faab 	bl	8006144 <xTaskResumeAll>
			mtCOVERAGE_TEST_MARKER();
		}
	}
	#endif

	configASSERT( ( ( ( uint32_t ) pvReturn ) & portBYTE_ALIGNMENT_MASK ) == 0 );
 8005bee:	69fb      	ldr	r3, [r7, #28]
 8005bf0:	f003 0307 	and.w	r3, r3, #7
 8005bf4:	2b00      	cmp	r3, #0
 8005bf6:	d009      	beq.n	8005c0c <pvPortMalloc+0x164>
 8005bf8:	f04f 0350 	mov.w	r3, #80	; 0x50
 8005bfc:	f383 8811 	msr	BASEPRI, r3
 8005c00:	f3bf 8f6f 	isb	sy
 8005c04:	f3bf 8f4f 	dsb	sy
 8005c08:	60fb      	str	r3, [r7, #12]
 8005c0a:	e7fe      	b.n	8005c0a <pvPortMalloc+0x162>
	return pvReturn;
 8005c0c:	69fb      	ldr	r3, [r7, #28]
}
 8005c0e:	4618      	mov	r0, r3
 8005c10:	3728      	adds	r7, #40	; 0x28
 8005c12:	46bd      	mov	sp, r7
 8005c14:	bd80      	pop	{r7, pc}
 8005c16:	bf00      	nop
 8005c18:	20007dd8 	.word	0x20007dd8
 8005c1c:	20007de4 	.word	0x20007de4
 8005c20:	20007ddc 	.word	0x20007ddc
 8005c24:	20007dd0 	.word	0x20007dd0
 8005c28:	20007de0 	.word	0x20007de0

08005c2c <vPortFree>:
/*-----------------------------------------------------------*/

void vPortFree( void *pv )
{
 8005c2c:	b580      	push	{r7, lr}
 8005c2e:	b086      	sub	sp, #24
 8005c30:	af00      	add	r7, sp, #0
 8005c32:	6078      	str	r0, [r7, #4]
uint8_t *puc = ( uint8_t * ) pv;
 8005c34:	687b      	ldr	r3, [r7, #4]
 8005c36:	617b      	str	r3, [r7, #20]
BlockLink_t *pxLink;

	if( pv != NULL )
 8005c38:	687b      	ldr	r3, [r7, #4]
 8005c3a:	2b00      	cmp	r3, #0
 8005c3c:	d046      	beq.n	8005ccc <vPortFree+0xa0>
	{
		/* The memory being freed will have an BlockLink_t structure immediately
		before it. */
		puc -= xHeapStructSize;
 8005c3e:	2308      	movs	r3, #8
 8005c40:	425b      	negs	r3, r3
 8005c42:	697a      	ldr	r2, [r7, #20]
 8005c44:	4413      	add	r3, r2
 8005c46:	617b      	str	r3, [r7, #20]

		/* This casting is to keep the compiler from issuing warnings. */
		pxLink = ( void * ) puc;
 8005c48:	697b      	ldr	r3, [r7, #20]
 8005c4a:	613b      	str	r3, [r7, #16]

		/* Check the block is actually allocated. */
		configASSERT( ( pxLink->xBlockSize & xBlockAllocatedBit ) != 0 );
 8005c4c:	693b      	ldr	r3, [r7, #16]
 8005c4e:	685a      	ldr	r2, [r3, #4]
 8005c50:	4b20      	ldr	r3, [pc, #128]	; (8005cd4 <vPortFree+0xa8>)
 8005c52:	681b      	ldr	r3, [r3, #0]
 8005c54:	4013      	ands	r3, r2
 8005c56:	2b00      	cmp	r3, #0
 8005c58:	d109      	bne.n	8005c6e <vPortFree+0x42>
 8005c5a:	f04f 0350 	mov.w	r3, #80	; 0x50
 8005c5e:	f383 8811 	msr	BASEPRI, r3
 8005c62:	f3bf 8f6f 	isb	sy
 8005c66:	f3bf 8f4f 	dsb	sy
 8005c6a:	60fb      	str	r3, [r7, #12]
 8005c6c:	e7fe      	b.n	8005c6c <vPortFree+0x40>
		configASSERT( pxLink->pxNextFreeBlock == NULL );
 8005c6e:	693b      	ldr	r3, [r7, #16]
 8005c70:	681b      	ldr	r3, [r3, #0]
 8005c72:	2b00      	cmp	r3, #0
 8005c74:	d009      	beq.n	8005c8a <vPortFree+0x5e>
 8005c76:	f04f 0350 	mov.w	r3, #80	; 0x50
 8005c7a:	f383 8811 	msr	BASEPRI, r3
 8005c7e:	f3bf 8f6f 	isb	sy
 8005c82:	f3bf 8f4f 	dsb	sy
 8005c86:	60bb      	str	r3, [r7, #8]
 8005c88:	e7fe      	b.n	8005c88 <vPortFree+0x5c>

		if( ( pxLink->xBlockSize & xBlockAllocatedBit ) != 0 )
 8005c8a:	693b      	ldr	r3, [r7, #16]
 8005c8c:	685a      	ldr	r2, [r3, #4]
 8005c8e:	4b11      	ldr	r3, [pc, #68]	; (8005cd4 <vPortFree+0xa8>)
 8005c90:	681b      	ldr	r3, [r3, #0]
 8005c92:	4013      	ands	r3, r2
 8005c94:	2b00      	cmp	r3, #0
 8005c96:	d019      	beq.n	8005ccc <vPortFree+0xa0>
		{
			if( pxLink->pxNextFreeBlock == NULL )
 8005c98:	693b      	ldr	r3, [r7, #16]
 8005c9a:	681b      	ldr	r3, [r3, #0]
 8005c9c:	2b00      	cmp	r3, #0
 8005c9e:	d115      	bne.n	8005ccc <vPortFree+0xa0>
			{
				/* The block is being returned to the heap - it is no longer
				allocated. */
				pxLink->xBlockSize &= ~xBlockAllocatedBit;
 8005ca0:	693b      	ldr	r3, [r7, #16]
 8005ca2:	685a      	ldr	r2, [r3, #4]
 8005ca4:	4b0b      	ldr	r3, [pc, #44]	; (8005cd4 <vPortFree+0xa8>)
 8005ca6:	681b      	ldr	r3, [r3, #0]
 8005ca8:	43db      	mvns	r3, r3
 8005caa:	401a      	ands	r2, r3
 8005cac:	693b      	ldr	r3, [r7, #16]
 8005cae:	605a      	str	r2, [r3, #4]

				vTaskSuspendAll();
 8005cb0:	f000 fa3a 	bl	8006128 <vTaskSuspendAll>
				{
					/* Add this block to the list of free blocks. */
					xFreeBytesRemaining += pxLink->xBlockSize;
 8005cb4:	693b      	ldr	r3, [r7, #16]
 8005cb6:	685a      	ldr	r2, [r3, #4]
 8005cb8:	4b07      	ldr	r3, [pc, #28]	; (8005cd8 <vPortFree+0xac>)
 8005cba:	681b      	ldr	r3, [r3, #0]
 8005cbc:	4413      	add	r3, r2
 8005cbe:	4a06      	ldr	r2, [pc, #24]	; (8005cd8 <vPortFree+0xac>)
 8005cc0:	6013      	str	r3, [r2, #0]
					traceFREE( pv, pxLink->xBlockSize );
					prvInsertBlockIntoFreeList( ( ( BlockLink_t * ) pxLink ) );
 8005cc2:	6938      	ldr	r0, [r7, #16]
 8005cc4:	f000 f86c 	bl	8005da0 <prvInsertBlockIntoFreeList>
				}
				( void ) xTaskResumeAll();
 8005cc8:	f000 fa3c 	bl	8006144 <xTaskResumeAll>
		else
		{
			mtCOVERAGE_TEST_MARKER();
		}
	}
}
 8005ccc:	bf00      	nop
 8005cce:	3718      	adds	r7, #24
 8005cd0:	46bd      	mov	sp, r7
 8005cd2:	bd80      	pop	{r7, pc}
 8005cd4:	20007de4 	.word	0x20007de4
 8005cd8:	20007ddc 	.word	0x20007ddc

08005cdc <prvHeapInit>:
	/* This just exists to keep the linker quiet. */
}
/*-----------------------------------------------------------*/

static void prvHeapInit( void )
{
 8005cdc:	b480      	push	{r7}
 8005cde:	b085      	sub	sp, #20
 8005ce0:	af00      	add	r7, sp, #0
BlockLink_t *pxFirstFreeBlock;
uint8_t *pucAlignedHeap;
size_t uxAddress;
size_t xTotalHeapSize = configTOTAL_HEAP_SIZE;
 8005ce2:	f44f 43fa 	mov.w	r3, #32000	; 0x7d00
 8005ce6:	60bb      	str	r3, [r7, #8]

	/* Ensure the heap starts on a correctly aligned boundary. */
	uxAddress = ( size_t ) ucHeap;
 8005ce8:	4b27      	ldr	r3, [pc, #156]	; (8005d88 <prvHeapInit+0xac>)
 8005cea:	60fb      	str	r3, [r7, #12]

	if( ( uxAddress & portBYTE_ALIGNMENT_MASK ) != 0 )
 8005cec:	68fb      	ldr	r3, [r7, #12]
 8005cee:	f003 0307 	and.w	r3, r3, #7
 8005cf2:	2b00      	cmp	r3, #0
 8005cf4:	d00c      	beq.n	8005d10 <prvHeapInit+0x34>
	{
		uxAddress += ( portBYTE_ALIGNMENT - 1 );
 8005cf6:	68fb      	ldr	r3, [r7, #12]
 8005cf8:	3307      	adds	r3, #7
 8005cfa:	60fb      	str	r3, [r7, #12]
		uxAddress &= ~( ( size_t ) portBYTE_ALIGNMENT_MASK );
 8005cfc:	68fb      	ldr	r3, [r7, #12]
 8005cfe:	f023 0307 	bic.w	r3, r3, #7
 8005d02:	60fb      	str	r3, [r7, #12]
		xTotalHeapSize -= uxAddress - ( size_t ) ucHeap;
 8005d04:	68ba      	ldr	r2, [r7, #8]
 8005d06:	68fb      	ldr	r3, [r7, #12]
 8005d08:	1ad3      	subs	r3, r2, r3
 8005d0a:	4a1f      	ldr	r2, [pc, #124]	; (8005d88 <prvHeapInit+0xac>)
 8005d0c:	4413      	add	r3, r2
 8005d0e:	60bb      	str	r3, [r7, #8]
	}

	pucAlignedHeap = ( uint8_t * ) uxAddress;
 8005d10:	68fb      	ldr	r3, [r7, #12]
 8005d12:	607b      	str	r3, [r7, #4]

	/* xStart is used to hold a pointer to the first item in the list of free
	blocks.  The void cast is used to prevent compiler warnings. */
	xStart.pxNextFreeBlock = ( void * ) pucAlignedHeap;
 8005d14:	4a1d      	ldr	r2, [pc, #116]	; (8005d8c <prvHeapInit+0xb0>)
 8005d16:	687b      	ldr	r3, [r7, #4]
 8005d18:	6013      	str	r3, [r2, #0]
	xStart.xBlockSize = ( size_t ) 0;
 8005d1a:	4b1c      	ldr	r3, [pc, #112]	; (8005d8c <prvHeapInit+0xb0>)
 8005d1c:	2200      	movs	r2, #0
 8005d1e:	605a      	str	r2, [r3, #4]

	/* pxEnd is used to mark the end of the list of free blocks and is inserted
	at the end of the heap space. */
	uxAddress = ( ( size_t ) pucAlignedHeap ) + xTotalHeapSize;
 8005d20:	687a      	ldr	r2, [r7, #4]
 8005d22:	68bb      	ldr	r3, [r7, #8]
 8005d24:	4413      	add	r3, r2
 8005d26:	60fb      	str	r3, [r7, #12]
	uxAddress -= xHeapStructSize;
 8005d28:	2208      	movs	r2, #8
 8005d2a:	68fb      	ldr	r3, [r7, #12]
 8005d2c:	1a9b      	subs	r3, r3, r2
 8005d2e:	60fb      	str	r3, [r7, #12]
	uxAddress &= ~( ( size_t ) portBYTE_ALIGNMENT_MASK );
 8005d30:	68fb      	ldr	r3, [r7, #12]
 8005d32:	f023 0307 	bic.w	r3, r3, #7
 8005d36:	60fb      	str	r3, [r7, #12]
	pxEnd = ( void * ) uxAddress;
 8005d38:	68fb      	ldr	r3, [r7, #12]
 8005d3a:	4a15      	ldr	r2, [pc, #84]	; (8005d90 <prvHeapInit+0xb4>)
 8005d3c:	6013      	str	r3, [r2, #0]
	pxEnd->xBlockSize = 0;
 8005d3e:	4b14      	ldr	r3, [pc, #80]	; (8005d90 <prvHeapInit+0xb4>)
 8005d40:	681b      	ldr	r3, [r3, #0]
 8005d42:	2200      	movs	r2, #0
 8005d44:	605a      	str	r2, [r3, #4]
	pxEnd->pxNextFreeBlock = NULL;
 8005d46:	4b12      	ldr	r3, [pc, #72]	; (8005d90 <prvHeapInit+0xb4>)
 8005d48:	681b      	ldr	r3, [r3, #0]
 8005d4a:	2200      	movs	r2, #0
 8005d4c:	601a      	str	r2, [r3, #0]

	/* To start with there is a single free block that is sized to take up the
	entire heap space, minus the space taken by pxEnd. */
	pxFirstFreeBlock = ( void * ) pucAlignedHeap;
 8005d4e:	687b      	ldr	r3, [r7, #4]
 8005d50:	603b      	str	r3, [r7, #0]
	pxFirstFreeBlock->xBlockSize = uxAddress - ( size_t ) pxFirstFreeBlock;
 8005d52:	683b      	ldr	r3, [r7, #0]
 8005d54:	68fa      	ldr	r2, [r7, #12]
 8005d56:	1ad2      	subs	r2, r2, r3
 8005d58:	683b      	ldr	r3, [r7, #0]
 8005d5a:	605a      	str	r2, [r3, #4]
	pxFirstFreeBlock->pxNextFreeBlock = pxEnd;
 8005d5c:	4b0c      	ldr	r3, [pc, #48]	; (8005d90 <prvHeapInit+0xb4>)
 8005d5e:	681a      	ldr	r2, [r3, #0]
 8005d60:	683b      	ldr	r3, [r7, #0]
 8005d62:	601a      	str	r2, [r3, #0]

	/* Only one block exists - and it covers the entire usable heap space. */
	xMinimumEverFreeBytesRemaining = pxFirstFreeBlock->xBlockSize;
 8005d64:	683b      	ldr	r3, [r7, #0]
 8005d66:	685b      	ldr	r3, [r3, #4]
 8005d68:	4a0a      	ldr	r2, [pc, #40]	; (8005d94 <prvHeapInit+0xb8>)
 8005d6a:	6013      	str	r3, [r2, #0]
	xFreeBytesRemaining = pxFirstFreeBlock->xBlockSize;
 8005d6c:	683b      	ldr	r3, [r7, #0]
 8005d6e:	685b      	ldr	r3, [r3, #4]
 8005d70:	4a09      	ldr	r2, [pc, #36]	; (8005d98 <prvHeapInit+0xbc>)
 8005d72:	6013      	str	r3, [r2, #0]

	/* Work out the position of the top bit in a size_t variable. */
	xBlockAllocatedBit = ( ( size_t ) 1 ) << ( ( sizeof( size_t ) * heapBITS_PER_BYTE ) - 1 );
 8005d74:	4b09      	ldr	r3, [pc, #36]	; (8005d9c <prvHeapInit+0xc0>)
 8005d76:	f04f 4200 	mov.w	r2, #2147483648	; 0x80000000
 8005d7a:	601a      	str	r2, [r3, #0]
}
 8005d7c:	bf00      	nop
 8005d7e:	3714      	adds	r7, #20
 8005d80:	46bd      	mov	sp, r7
 8005d82:	f85d 7b04 	ldr.w	r7, [sp], #4
 8005d86:	4770      	bx	lr
 8005d88:	200000d0 	.word	0x200000d0
 8005d8c:	20007dd0 	.word	0x20007dd0
 8005d90:	20007dd8 	.word	0x20007dd8
 8005d94:	20007de0 	.word	0x20007de0
 8005d98:	20007ddc 	.word	0x20007ddc
 8005d9c:	20007de4 	.word	0x20007de4

08005da0 <prvInsertBlockIntoFreeList>:
/*-----------------------------------------------------------*/

static void prvInsertBlockIntoFreeList( BlockLink_t *pxBlockToInsert )
{
 8005da0:	b480      	push	{r7}
 8005da2:	b085      	sub	sp, #20
 8005da4:	af00      	add	r7, sp, #0
 8005da6:	6078      	str	r0, [r7, #4]
BlockLink_t *pxIterator;
uint8_t *puc;

	/* Iterate through the list until a block is found that has a higher address
	than the block being inserted. */
	for( pxIterator = &xStart; pxIterator->pxNextFreeBlock < pxBlockToInsert; pxIterator = pxIterator->pxNextFreeBlock )
 8005da8:	4b28      	ldr	r3, [pc, #160]	; (8005e4c <prvInsertBlockIntoFreeList+0xac>)
 8005daa:	60fb      	str	r3, [r7, #12]
 8005dac:	e002      	b.n	8005db4 <prvInsertBlockIntoFreeList+0x14>
 8005dae:	68fb      	ldr	r3, [r7, #12]
 8005db0:	681b      	ldr	r3, [r3, #0]
 8005db2:	60fb      	str	r3, [r7, #12]
 8005db4:	68fb      	ldr	r3, [r7, #12]
 8005db6:	681a      	ldr	r2, [r3, #0]
 8005db8:	687b      	ldr	r3, [r7, #4]
 8005dba:	429a      	cmp	r2, r3
 8005dbc:	d3f7      	bcc.n	8005dae <prvInsertBlockIntoFreeList+0xe>
		/* Nothing to do here, just iterate to the right position. */
	}

	/* Do the block being inserted, and the block it is being inserted after
	make a contiguous block of memory? */
	puc = ( uint8_t * ) pxIterator;
 8005dbe:	68fb      	ldr	r3, [r7, #12]
 8005dc0:	60bb      	str	r3, [r7, #8]
	if( ( puc + pxIterator->xBlockSize ) == ( uint8_t * ) pxBlockToInsert )
 8005dc2:	68fb      	ldr	r3, [r7, #12]
 8005dc4:	685b      	ldr	r3, [r3, #4]
 8005dc6:	68ba      	ldr	r2, [r7, #8]
 8005dc8:	441a      	add	r2, r3
 8005dca:	687b      	ldr	r3, [r7, #4]
 8005dcc:	429a      	cmp	r2, r3
 8005dce:	d108      	bne.n	8005de2 <prvInsertBlockIntoFreeList+0x42>
	{
		pxIterator->xBlockSize += pxBlockToInsert->xBlockSize;
 8005dd0:	68fb      	ldr	r3, [r7, #12]
 8005dd2:	685a      	ldr	r2, [r3, #4]
 8005dd4:	687b      	ldr	r3, [r7, #4]
 8005dd6:	685b      	ldr	r3, [r3, #4]
 8005dd8:	441a      	add	r2, r3
 8005dda:	68fb      	ldr	r3, [r7, #12]
 8005ddc:	605a      	str	r2, [r3, #4]
		pxBlockToInsert = pxIterator;
 8005dde:	68fb      	ldr	r3, [r7, #12]
 8005de0:	607b      	str	r3, [r7, #4]
		mtCOVERAGE_TEST_MARKER();
	}

	/* Do the block being inserted, and the block it is being inserted before
	make a contiguous block of memory? */
	puc = ( uint8_t * ) pxBlockToInsert;
 8005de2:	687b      	ldr	r3, [r7, #4]
 8005de4:	60bb      	str	r3, [r7, #8]
	if( ( puc + pxBlockToInsert->xBlockSize ) == ( uint8_t * ) pxIterator->pxNextFreeBlock )
 8005de6:	687b      	ldr	r3, [r7, #4]
 8005de8:	685b      	ldr	r3, [r3, #4]
 8005dea:	68ba      	ldr	r2, [r7, #8]
 8005dec:	441a      	add	r2, r3
 8005dee:	68fb      	ldr	r3, [r7, #12]
 8005df0:	681b      	ldr	r3, [r3, #0]
 8005df2:	429a      	cmp	r2, r3
 8005df4:	d118      	bne.n	8005e28 <prvInsertBlockIntoFreeList+0x88>
	{
		if( pxIterator->pxNextFreeBlock != pxEnd )
 8005df6:	68fb      	ldr	r3, [r7, #12]
 8005df8:	681a      	ldr	r2, [r3, #0]
 8005dfa:	4b15      	ldr	r3, [pc, #84]	; (8005e50 <prvInsertBlockIntoFreeList+0xb0>)
 8005dfc:	681b      	ldr	r3, [r3, #0]
 8005dfe:	429a      	cmp	r2, r3
 8005e00:	d00d      	beq.n	8005e1e <prvInsertBlockIntoFreeList+0x7e>
		{
			/* Form one big block from the two blocks. */
			pxBlockToInsert->xBlockSize += pxIterator->pxNextFreeBlock->xBlockSize;
 8005e02:	687b      	ldr	r3, [r7, #4]
 8005e04:	685a      	ldr	r2, [r3, #4]
 8005e06:	68fb      	ldr	r3, [r7, #12]
 8005e08:	681b      	ldr	r3, [r3, #0]
 8005e0a:	685b      	ldr	r3, [r3, #4]
 8005e0c:	441a      	add	r2, r3
 8005e0e:	687b      	ldr	r3, [r7, #4]
 8005e10:	605a      	str	r2, [r3, #4]
			pxBlockToInsert->pxNextFreeBlock = pxIterator->pxNextFreeBlock->pxNextFreeBlock;
 8005e12:	68fb      	ldr	r3, [r7, #12]
 8005e14:	681b      	ldr	r3, [r3, #0]
 8005e16:	681a      	ldr	r2, [r3, #0]
 8005e18:	687b      	ldr	r3, [r7, #4]
 8005e1a:	601a      	str	r2, [r3, #0]
 8005e1c:	e008      	b.n	8005e30 <prvInsertBlockIntoFreeList+0x90>
		}
		else
		{
			pxBlockToInsert->pxNextFreeBlock = pxEnd;
 8005e1e:	4b0c      	ldr	r3, [pc, #48]	; (8005e50 <prvInsertBlockIntoFreeList+0xb0>)
 8005e20:	681a      	ldr	r2, [r3, #0]
 8005e22:	687b      	ldr	r3, [r7, #4]
 8005e24:	601a      	str	r2, [r3, #0]
 8005e26:	e003      	b.n	8005e30 <prvInsertBlockIntoFreeList+0x90>
		}
	}
	else
	{
		pxBlockToInsert->pxNextFreeBlock = pxIterator->pxNextFreeBlock;
 8005e28:	68fb      	ldr	r3, [r7, #12]
 8005e2a:	681a      	ldr	r2, [r3, #0]
 8005e2c:	687b      	ldr	r3, [r7, #4]
 8005e2e:	601a      	str	r2, [r3, #0]

	/* If the block being inserted plugged a gab, so was merged with the block
	before and the block after, then it's pxNextFreeBlock pointer will have
	already been set, and should not be set here as that would make it point
	to itself. */
	if( pxIterator != pxBlockToInsert )
 8005e30:	68fa      	ldr	r2, [r7, #12]
 8005e32:	687b      	ldr	r3, [r7, #4]
 8005e34:	429a      	cmp	r2, r3
 8005e36:	d002      	beq.n	8005e3e <prvInsertBlockIntoFreeList+0x9e>
	{
		pxIterator->pxNextFreeBlock = pxBlockToInsert;
 8005e38:	68fb      	ldr	r3, [r7, #12]
 8005e3a:	687a      	ldr	r2, [r7, #4]
 8005e3c:	601a      	str	r2, [r3, #0]
	}
	else
	{
		mtCOVERAGE_TEST_MARKER();
	}
}
 8005e3e:	bf00      	nop
 8005e40:	3714      	adds	r7, #20
 8005e42:	46bd      	mov	sp, r7
 8005e44:	f85d 7b04 	ldr.w	r7, [sp], #4
 8005e48:	4770      	bx	lr
 8005e4a:	bf00      	nop
 8005e4c:	20007dd0 	.word	0x20007dd0
 8005e50:	20007dd8 	.word	0x20007dd8

08005e54 <xTaskGenericCreate>:

#endif
/*-----------------------------------------------------------*/

BaseType_t xTaskGenericCreate( TaskFunction_t pxTaskCode, const char * const pcName, const uint16_t usStackDepth, void * const pvParameters, UBaseType_t uxPriority, TaskHandle_t * const pxCreatedTask, StackType_t * const puxStackBuffer, const MemoryRegion_t * const xRegions ) /*lint !e971 Unqualified char types are allowed for strings and single characters only. */
{
 8005e54:	b580      	push	{r7, lr}
 8005e56:	b08c      	sub	sp, #48	; 0x30
 8005e58:	af02      	add	r7, sp, #8
 8005e5a:	60f8      	str	r0, [r7, #12]
 8005e5c:	60b9      	str	r1, [r7, #8]
 8005e5e:	603b      	str	r3, [r7, #0]
 8005e60:	4613      	mov	r3, r2
 8005e62:	80fb      	strh	r3, [r7, #6]
BaseType_t xReturn;
TCB_t * pxNewTCB;
StackType_t *pxTopOfStack;

	configASSERT( pxTaskCode );
 8005e64:	68fb      	ldr	r3, [r7, #12]
 8005e66:	2b00      	cmp	r3, #0
 8005e68:	d109      	bne.n	8005e7e <xTaskGenericCreate+0x2a>
 8005e6a:	f04f 0350 	mov.w	r3, #80	; 0x50
 8005e6e:	f383 8811 	msr	BASEPRI, r3
 8005e72:	f3bf 8f6f 	isb	sy
 8005e76:	f3bf 8f4f 	dsb	sy
 8005e7a:	61bb      	str	r3, [r7, #24]
 8005e7c:	e7fe      	b.n	8005e7c <xTaskGenericCreate+0x28>
	configASSERT( ( ( uxPriority & ( UBaseType_t ) ( ~portPRIVILEGE_BIT ) ) < ( UBaseType_t ) configMAX_PRIORITIES ) );
 8005e7e:	6b3b      	ldr	r3, [r7, #48]	; 0x30
 8005e80:	2b06      	cmp	r3, #6
 8005e82:	d909      	bls.n	8005e98 <xTaskGenericCreate+0x44>
 8005e84:	f04f 0350 	mov.w	r3, #80	; 0x50
 8005e88:	f383 8811 	msr	BASEPRI, r3
 8005e8c:	f3bf 8f6f 	isb	sy
 8005e90:	f3bf 8f4f 	dsb	sy
 8005e94:	617b      	str	r3, [r7, #20]
 8005e96:	e7fe      	b.n	8005e96 <xTaskGenericCreate+0x42>

	/* Allocate the memory required by the TCB and stack for the new task,
	checking that the allocation was successful. */
	pxNewTCB = prvAllocateTCBAndStack( usStackDepth, puxStackBuffer );
 8005e98:	88fb      	ldrh	r3, [r7, #6]
 8005e9a:	6bb9      	ldr	r1, [r7, #56]	; 0x38
 8005e9c:	4618      	mov	r0, r3
 8005e9e:	f000 fc1b 	bl	80066d8 <prvAllocateTCBAndStack>
 8005ea2:	6238      	str	r0, [r7, #32]

	if( pxNewTCB != NULL )
 8005ea4:	6a3b      	ldr	r3, [r7, #32]
 8005ea6:	2b00      	cmp	r3, #0
 8005ea8:	d078      	beq.n	8005f9c <xTaskGenericCreate+0x148>
		stack grows from high memory to low (as per the 80x86) or vice versa.
		portSTACK_GROWTH is used to make the result positive or negative as
		required by the port. */
		#if( portSTACK_GROWTH < 0 )
		{
			pxTopOfStack = pxNewTCB->pxStack + ( usStackDepth - ( uint16_t ) 1 );
 8005eaa:	6a3b      	ldr	r3, [r7, #32]
 8005eac:	6b1a      	ldr	r2, [r3, #48]	; 0x30
 8005eae:	88fb      	ldrh	r3, [r7, #6]
 8005eb0:	f103 4380 	add.w	r3, r3, #1073741824	; 0x40000000
 8005eb4:	3b01      	subs	r3, #1
 8005eb6:	009b      	lsls	r3, r3, #2
 8005eb8:	4413      	add	r3, r2
 8005eba:	61fb      	str	r3, [r7, #28]
			pxTopOfStack = ( StackType_t * ) ( ( ( portPOINTER_SIZE_TYPE ) pxTopOfStack ) & ( ~( ( portPOINTER_SIZE_TYPE ) portBYTE_ALIGNMENT_MASK ) ) ); /*lint !e923 MISRA exception.  Avoiding casts between pointers and integers is not practical.  Size differences accounted for using portPOINTER_SIZE_TYPE type. */
 8005ebc:	69fb      	ldr	r3, [r7, #28]
 8005ebe:	f023 0307 	bic.w	r3, r3, #7
 8005ec2:	61fb      	str	r3, [r7, #28]

			/* Check the alignment of the calculated top of stack is correct. */
			configASSERT( ( ( ( portPOINTER_SIZE_TYPE ) pxTopOfStack & ( portPOINTER_SIZE_TYPE ) portBYTE_ALIGNMENT_MASK ) == 0UL ) );
 8005ec4:	69fb      	ldr	r3, [r7, #28]
 8005ec6:	f003 0307 	and.w	r3, r3, #7
 8005eca:	2b00      	cmp	r3, #0
 8005ecc:	d009      	beq.n	8005ee2 <xTaskGenericCreate+0x8e>
 8005ece:	f04f 0350 	mov.w	r3, #80	; 0x50
 8005ed2:	f383 8811 	msr	BASEPRI, r3
 8005ed6:	f3bf 8f6f 	isb	sy
 8005eda:	f3bf 8f4f 	dsb	sy
 8005ede:	613b      	str	r3, [r7, #16]
 8005ee0:	e7fe      	b.n	8005ee0 <xTaskGenericCreate+0x8c>
			pxNewTCB->pxEndOfStack = pxNewTCB->pxStack + ( usStackDepth - 1 );
		}
		#endif /* portSTACK_GROWTH */

		/* Setup the newly allocated TCB with the initial state of the task. */
		prvInitialiseTCBVariables( pxNewTCB, pcName, uxPriority, xRegions, usStackDepth );
 8005ee2:	88fb      	ldrh	r3, [r7, #6]
 8005ee4:	9300      	str	r3, [sp, #0]
 8005ee6:	6bfb      	ldr	r3, [r7, #60]	; 0x3c
 8005ee8:	6b3a      	ldr	r2, [r7, #48]	; 0x30
 8005eea:	68b9      	ldr	r1, [r7, #8]
 8005eec:	6a38      	ldr	r0, [r7, #32]
 8005eee:	f000 faed 	bl	80064cc <prvInitialiseTCBVariables>
		{
			pxNewTCB->pxTopOfStack = pxPortInitialiseStack( pxTopOfStack, pxTaskCode, pvParameters, xRunPrivileged );
		}
		#else /* portUSING_MPU_WRAPPERS */
		{
			pxNewTCB->pxTopOfStack = pxPortInitialiseStack( pxTopOfStack, pxTaskCode, pvParameters );
 8005ef2:	683a      	ldr	r2, [r7, #0]
 8005ef4:	68f9      	ldr	r1, [r7, #12]
 8005ef6:	69f8      	ldr	r0, [r7, #28]
 8005ef8:	f7ff fc06 	bl	8005708 <pxPortInitialiseStack>
 8005efc:	4602      	mov	r2, r0
 8005efe:	6a3b      	ldr	r3, [r7, #32]
 8005f00:	601a      	str	r2, [r3, #0]
		}
		#endif /* portUSING_MPU_WRAPPERS */

		if( ( void * ) pxCreatedTask != NULL )
 8005f02:	6b7b      	ldr	r3, [r7, #52]	; 0x34
 8005f04:	2b00      	cmp	r3, #0
 8005f06:	d002      	beq.n	8005f0e <xTaskGenericCreate+0xba>
		{
			/* Pass the TCB out - in an anonymous way.  The calling function/
			task can use this as a handle to delete the task later if
			required.*/
			*pxCreatedTask = ( TaskHandle_t ) pxNewTCB;
 8005f08:	6b7b      	ldr	r3, [r7, #52]	; 0x34
 8005f0a:	6a3a      	ldr	r2, [r7, #32]
 8005f0c:	601a      	str	r2, [r3, #0]
			mtCOVERAGE_TEST_MARKER();
		}

		/* Ensure interrupts don't access the task lists while they are being
		updated. */
		taskENTER_CRITICAL();
 8005f0e:	f7ff fcf9 	bl	8005904 <vPortEnterCritical>
		{
			uxCurrentNumberOfTasks++;
 8005f12:	4b31      	ldr	r3, [pc, #196]	; (8005fd8 <xTaskGenericCreate+0x184>)
 8005f14:	681b      	ldr	r3, [r3, #0]
 8005f16:	3301      	adds	r3, #1
 8005f18:	4a2f      	ldr	r2, [pc, #188]	; (8005fd8 <xTaskGenericCreate+0x184>)
 8005f1a:	6013      	str	r3, [r2, #0]
			if( pxCurrentTCB == NULL )
 8005f1c:	4b2f      	ldr	r3, [pc, #188]	; (8005fdc <xTaskGenericCreate+0x188>)
 8005f1e:	681b      	ldr	r3, [r3, #0]
 8005f20:	2b00      	cmp	r3, #0
 8005f22:	d109      	bne.n	8005f38 <xTaskGenericCreate+0xe4>
			{
				/* There are no other tasks, or all the other tasks are in
				the suspended state - make this the current task. */
				pxCurrentTCB =  pxNewTCB;
 8005f24:	4a2d      	ldr	r2, [pc, #180]	; (8005fdc <xTaskGenericCreate+0x188>)
 8005f26:	6a3b      	ldr	r3, [r7, #32]
 8005f28:	6013      	str	r3, [r2, #0]

				if( uxCurrentNumberOfTasks == ( UBaseType_t ) 1 )
 8005f2a:	4b2b      	ldr	r3, [pc, #172]	; (8005fd8 <xTaskGenericCreate+0x184>)
 8005f2c:	681b      	ldr	r3, [r3, #0]
 8005f2e:	2b01      	cmp	r3, #1
 8005f30:	d10f      	bne.n	8005f52 <xTaskGenericCreate+0xfe>
				{
					/* This is the first task to be created so do the preliminary
					initialisation required.  We will not recover if this call
					fails, but we will report the failure. */
					prvInitialiseTaskLists();
 8005f32:	f000 fb1f 	bl	8006574 <prvInitialiseTaskLists>
 8005f36:	e00c      	b.n	8005f52 <xTaskGenericCreate+0xfe>
			else
			{
				/* If the scheduler is not already running, make this task the
				current task if it is the highest priority task to be created
				so far. */
				if( xSchedulerRunning == pdFALSE )
 8005f38:	4b29      	ldr	r3, [pc, #164]	; (8005fe0 <xTaskGenericCreate+0x18c>)
 8005f3a:	681b      	ldr	r3, [r3, #0]
 8005f3c:	2b00      	cmp	r3, #0
 8005f3e:	d108      	bne.n	8005f52 <xTaskGenericCreate+0xfe>
				{
					if( pxCurrentTCB->uxPriority <= uxPriority )
 8005f40:	4b26      	ldr	r3, [pc, #152]	; (8005fdc <xTaskGenericCreate+0x188>)
 8005f42:	681b      	ldr	r3, [r3, #0]
 8005f44:	6ada      	ldr	r2, [r3, #44]	; 0x2c
 8005f46:	6b3b      	ldr	r3, [r7, #48]	; 0x30
 8005f48:	429a      	cmp	r2, r3
 8005f4a:	d802      	bhi.n	8005f52 <xTaskGenericCreate+0xfe>
					{
						pxCurrentTCB = pxNewTCB;
 8005f4c:	4a23      	ldr	r2, [pc, #140]	; (8005fdc <xTaskGenericCreate+0x188>)
 8005f4e:	6a3b      	ldr	r3, [r7, #32]
 8005f50:	6013      	str	r3, [r2, #0]
				{
					mtCOVERAGE_TEST_MARKER();
				}
			}

			uxTaskNumber++;
 8005f52:	4b24      	ldr	r3, [pc, #144]	; (8005fe4 <xTaskGenericCreate+0x190>)
 8005f54:	681b      	ldr	r3, [r3, #0]
 8005f56:	3301      	adds	r3, #1
 8005f58:	4a22      	ldr	r2, [pc, #136]	; (8005fe4 <xTaskGenericCreate+0x190>)
 8005f5a:	6013      	str	r3, [r2, #0]

			#if ( configUSE_TRACE_FACILITY == 1 )
			{
				/* Add a counter into the TCB for tracing only. */
				pxNewTCB->uxTCBNumber = uxTaskNumber;
 8005f5c:	4b21      	ldr	r3, [pc, #132]	; (8005fe4 <xTaskGenericCreate+0x190>)
 8005f5e:	681a      	ldr	r2, [r3, #0]
 8005f60:	6a3b      	ldr	r3, [r7, #32]
 8005f62:	645a      	str	r2, [r3, #68]	; 0x44
			}
			#endif /* configUSE_TRACE_FACILITY */
			traceTASK_CREATE( pxNewTCB );

			prvAddTaskToReadyList( pxNewTCB );
 8005f64:	6a3b      	ldr	r3, [r7, #32]
 8005f66:	6adb      	ldr	r3, [r3, #44]	; 0x2c
 8005f68:	2201      	movs	r2, #1
 8005f6a:	409a      	lsls	r2, r3
 8005f6c:	4b1e      	ldr	r3, [pc, #120]	; (8005fe8 <xTaskGenericCreate+0x194>)
 8005f6e:	681b      	ldr	r3, [r3, #0]
 8005f70:	4313      	orrs	r3, r2
 8005f72:	4a1d      	ldr	r2, [pc, #116]	; (8005fe8 <xTaskGenericCreate+0x194>)
 8005f74:	6013      	str	r3, [r2, #0]
 8005f76:	6a3b      	ldr	r3, [r7, #32]
 8005f78:	6ada      	ldr	r2, [r3, #44]	; 0x2c
 8005f7a:	4613      	mov	r3, r2
 8005f7c:	009b      	lsls	r3, r3, #2
 8005f7e:	4413      	add	r3, r2
 8005f80:	009b      	lsls	r3, r3, #2
 8005f82:	4a1a      	ldr	r2, [pc, #104]	; (8005fec <xTaskGenericCreate+0x198>)
 8005f84:	441a      	add	r2, r3
 8005f86:	6a3b      	ldr	r3, [r7, #32]
 8005f88:	3304      	adds	r3, #4
 8005f8a:	4619      	mov	r1, r3
 8005f8c:	4610      	mov	r0, r2
 8005f8e:	f7ff fb34 	bl	80055fa <vListInsertEnd>

			xReturn = pdPASS;
 8005f92:	2301      	movs	r3, #1
 8005f94:	627b      	str	r3, [r7, #36]	; 0x24
			portSETUP_TCB( pxNewTCB );
		}
		taskEXIT_CRITICAL();
 8005f96:	f7ff fce3 	bl	8005960 <vPortExitCritical>
 8005f9a:	e002      	b.n	8005fa2 <xTaskGenericCreate+0x14e>
	}
	else
	{
		xReturn = errCOULD_NOT_ALLOCATE_REQUIRED_MEMORY;
 8005f9c:	f04f 33ff 	mov.w	r3, #4294967295
 8005fa0:	627b      	str	r3, [r7, #36]	; 0x24
		traceTASK_CREATE_FAILED();
	}

	if( xReturn == pdPASS )
 8005fa2:	6a7b      	ldr	r3, [r7, #36]	; 0x24
 8005fa4:	2b01      	cmp	r3, #1
 8005fa6:	d111      	bne.n	8005fcc <xTaskGenericCreate+0x178>
	{
		if( xSchedulerRunning != pdFALSE )
 8005fa8:	4b0d      	ldr	r3, [pc, #52]	; (8005fe0 <xTaskGenericCreate+0x18c>)
 8005faa:	681b      	ldr	r3, [r3, #0]
 8005fac:	2b00      	cmp	r3, #0
 8005fae:	d00d      	beq.n	8005fcc <xTaskGenericCreate+0x178>
		{
			/* If the created task is of a higher priority than the current task
			then it should run now. */
			if( pxCurrentTCB->uxPriority < uxPriority )
 8005fb0:	4b0a      	ldr	r3, [pc, #40]	; (8005fdc <xTaskGenericCreate+0x188>)
 8005fb2:	681b      	ldr	r3, [r3, #0]
 8005fb4:	6ada      	ldr	r2, [r3, #44]	; 0x2c
 8005fb6:	6b3b      	ldr	r3, [r7, #48]	; 0x30
 8005fb8:	429a      	cmp	r2, r3
 8005fba:	d207      	bcs.n	8005fcc <xTaskGenericCreate+0x178>
			{
				taskYIELD_IF_USING_PREEMPTION();
 8005fbc:	4b0c      	ldr	r3, [pc, #48]	; (8005ff0 <xTaskGenericCreate+0x19c>)
 8005fbe:	f04f 5280 	mov.w	r2, #268435456	; 0x10000000
 8005fc2:	601a      	str	r2, [r3, #0]
 8005fc4:	f3bf 8f4f 	dsb	sy
 8005fc8:	f3bf 8f6f 	isb	sy
		{
			mtCOVERAGE_TEST_MARKER();
		}
	}

	return xReturn;
 8005fcc:	6a7b      	ldr	r3, [r7, #36]	; 0x24
}
 8005fce:	4618      	mov	r0, r3
 8005fd0:	3728      	adds	r7, #40	; 0x28
 8005fd2:	46bd      	mov	sp, r7
 8005fd4:	bd80      	pop	{r7, pc}
 8005fd6:	bf00      	nop
 8005fd8:	20007ee8 	.word	0x20007ee8
 8005fdc:	20007de8 	.word	0x20007de8
 8005fe0:	20007ef4 	.word	0x20007ef4
 8005fe4:	20007f04 	.word	0x20007f04
 8005fe8:	20007ef0 	.word	0x20007ef0
 8005fec:	20007dec 	.word	0x20007dec
 8005ff0:	e000ed04 	.word	0xe000ed04

08005ff4 <vTaskDelay>:
/*-----------------------------------------------------------*/

#if ( INCLUDE_vTaskDelay == 1 )

	void vTaskDelay( const TickType_t xTicksToDelay )
	{
 8005ff4:	b580      	push	{r7, lr}
 8005ff6:	b086      	sub	sp, #24
 8005ff8:	af00      	add	r7, sp, #0
 8005ffa:	6078      	str	r0, [r7, #4]
	TickType_t xTimeToWake;
	BaseType_t xAlreadyYielded = pdFALSE;
 8005ffc:	2300      	movs	r3, #0
 8005ffe:	617b      	str	r3, [r7, #20]


		/* A delay time of zero just forces a reschedule. */
		if( xTicksToDelay > ( TickType_t ) 0U )
 8006000:	687b      	ldr	r3, [r7, #4]
 8006002:	2b00      	cmp	r3, #0
 8006004:	d02f      	beq.n	8006066 <vTaskDelay+0x72>
		{
			configASSERT( uxSchedulerSuspended == 0 );
 8006006:	4b1f      	ldr	r3, [pc, #124]	; (8006084 <vTaskDelay+0x90>)
 8006008:	681b      	ldr	r3, [r3, #0]
 800600a:	2b00      	cmp	r3, #0
 800600c:	d009      	beq.n	8006022 <vTaskDelay+0x2e>
 800600e:	f04f 0350 	mov.w	r3, #80	; 0x50
 8006012:	f383 8811 	msr	BASEPRI, r3
 8006016:	f3bf 8f6f 	isb	sy
 800601a:	f3bf 8f4f 	dsb	sy
 800601e:	60fb      	str	r3, [r7, #12]
 8006020:	e7fe      	b.n	8006020 <vTaskDelay+0x2c>
			vTaskSuspendAll();
 8006022:	f000 f881 	bl	8006128 <vTaskSuspendAll>
				This task cannot be in an event list as it is the currently
				executing task. */

				/* Calculate the time to wake - this may overflow but this is
				not a problem. */
				xTimeToWake = xTickCount + xTicksToDelay;
 8006026:	4b18      	ldr	r3, [pc, #96]	; (8006088 <vTaskDelay+0x94>)
 8006028:	681a      	ldr	r2, [r3, #0]
 800602a:	687b      	ldr	r3, [r7, #4]
 800602c:	4413      	add	r3, r2
 800602e:	613b      	str	r3, [r7, #16]

				/* We must remove ourselves from the ready list before adding
				ourselves to the blocked list as the same list item is used for
				both lists. */
				if( uxListRemove( &( pxCurrentTCB->xGenericListItem ) ) == ( UBaseType_t ) 0 )
 8006030:	4b16      	ldr	r3, [pc, #88]	; (800608c <vTaskDelay+0x98>)
 8006032:	681b      	ldr	r3, [r3, #0]
 8006034:	3304      	adds	r3, #4
 8006036:	4618      	mov	r0, r3
 8006038:	f7ff fb3c 	bl	80056b4 <uxListRemove>
 800603c:	4603      	mov	r3, r0
 800603e:	2b00      	cmp	r3, #0
 8006040:	d10b      	bne.n	800605a <vTaskDelay+0x66>
				{
					/* The current task must be in a ready list, so there is
					no need to check, and the port reset macro can be called
					directly. */
					portRESET_READY_PRIORITY( pxCurrentTCB->uxPriority, uxTopReadyPriority );
 8006042:	4b12      	ldr	r3, [pc, #72]	; (800608c <vTaskDelay+0x98>)
 8006044:	681b      	ldr	r3, [r3, #0]
 8006046:	6adb      	ldr	r3, [r3, #44]	; 0x2c
 8006048:	2201      	movs	r2, #1
 800604a:	fa02 f303 	lsl.w	r3, r2, r3
 800604e:	43da      	mvns	r2, r3
 8006050:	4b0f      	ldr	r3, [pc, #60]	; (8006090 <vTaskDelay+0x9c>)
 8006052:	681b      	ldr	r3, [r3, #0]
 8006054:	4013      	ands	r3, r2
 8006056:	4a0e      	ldr	r2, [pc, #56]	; (8006090 <vTaskDelay+0x9c>)
 8006058:	6013      	str	r3, [r2, #0]
				}
				else
				{
					mtCOVERAGE_TEST_MARKER();
				}
				prvAddCurrentTaskToDelayedList( xTimeToWake );
 800605a:	6938      	ldr	r0, [r7, #16]
 800605c:	f000 fb06 	bl	800666c <prvAddCurrentTaskToDelayedList>
			}
			xAlreadyYielded = xTaskResumeAll();
 8006060:	f000 f870 	bl	8006144 <xTaskResumeAll>
 8006064:	6178      	str	r0, [r7, #20]
			mtCOVERAGE_TEST_MARKER();
		}

		/* Force a reschedule if xTaskResumeAll has not already done so, we may
		have put ourselves to sleep. */
		if( xAlreadyYielded == pdFALSE )
 8006066:	697b      	ldr	r3, [r7, #20]
 8006068:	2b00      	cmp	r3, #0
 800606a:	d107      	bne.n	800607c <vTaskDelay+0x88>
		{
			portYIELD_WITHIN_API();
 800606c:	4b09      	ldr	r3, [pc, #36]	; (8006094 <vTaskDelay+0xa0>)
 800606e:	f04f 5280 	mov.w	r2, #268435456	; 0x10000000
 8006072:	601a      	str	r2, [r3, #0]
 8006074:	f3bf 8f4f 	dsb	sy
 8006078:	f3bf 8f6f 	isb	sy
		}
		else
		{
			mtCOVERAGE_TEST_MARKER();
		}
	}
 800607c:	bf00      	nop
 800607e:	3718      	adds	r7, #24
 8006080:	46bd      	mov	sp, r7
 8006082:	bd80      	pop	{r7, pc}
 8006084:	20007f0c 	.word	0x20007f0c
 8006088:	20007eec 	.word	0x20007eec
 800608c:	20007de8 	.word	0x20007de8
 8006090:	20007ef0 	.word	0x20007ef0
 8006094:	e000ed04 	.word	0xe000ed04

08006098 <vTaskStartScheduler>:

#endif /* ( ( INCLUDE_xTaskResumeFromISR == 1 ) && ( INCLUDE_vTaskSuspend == 1 ) ) */
/*-----------------------------------------------------------*/

void vTaskStartScheduler( void )
{
 8006098:	b580      	push	{r7, lr}
 800609a:	b088      	sub	sp, #32
 800609c:	af04      	add	r7, sp, #16
		xReturn = xTaskCreate( prvIdleTask, "IDLE", tskIDLE_STACK_SIZE, ( void * ) NULL, ( tskIDLE_PRIORITY | portPRIVILEGE_BIT ), &xIdleTaskHandle ); /*lint !e961 MISRA exception, justified as it is not a redundant explicit cast to all supported compilers. */
	}
	#else
	{
		/* Create the idle task without storing its handle. */
		xReturn = xTaskCreate( prvIdleTask, "IDLE", tskIDLE_STACK_SIZE, ( void * ) NULL, ( tskIDLE_PRIORITY | portPRIVILEGE_BIT ), NULL );  /*lint !e961 MISRA exception, justified as it is not a redundant explicit cast to all supported compilers. */
 800609e:	2300      	movs	r3, #0
 80060a0:	9303      	str	r3, [sp, #12]
 80060a2:	2300      	movs	r3, #0
 80060a4:	9302      	str	r3, [sp, #8]
 80060a6:	2300      	movs	r3, #0
 80060a8:	9301      	str	r3, [sp, #4]
 80060aa:	2300      	movs	r3, #0
 80060ac:	9300      	str	r3, [sp, #0]
 80060ae:	2300      	movs	r3, #0
 80060b0:	f44f 6280 	mov.w	r2, #1024	; 0x400
 80060b4:	4917      	ldr	r1, [pc, #92]	; (8006114 <vTaskStartScheduler+0x7c>)
 80060b6:	4818      	ldr	r0, [pc, #96]	; (8006118 <vTaskStartScheduler+0x80>)
 80060b8:	f7ff fecc 	bl	8005e54 <xTaskGenericCreate>
 80060bc:	60f8      	str	r0, [r7, #12]
			mtCOVERAGE_TEST_MARKER();
		}
	}
	#endif /* configUSE_TIMERS */

	if( xReturn == pdPASS )
 80060be:	68fb      	ldr	r3, [r7, #12]
 80060c0:	2b01      	cmp	r3, #1
 80060c2:	d115      	bne.n	80060f0 <vTaskStartScheduler+0x58>
 80060c4:	f04f 0350 	mov.w	r3, #80	; 0x50
 80060c8:	f383 8811 	msr	BASEPRI, r3
 80060cc:	f3bf 8f6f 	isb	sy
 80060d0:	f3bf 8f4f 	dsb	sy
 80060d4:	60bb      	str	r3, [r7, #8]
			structure specific to the task that will run first. */
			_impure_ptr = &( pxCurrentTCB->xNewLib_reent );
		}
		#endif /* configUSE_NEWLIB_REENTRANT */

		xNextTaskUnblockTime = portMAX_DELAY;
 80060d6:	4b11      	ldr	r3, [pc, #68]	; (800611c <vTaskStartScheduler+0x84>)
 80060d8:	f04f 32ff 	mov.w	r2, #4294967295
 80060dc:	601a      	str	r2, [r3, #0]
		xSchedulerRunning = pdTRUE;
 80060de:	4b10      	ldr	r3, [pc, #64]	; (8006120 <vTaskStartScheduler+0x88>)
 80060e0:	2201      	movs	r2, #1
 80060e2:	601a      	str	r2, [r3, #0]
		xTickCount = ( TickType_t ) 0U;
 80060e4:	4b0f      	ldr	r3, [pc, #60]	; (8006124 <vTaskStartScheduler+0x8c>)
 80060e6:	2200      	movs	r2, #0
 80060e8:	601a      	str	r2, [r3, #0]
		the run time counter time base. */
		portCONFIGURE_TIMER_FOR_RUN_TIME_STATS();

		/* Setting up the timer tick is hardware specific and thus in the
		portable interface. */
		if( xPortStartScheduler() != pdFALSE )
 80060ea:	f7ff fb7f 	bl	80057ec <xPortStartScheduler>
		/* This line will only be reached if the kernel could not be started,
		because there was not enough FreeRTOS heap to create the idle task
		or the timer task. */
		configASSERT( xReturn );
	}
}
 80060ee:	e00c      	b.n	800610a <vTaskStartScheduler+0x72>
		configASSERT( xReturn );
 80060f0:	68fb      	ldr	r3, [r7, #12]
 80060f2:	2b00      	cmp	r3, #0
 80060f4:	d109      	bne.n	800610a <vTaskStartScheduler+0x72>
 80060f6:	f04f 0350 	mov.w	r3, #80	; 0x50
 80060fa:	f383 8811 	msr	BASEPRI, r3
 80060fe:	f3bf 8f6f 	isb	sy
 8006102:	f3bf 8f4f 	dsb	sy
 8006106:	607b      	str	r3, [r7, #4]
 8006108:	e7fe      	b.n	8006108 <vTaskStartScheduler+0x70>
}
 800610a:	bf00      	nop
 800610c:	3710      	adds	r7, #16
 800610e:	46bd      	mov	sp, r7
 8006110:	bd80      	pop	{r7, pc}
 8006112:	bf00      	nop
 8006114:	08007ea8 	.word	0x08007ea8
 8006118:	0800649d 	.word	0x0800649d
 800611c:	20007f08 	.word	0x20007f08
 8006120:	20007ef4 	.word	0x20007ef4
 8006124:	20007eec 	.word	0x20007eec

08006128 <vTaskSuspendAll>:
	vPortEndScheduler();
}
/*----------------------------------------------------------*/

void vTaskSuspendAll( void )
{
 8006128:	b480      	push	{r7}
 800612a:	af00      	add	r7, sp, #0
	/* A critical section is not required as the variable is of type
	BaseType_t.  Please read Richard Barry's reply in the following link to a
	post in the FreeRTOS support forum before reporting this as a bug! -
	http://goo.gl/wu4acr */
	++uxSchedulerSuspended;
 800612c:	4b04      	ldr	r3, [pc, #16]	; (8006140 <vTaskSuspendAll+0x18>)
 800612e:	681b      	ldr	r3, [r3, #0]
 8006130:	3301      	adds	r3, #1
 8006132:	4a03      	ldr	r2, [pc, #12]	; (8006140 <vTaskSuspendAll+0x18>)
 8006134:	6013      	str	r3, [r2, #0]
}
 8006136:	bf00      	nop
 8006138:	46bd      	mov	sp, r7
 800613a:	f85d 7b04 	ldr.w	r7, [sp], #4
 800613e:	4770      	bx	lr
 8006140:	20007f0c 	.word	0x20007f0c

08006144 <xTaskResumeAll>:

#endif /* configUSE_TICKLESS_IDLE */
/*----------------------------------------------------------*/

BaseType_t xTaskResumeAll( void )
{
 8006144:	b580      	push	{r7, lr}
 8006146:	b084      	sub	sp, #16
 8006148:	af00      	add	r7, sp, #0
TCB_t *pxTCB;
BaseType_t xAlreadyYielded = pdFALSE;
 800614a:	2300      	movs	r3, #0
 800614c:	60fb      	str	r3, [r7, #12]

	/* If uxSchedulerSuspended is zero then this function does not match a
	previous call to vTaskSuspendAll(). */
	configASSERT( uxSchedulerSuspended );
 800614e:	4b3e      	ldr	r3, [pc, #248]	; (8006248 <xTaskResumeAll+0x104>)
 8006150:	681b      	ldr	r3, [r3, #0]
 8006152:	2b00      	cmp	r3, #0
 8006154:	d109      	bne.n	800616a <xTaskResumeAll+0x26>
 8006156:	f04f 0350 	mov.w	r3, #80	; 0x50
 800615a:	f383 8811 	msr	BASEPRI, r3
 800615e:	f3bf 8f6f 	isb	sy
 8006162:	f3bf 8f4f 	dsb	sy
 8006166:	607b      	str	r3, [r7, #4]
 8006168:	e7fe      	b.n	8006168 <xTaskResumeAll+0x24>
	/* It is possible that an ISR caused a task to be removed from an event
	list while the scheduler was suspended.  If this was the case then the
	removed task will have been added to the xPendingReadyList.  Once the
	scheduler has been resumed it is safe to move all the pending ready
	tasks from this list into their appropriate ready list. */
	taskENTER_CRITICAL();
 800616a:	f7ff fbcb 	bl	8005904 <vPortEnterCritical>
	{
		--uxSchedulerSuspended;
 800616e:	4b36      	ldr	r3, [pc, #216]	; (8006248 <xTaskResumeAll+0x104>)
 8006170:	681b      	ldr	r3, [r3, #0]
 8006172:	3b01      	subs	r3, #1
 8006174:	4a34      	ldr	r2, [pc, #208]	; (8006248 <xTaskResumeAll+0x104>)
 8006176:	6013      	str	r3, [r2, #0]

		if( uxSchedulerSuspended == ( UBaseType_t ) pdFALSE )
 8006178:	4b33      	ldr	r3, [pc, #204]	; (8006248 <xTaskResumeAll+0x104>)
 800617a:	681b      	ldr	r3, [r3, #0]
 800617c:	2b00      	cmp	r3, #0
 800617e:	d15b      	bne.n	8006238 <xTaskResumeAll+0xf4>
		{
			if( uxCurrentNumberOfTasks > ( UBaseType_t ) 0U )
 8006180:	4b32      	ldr	r3, [pc, #200]	; (800624c <xTaskResumeAll+0x108>)
 8006182:	681b      	ldr	r3, [r3, #0]
 8006184:	2b00      	cmp	r3, #0
 8006186:	d057      	beq.n	8006238 <xTaskResumeAll+0xf4>
			{
				/* Move any readied tasks from the pending list into the
				appropriate ready list. */
				while( listLIST_IS_EMPTY( &xPendingReadyList ) == pdFALSE )
 8006188:	e02e      	b.n	80061e8 <xTaskResumeAll+0xa4>
				{
					pxTCB = ( TCB_t * ) listGET_OWNER_OF_HEAD_ENTRY( ( &xPendingReadyList ) );
 800618a:	4b31      	ldr	r3, [pc, #196]	; (8006250 <xTaskResumeAll+0x10c>)
 800618c:	68db      	ldr	r3, [r3, #12]
 800618e:	68db      	ldr	r3, [r3, #12]
 8006190:	60bb      	str	r3, [r7, #8]
					( void ) uxListRemove( &( pxTCB->xEventListItem ) );
 8006192:	68bb      	ldr	r3, [r7, #8]
 8006194:	3318      	adds	r3, #24
 8006196:	4618      	mov	r0, r3
 8006198:	f7ff fa8c 	bl	80056b4 <uxListRemove>
					( void ) uxListRemove( &( pxTCB->xGenericListItem ) );
 800619c:	68bb      	ldr	r3, [r7, #8]
 800619e:	3304      	adds	r3, #4
 80061a0:	4618      	mov	r0, r3
 80061a2:	f7ff fa87 	bl	80056b4 <uxListRemove>
					prvAddTaskToReadyList( pxTCB );
 80061a6:	68bb      	ldr	r3, [r7, #8]
 80061a8:	6adb      	ldr	r3, [r3, #44]	; 0x2c
 80061aa:	2201      	movs	r2, #1
 80061ac:	409a      	lsls	r2, r3
 80061ae:	4b29      	ldr	r3, [pc, #164]	; (8006254 <xTaskResumeAll+0x110>)
 80061b0:	681b      	ldr	r3, [r3, #0]
 80061b2:	4313      	orrs	r3, r2
 80061b4:	4a27      	ldr	r2, [pc, #156]	; (8006254 <xTaskResumeAll+0x110>)
 80061b6:	6013      	str	r3, [r2, #0]
 80061b8:	68bb      	ldr	r3, [r7, #8]
 80061ba:	6ada      	ldr	r2, [r3, #44]	; 0x2c
 80061bc:	4613      	mov	r3, r2
 80061be:	009b      	lsls	r3, r3, #2
 80061c0:	4413      	add	r3, r2
 80061c2:	009b      	lsls	r3, r3, #2
 80061c4:	4a24      	ldr	r2, [pc, #144]	; (8006258 <xTaskResumeAll+0x114>)
 80061c6:	441a      	add	r2, r3
 80061c8:	68bb      	ldr	r3, [r7, #8]
 80061ca:	3304      	adds	r3, #4
 80061cc:	4619      	mov	r1, r3
 80061ce:	4610      	mov	r0, r2
 80061d0:	f7ff fa13 	bl	80055fa <vListInsertEnd>

					/* If the moved task has a priority higher than the current
					task then a yield must be performed. */
					if( pxTCB->uxPriority >= pxCurrentTCB->uxPriority )
 80061d4:	68bb      	ldr	r3, [r7, #8]
 80061d6:	6ada      	ldr	r2, [r3, #44]	; 0x2c
 80061d8:	4b20      	ldr	r3, [pc, #128]	; (800625c <xTaskResumeAll+0x118>)
 80061da:	681b      	ldr	r3, [r3, #0]
 80061dc:	6adb      	ldr	r3, [r3, #44]	; 0x2c
 80061de:	429a      	cmp	r2, r3
 80061e0:	d302      	bcc.n	80061e8 <xTaskResumeAll+0xa4>
					{
						xYieldPending = pdTRUE;
 80061e2:	4b1f      	ldr	r3, [pc, #124]	; (8006260 <xTaskResumeAll+0x11c>)
 80061e4:	2201      	movs	r2, #1
 80061e6:	601a      	str	r2, [r3, #0]
				while( listLIST_IS_EMPTY( &xPendingReadyList ) == pdFALSE )
 80061e8:	4b19      	ldr	r3, [pc, #100]	; (8006250 <xTaskResumeAll+0x10c>)
 80061ea:	681b      	ldr	r3, [r3, #0]
 80061ec:	2b00      	cmp	r3, #0
 80061ee:	d1cc      	bne.n	800618a <xTaskResumeAll+0x46>

				/* If any ticks occurred while the scheduler was suspended then
				they should be processed now.  This ensures the tick count does
				not	slip, and that any delayed tasks are resumed at the correct
				time. */
				if( uxPendedTicks > ( UBaseType_t ) 0U )
 80061f0:	4b1c      	ldr	r3, [pc, #112]	; (8006264 <xTaskResumeAll+0x120>)
 80061f2:	681b      	ldr	r3, [r3, #0]
 80061f4:	2b00      	cmp	r3, #0
 80061f6:	d011      	beq.n	800621c <xTaskResumeAll+0xd8>
				{
					while( uxPendedTicks > ( UBaseType_t ) 0U )
 80061f8:	e00c      	b.n	8006214 <xTaskResumeAll+0xd0>
					{
						if( xTaskIncrementTick() != pdFALSE )
 80061fa:	f000 f837 	bl	800626c <xTaskIncrementTick>
 80061fe:	4603      	mov	r3, r0
 8006200:	2b00      	cmp	r3, #0
 8006202:	d002      	beq.n	800620a <xTaskResumeAll+0xc6>
						{
							xYieldPending = pdTRUE;
 8006204:	4b16      	ldr	r3, [pc, #88]	; (8006260 <xTaskResumeAll+0x11c>)
 8006206:	2201      	movs	r2, #1
 8006208:	601a      	str	r2, [r3, #0]
						}
						else
						{
							mtCOVERAGE_TEST_MARKER();
						}
						--uxPendedTicks;
 800620a:	4b16      	ldr	r3, [pc, #88]	; (8006264 <xTaskResumeAll+0x120>)
 800620c:	681b      	ldr	r3, [r3, #0]
 800620e:	3b01      	subs	r3, #1
 8006210:	4a14      	ldr	r2, [pc, #80]	; (8006264 <xTaskResumeAll+0x120>)
 8006212:	6013      	str	r3, [r2, #0]
					while( uxPendedTicks > ( UBaseType_t ) 0U )
 8006214:	4b13      	ldr	r3, [pc, #76]	; (8006264 <xTaskResumeAll+0x120>)
 8006216:	681b      	ldr	r3, [r3, #0]
 8006218:	2b00      	cmp	r3, #0
 800621a:	d1ee      	bne.n	80061fa <xTaskResumeAll+0xb6>
				else
				{
					mtCOVERAGE_TEST_MARKER();
				}

				if( xYieldPending == pdTRUE )
 800621c:	4b10      	ldr	r3, [pc, #64]	; (8006260 <xTaskResumeAll+0x11c>)
 800621e:	681b      	ldr	r3, [r3, #0]
 8006220:	2b01      	cmp	r3, #1
 8006222:	d109      	bne.n	8006238 <xTaskResumeAll+0xf4>
				{
					#if( configUSE_PREEMPTION != 0 )
					{
						xAlreadyYielded = pdTRUE;
 8006224:	2301      	movs	r3, #1
 8006226:	60fb      	str	r3, [r7, #12]
					}
					#endif
					taskYIELD_IF_USING_PREEMPTION();
 8006228:	4b0f      	ldr	r3, [pc, #60]	; (8006268 <xTaskResumeAll+0x124>)
 800622a:	f04f 5280 	mov.w	r2, #268435456	; 0x10000000
 800622e:	601a      	str	r2, [r3, #0]
 8006230:	f3bf 8f4f 	dsb	sy
 8006234:	f3bf 8f6f 	isb	sy
		else
		{
			mtCOVERAGE_TEST_MARKER();
		}
	}
	taskEXIT_CRITICAL();
 8006238:	f7ff fb92 	bl	8005960 <vPortExitCritical>

	return xAlreadyYielded;
 800623c:	68fb      	ldr	r3, [r7, #12]
}
 800623e:	4618      	mov	r0, r3
 8006240:	3710      	adds	r7, #16
 8006242:	46bd      	mov	sp, r7
 8006244:	bd80      	pop	{r7, pc}
 8006246:	bf00      	nop
 8006248:	20007f0c 	.word	0x20007f0c
 800624c:	20007ee8 	.word	0x20007ee8
 8006250:	20007ea8 	.word	0x20007ea8
 8006254:	20007ef0 	.word	0x20007ef0
 8006258:	20007dec 	.word	0x20007dec
 800625c:	20007de8 	.word	0x20007de8
 8006260:	20007efc 	.word	0x20007efc
 8006264:	20007ef8 	.word	0x20007ef8
 8006268:	e000ed04 	.word	0xe000ed04

0800626c <xTaskIncrementTick>:

#endif /* configUSE_TICKLESS_IDLE */
/*----------------------------------------------------------*/

BaseType_t xTaskIncrementTick( void )
{
 800626c:	b580      	push	{r7, lr}
 800626e:	b086      	sub	sp, #24
 8006270:	af00      	add	r7, sp, #0
TCB_t * pxTCB;
TickType_t xItemValue;
BaseType_t xSwitchRequired = pdFALSE;
 8006272:	2300      	movs	r3, #0
 8006274:	617b      	str	r3, [r7, #20]

	/* Called by the portable layer each time a tick interrupt occurs.
	Increments the tick then checks to see if the new tick value will cause any
	tasks to be unblocked. */
	traceTASK_INCREMENT_TICK( xTickCount );
	if( uxSchedulerSuspended == ( UBaseType_t ) pdFALSE )
 8006276:	4b51      	ldr	r3, [pc, #324]	; (80063bc <xTaskIncrementTick+0x150>)
 8006278:	681b      	ldr	r3, [r3, #0]
 800627a:	2b00      	cmp	r3, #0
 800627c:	f040 808d 	bne.w	800639a <xTaskIncrementTick+0x12e>
	{
		/* Increment the RTOS tick, switching the delayed and overflowed
		delayed lists if it wraps to 0. */
		++xTickCount;
 8006280:	4b4f      	ldr	r3, [pc, #316]	; (80063c0 <xTaskIncrementTick+0x154>)
 8006282:	681b      	ldr	r3, [r3, #0]
 8006284:	3301      	adds	r3, #1
 8006286:	4a4e      	ldr	r2, [pc, #312]	; (80063c0 <xTaskIncrementTick+0x154>)
 8006288:	6013      	str	r3, [r2, #0]

		{
			/* Minor optimisation.  The tick count cannot change in this
			block. */
			const TickType_t xConstTickCount = xTickCount;
 800628a:	4b4d      	ldr	r3, [pc, #308]	; (80063c0 <xTaskIncrementTick+0x154>)
 800628c:	681b      	ldr	r3, [r3, #0]
 800628e:	613b      	str	r3, [r7, #16]

			if( xConstTickCount == ( TickType_t ) 0U )
 8006290:	693b      	ldr	r3, [r7, #16]
 8006292:	2b00      	cmp	r3, #0
 8006294:	d11f      	bne.n	80062d6 <xTaskIncrementTick+0x6a>
			{
				taskSWITCH_DELAYED_LISTS();
 8006296:	4b4b      	ldr	r3, [pc, #300]	; (80063c4 <xTaskIncrementTick+0x158>)
 8006298:	681b      	ldr	r3, [r3, #0]
 800629a:	681b      	ldr	r3, [r3, #0]
 800629c:	2b00      	cmp	r3, #0
 800629e:	d009      	beq.n	80062b4 <xTaskIncrementTick+0x48>
 80062a0:	f04f 0350 	mov.w	r3, #80	; 0x50
 80062a4:	f383 8811 	msr	BASEPRI, r3
 80062a8:	f3bf 8f6f 	isb	sy
 80062ac:	f3bf 8f4f 	dsb	sy
 80062b0:	603b      	str	r3, [r7, #0]
 80062b2:	e7fe      	b.n	80062b2 <xTaskIncrementTick+0x46>
 80062b4:	4b43      	ldr	r3, [pc, #268]	; (80063c4 <xTaskIncrementTick+0x158>)
 80062b6:	681b      	ldr	r3, [r3, #0]
 80062b8:	60fb      	str	r3, [r7, #12]
 80062ba:	4b43      	ldr	r3, [pc, #268]	; (80063c8 <xTaskIncrementTick+0x15c>)
 80062bc:	681b      	ldr	r3, [r3, #0]
 80062be:	4a41      	ldr	r2, [pc, #260]	; (80063c4 <xTaskIncrementTick+0x158>)
 80062c0:	6013      	str	r3, [r2, #0]
 80062c2:	4a41      	ldr	r2, [pc, #260]	; (80063c8 <xTaskIncrementTick+0x15c>)
 80062c4:	68fb      	ldr	r3, [r7, #12]
 80062c6:	6013      	str	r3, [r2, #0]
 80062c8:	4b40      	ldr	r3, [pc, #256]	; (80063cc <xTaskIncrementTick+0x160>)
 80062ca:	681b      	ldr	r3, [r3, #0]
 80062cc:	3301      	adds	r3, #1
 80062ce:	4a3f      	ldr	r2, [pc, #252]	; (80063cc <xTaskIncrementTick+0x160>)
 80062d0:	6013      	str	r3, [r2, #0]
 80062d2:	f000 fa47 	bl	8006764 <prvResetNextTaskUnblockTime>

			/* See if this tick has made a timeout expire.  Tasks are stored in
			the	queue in the order of their wake time - meaning once one task
			has been found whose block time has not expired there is no need to
			look any further down the list. */
			if( xConstTickCount >= xNextTaskUnblockTime )
 80062d6:	4b3e      	ldr	r3, [pc, #248]	; (80063d0 <xTaskIncrementTick+0x164>)
 80062d8:	681b      	ldr	r3, [r3, #0]
 80062da:	693a      	ldr	r2, [r7, #16]
 80062dc:	429a      	cmp	r2, r3
 80062de:	d34d      	bcc.n	800637c <xTaskIncrementTick+0x110>
			{
				for( ;; )
				{
					if( listLIST_IS_EMPTY( pxDelayedTaskList ) != pdFALSE )
 80062e0:	4b38      	ldr	r3, [pc, #224]	; (80063c4 <xTaskIncrementTick+0x158>)
 80062e2:	681b      	ldr	r3, [r3, #0]
 80062e4:	681b      	ldr	r3, [r3, #0]
 80062e6:	2b00      	cmp	r3, #0
 80062e8:	d101      	bne.n	80062ee <xTaskIncrementTick+0x82>
 80062ea:	2301      	movs	r3, #1
 80062ec:	e000      	b.n	80062f0 <xTaskIncrementTick+0x84>
 80062ee:	2300      	movs	r3, #0
 80062f0:	2b00      	cmp	r3, #0
 80062f2:	d004      	beq.n	80062fe <xTaskIncrementTick+0x92>
						/* The delayed list is empty.  Set xNextTaskUnblockTime
						to the maximum possible value so it is extremely
						unlikely that the
						if( xTickCount >= xNextTaskUnblockTime ) test will pass
						next time through. */
						xNextTaskUnblockTime = portMAX_DELAY;
 80062f4:	4b36      	ldr	r3, [pc, #216]	; (80063d0 <xTaskIncrementTick+0x164>)
 80062f6:	f04f 32ff 	mov.w	r2, #4294967295
 80062fa:	601a      	str	r2, [r3, #0]
						break;
 80062fc:	e03e      	b.n	800637c <xTaskIncrementTick+0x110>
					{
						/* The delayed list is not empty, get the value of the
						item at the head of the delayed list.  This is the time
						at which the task at the head of the delayed list must
						be removed from the Blocked state. */
						pxTCB = ( TCB_t * ) listGET_OWNER_OF_HEAD_ENTRY( pxDelayedTaskList );
 80062fe:	4b31      	ldr	r3, [pc, #196]	; (80063c4 <xTaskIncrementTick+0x158>)
 8006300:	681b      	ldr	r3, [r3, #0]
 8006302:	68db      	ldr	r3, [r3, #12]
 8006304:	68db      	ldr	r3, [r3, #12]
 8006306:	60bb      	str	r3, [r7, #8]
						xItemValue = listGET_LIST_ITEM_VALUE( &( pxTCB->xGenericListItem ) );
 8006308:	68bb      	ldr	r3, [r7, #8]
 800630a:	685b      	ldr	r3, [r3, #4]
 800630c:	607b      	str	r3, [r7, #4]

						if( xConstTickCount < xItemValue )
 800630e:	693a      	ldr	r2, [r7, #16]
 8006310:	687b      	ldr	r3, [r7, #4]
 8006312:	429a      	cmp	r2, r3
 8006314:	d203      	bcs.n	800631e <xTaskIncrementTick+0xb2>
							/* It is not time to unblock this item yet, but the
							item value is the time at which the task at the head
							of the blocked list must be removed from the Blocked
							state -	so record the item value in
							xNextTaskUnblockTime. */
							xNextTaskUnblockTime = xItemValue;
 8006316:	4a2e      	ldr	r2, [pc, #184]	; (80063d0 <xTaskIncrementTick+0x164>)
 8006318:	687b      	ldr	r3, [r7, #4]
 800631a:	6013      	str	r3, [r2, #0]
							break;
 800631c:	e02e      	b.n	800637c <xTaskIncrementTick+0x110>
						{
							mtCOVERAGE_TEST_MARKER();
						}

						/* It is time to remove the item from the Blocked state. */
						( void ) uxListRemove( &( pxTCB->xGenericListItem ) );
 800631e:	68bb      	ldr	r3, [r7, #8]
 8006320:	3304      	adds	r3, #4
 8006322:	4618      	mov	r0, r3
 8006324:	f7ff f9c6 	bl	80056b4 <uxListRemove>

						/* Is the task waiting on an event also?  If so remove
						it from the event list. */
						if( listLIST_ITEM_CONTAINER( &( pxTCB->xEventListItem ) ) != NULL )
 8006328:	68bb      	ldr	r3, [r7, #8]
 800632a:	6a9b      	ldr	r3, [r3, #40]	; 0x28
 800632c:	2b00      	cmp	r3, #0
 800632e:	d004      	beq.n	800633a <xTaskIncrementTick+0xce>
						{
							( void ) uxListRemove( &( pxTCB->xEventListItem ) );
 8006330:	68bb      	ldr	r3, [r7, #8]
 8006332:	3318      	adds	r3, #24
 8006334:	4618      	mov	r0, r3
 8006336:	f7ff f9bd 	bl	80056b4 <uxListRemove>
							mtCOVERAGE_TEST_MARKER();
						}

						/* Place the unblocked task into the appropriate ready
						list. */
						prvAddTaskToReadyList( pxTCB );
 800633a:	68bb      	ldr	r3, [r7, #8]
 800633c:	6adb      	ldr	r3, [r3, #44]	; 0x2c
 800633e:	2201      	movs	r2, #1
 8006340:	409a      	lsls	r2, r3
 8006342:	4b24      	ldr	r3, [pc, #144]	; (80063d4 <xTaskIncrementTick+0x168>)
 8006344:	681b      	ldr	r3, [r3, #0]
 8006346:	4313      	orrs	r3, r2
 8006348:	4a22      	ldr	r2, [pc, #136]	; (80063d4 <xTaskIncrementTick+0x168>)
 800634a:	6013      	str	r3, [r2, #0]
 800634c:	68bb      	ldr	r3, [r7, #8]
 800634e:	6ada      	ldr	r2, [r3, #44]	; 0x2c
 8006350:	4613      	mov	r3, r2
 8006352:	009b      	lsls	r3, r3, #2
 8006354:	4413      	add	r3, r2
 8006356:	009b      	lsls	r3, r3, #2
 8006358:	4a1f      	ldr	r2, [pc, #124]	; (80063d8 <xTaskIncrementTick+0x16c>)
 800635a:	441a      	add	r2, r3
 800635c:	68bb      	ldr	r3, [r7, #8]
 800635e:	3304      	adds	r3, #4
 8006360:	4619      	mov	r1, r3
 8006362:	4610      	mov	r0, r2
 8006364:	f7ff f949 	bl	80055fa <vListInsertEnd>
						{
							/* Preemption is on, but a context switch should
							only be performed if the unblocked task has a
							priority that is equal to or higher than the
							currently executing task. */
							if( pxTCB->uxPriority >= pxCurrentTCB->uxPriority )
 8006368:	68bb      	ldr	r3, [r7, #8]
 800636a:	6ada      	ldr	r2, [r3, #44]	; 0x2c
 800636c:	4b1b      	ldr	r3, [pc, #108]	; (80063dc <xTaskIncrementTick+0x170>)
 800636e:	681b      	ldr	r3, [r3, #0]
 8006370:	6adb      	ldr	r3, [r3, #44]	; 0x2c
 8006372:	429a      	cmp	r2, r3
 8006374:	d3b4      	bcc.n	80062e0 <xTaskIncrementTick+0x74>
							{
								xSwitchRequired = pdTRUE;
 8006376:	2301      	movs	r3, #1
 8006378:	617b      	str	r3, [r7, #20]
					if( listLIST_IS_EMPTY( pxDelayedTaskList ) != pdFALSE )
 800637a:	e7b1      	b.n	80062e0 <xTaskIncrementTick+0x74>
		/* Tasks of equal priority to the currently running task will share
		processing time (time slice) if preemption is on, and the application
		writer has not explicitly turned time slicing off. */
		#if ( ( configUSE_PREEMPTION == 1 ) && ( configUSE_TIME_SLICING == 1 ) )
		{
			if( listCURRENT_LIST_LENGTH( &( pxReadyTasksLists[ pxCurrentTCB->uxPriority ] ) ) > ( UBaseType_t ) 1 )
 800637c:	4b17      	ldr	r3, [pc, #92]	; (80063dc <xTaskIncrementTick+0x170>)
 800637e:	681b      	ldr	r3, [r3, #0]
 8006380:	6ada      	ldr	r2, [r3, #44]	; 0x2c
 8006382:	4915      	ldr	r1, [pc, #84]	; (80063d8 <xTaskIncrementTick+0x16c>)
 8006384:	4613      	mov	r3, r2
 8006386:	009b      	lsls	r3, r3, #2
 8006388:	4413      	add	r3, r2
 800638a:	009b      	lsls	r3, r3, #2
 800638c:	440b      	add	r3, r1
 800638e:	681b      	ldr	r3, [r3, #0]
 8006390:	2b01      	cmp	r3, #1
 8006392:	d907      	bls.n	80063a4 <xTaskIncrementTick+0x138>
			{
				xSwitchRequired = pdTRUE;
 8006394:	2301      	movs	r3, #1
 8006396:	617b      	str	r3, [r7, #20]
 8006398:	e004      	b.n	80063a4 <xTaskIncrementTick+0x138>
		}
		#endif /* configUSE_TICK_HOOK */
	}
	else
	{
		++uxPendedTicks;
 800639a:	4b11      	ldr	r3, [pc, #68]	; (80063e0 <xTaskIncrementTick+0x174>)
 800639c:	681b      	ldr	r3, [r3, #0]
 800639e:	3301      	adds	r3, #1
 80063a0:	4a0f      	ldr	r2, [pc, #60]	; (80063e0 <xTaskIncrementTick+0x174>)
 80063a2:	6013      	str	r3, [r2, #0]
		#endif
	}

	#if ( configUSE_PREEMPTION == 1 )
	{
		if( xYieldPending != pdFALSE )
 80063a4:	4b0f      	ldr	r3, [pc, #60]	; (80063e4 <xTaskIncrementTick+0x178>)
 80063a6:	681b      	ldr	r3, [r3, #0]
 80063a8:	2b00      	cmp	r3, #0
 80063aa:	d001      	beq.n	80063b0 <xTaskIncrementTick+0x144>
		{
			xSwitchRequired = pdTRUE;
 80063ac:	2301      	movs	r3, #1
 80063ae:	617b      	str	r3, [r7, #20]
			mtCOVERAGE_TEST_MARKER();
		}
	}
	#endif /* configUSE_PREEMPTION */

	return xSwitchRequired;
 80063b0:	697b      	ldr	r3, [r7, #20]
}
 80063b2:	4618      	mov	r0, r3
 80063b4:	3718      	adds	r7, #24
 80063b6:	46bd      	mov	sp, r7
 80063b8:	bd80      	pop	{r7, pc}
 80063ba:	bf00      	nop
 80063bc:	20007f0c 	.word	0x20007f0c
 80063c0:	20007eec 	.word	0x20007eec
 80063c4:	20007ea0 	.word	0x20007ea0
 80063c8:	20007ea4 	.word	0x20007ea4
 80063cc:	20007f00 	.word	0x20007f00
 80063d0:	20007f08 	.word	0x20007f08
 80063d4:	20007ef0 	.word	0x20007ef0
 80063d8:	20007dec 	.word	0x20007dec
 80063dc:	20007de8 	.word	0x20007de8
 80063e0:	20007ef8 	.word	0x20007ef8
 80063e4:	20007efc 	.word	0x20007efc

080063e8 <vTaskSwitchContext>:

#endif /* configUSE_APPLICATION_TASK_TAG */
/*-----------------------------------------------------------*/

void vTaskSwitchContext( void )
{
 80063e8:	b480      	push	{r7}
 80063ea:	b087      	sub	sp, #28
 80063ec:	af00      	add	r7, sp, #0
	if( uxSchedulerSuspended != ( UBaseType_t ) pdFALSE )
 80063ee:	4b26      	ldr	r3, [pc, #152]	; (8006488 <vTaskSwitchContext+0xa0>)
 80063f0:	681b      	ldr	r3, [r3, #0]
 80063f2:	2b00      	cmp	r3, #0
 80063f4:	d003      	beq.n	80063fe <vTaskSwitchContext+0x16>
	{
		/* The scheduler is currently suspended - do not allow a context
		switch. */
		xYieldPending = pdTRUE;
 80063f6:	4b25      	ldr	r3, [pc, #148]	; (800648c <vTaskSwitchContext+0xa4>)
 80063f8:	2201      	movs	r2, #1
 80063fa:	601a      	str	r2, [r3, #0]
			structure specific to this task. */
			_impure_ptr = &( pxCurrentTCB->xNewLib_reent );
		}
		#endif /* configUSE_NEWLIB_REENTRANT */
	}
}
 80063fc:	e03e      	b.n	800647c <vTaskSwitchContext+0x94>
		xYieldPending = pdFALSE;
 80063fe:	4b23      	ldr	r3, [pc, #140]	; (800648c <vTaskSwitchContext+0xa4>)
 8006400:	2200      	movs	r2, #0
 8006402:	601a      	str	r2, [r3, #0]
		taskSELECT_HIGHEST_PRIORITY_TASK();
 8006404:	4b22      	ldr	r3, [pc, #136]	; (8006490 <vTaskSwitchContext+0xa8>)
 8006406:	681b      	ldr	r3, [r3, #0]
 8006408:	60fb      	str	r3, [r7, #12]
		__asm volatile ( "clz %0, %1" : "=r" ( ucReturn ) : "r" ( ulBitmap ) );
 800640a:	68fb      	ldr	r3, [r7, #12]
 800640c:	fab3 f383 	clz	r3, r3
 8006410:	72fb      	strb	r3, [r7, #11]
		return ucReturn;
 8006412:	7afb      	ldrb	r3, [r7, #11]
 8006414:	f1c3 031f 	rsb	r3, r3, #31
 8006418:	617b      	str	r3, [r7, #20]
 800641a:	491e      	ldr	r1, [pc, #120]	; (8006494 <vTaskSwitchContext+0xac>)
 800641c:	697a      	ldr	r2, [r7, #20]
 800641e:	4613      	mov	r3, r2
 8006420:	009b      	lsls	r3, r3, #2
 8006422:	4413      	add	r3, r2
 8006424:	009b      	lsls	r3, r3, #2
 8006426:	440b      	add	r3, r1
 8006428:	681b      	ldr	r3, [r3, #0]
 800642a:	2b00      	cmp	r3, #0
 800642c:	d109      	bne.n	8006442 <vTaskSwitchContext+0x5a>
	__asm volatile
 800642e:	f04f 0350 	mov.w	r3, #80	; 0x50
 8006432:	f383 8811 	msr	BASEPRI, r3
 8006436:	f3bf 8f6f 	isb	sy
 800643a:	f3bf 8f4f 	dsb	sy
 800643e:	607b      	str	r3, [r7, #4]
 8006440:	e7fe      	b.n	8006440 <vTaskSwitchContext+0x58>
 8006442:	697a      	ldr	r2, [r7, #20]
 8006444:	4613      	mov	r3, r2
 8006446:	009b      	lsls	r3, r3, #2
 8006448:	4413      	add	r3, r2
 800644a:	009b      	lsls	r3, r3, #2
 800644c:	4a11      	ldr	r2, [pc, #68]	; (8006494 <vTaskSwitchContext+0xac>)
 800644e:	4413      	add	r3, r2
 8006450:	613b      	str	r3, [r7, #16]
 8006452:	693b      	ldr	r3, [r7, #16]
 8006454:	685b      	ldr	r3, [r3, #4]
 8006456:	685a      	ldr	r2, [r3, #4]
 8006458:	693b      	ldr	r3, [r7, #16]
 800645a:	605a      	str	r2, [r3, #4]
 800645c:	693b      	ldr	r3, [r7, #16]
 800645e:	685a      	ldr	r2, [r3, #4]
 8006460:	693b      	ldr	r3, [r7, #16]
 8006462:	3308      	adds	r3, #8
 8006464:	429a      	cmp	r2, r3
 8006466:	d104      	bne.n	8006472 <vTaskSwitchContext+0x8a>
 8006468:	693b      	ldr	r3, [r7, #16]
 800646a:	685b      	ldr	r3, [r3, #4]
 800646c:	685a      	ldr	r2, [r3, #4]
 800646e:	693b      	ldr	r3, [r7, #16]
 8006470:	605a      	str	r2, [r3, #4]
 8006472:	693b      	ldr	r3, [r7, #16]
 8006474:	685b      	ldr	r3, [r3, #4]
 8006476:	68db      	ldr	r3, [r3, #12]
 8006478:	4a07      	ldr	r2, [pc, #28]	; (8006498 <vTaskSwitchContext+0xb0>)
 800647a:	6013      	str	r3, [r2, #0]
}
 800647c:	bf00      	nop
 800647e:	371c      	adds	r7, #28
 8006480:	46bd      	mov	sp, r7
 8006482:	f85d 7b04 	ldr.w	r7, [sp], #4
 8006486:	4770      	bx	lr
 8006488:	20007f0c 	.word	0x20007f0c
 800648c:	20007efc 	.word	0x20007efc
 8006490:	20007ef0 	.word	0x20007ef0
 8006494:	20007dec 	.word	0x20007dec
 8006498:	20007de8 	.word	0x20007de8

0800649c <prvIdleTask>:
 *
 * void prvIdleTask( void *pvParameters );
 *
 */
static portTASK_FUNCTION( prvIdleTask, pvParameters )
{
 800649c:	b580      	push	{r7, lr}
 800649e:	b082      	sub	sp, #8
 80064a0:	af00      	add	r7, sp, #0
 80064a2:	6078      	str	r0, [r7, #4]
	( void ) pvParameters;

	for( ;; )
	{
		/* See if any tasks have been deleted. */
		prvCheckTasksWaitingTermination();
 80064a4:	f000 f8a6 	bl	80065f4 <prvCheckTasksWaitingTermination>

			A critical region is not required here as we are just reading from
			the list, and an occasional incorrect value will not matter.  If
			the ready list at the idle priority contains more than one task
			then a task other than the idle task is ready to execute. */
			if( listCURRENT_LIST_LENGTH( &( pxReadyTasksLists[ tskIDLE_PRIORITY ] ) ) > ( UBaseType_t ) 1 )
 80064a8:	4b06      	ldr	r3, [pc, #24]	; (80064c4 <prvIdleTask+0x28>)
 80064aa:	681b      	ldr	r3, [r3, #0]
 80064ac:	2b01      	cmp	r3, #1
 80064ae:	d9f9      	bls.n	80064a4 <prvIdleTask+0x8>
			{
				taskYIELD();
 80064b0:	4b05      	ldr	r3, [pc, #20]	; (80064c8 <prvIdleTask+0x2c>)
 80064b2:	f04f 5280 	mov.w	r2, #268435456	; 0x10000000
 80064b6:	601a      	str	r2, [r3, #0]
 80064b8:	f3bf 8f4f 	dsb	sy
 80064bc:	f3bf 8f6f 	isb	sy
		prvCheckTasksWaitingTermination();
 80064c0:	e7f0      	b.n	80064a4 <prvIdleTask+0x8>
 80064c2:	bf00      	nop
 80064c4:	20007dec 	.word	0x20007dec
 80064c8:	e000ed04 	.word	0xe000ed04

080064cc <prvInitialiseTCBVariables>:

#endif /* configUSE_TICKLESS_IDLE */
/*-----------------------------------------------------------*/

static void prvInitialiseTCBVariables( TCB_t * const pxTCB, const char * const pcName, UBaseType_t uxPriority, const MemoryRegion_t * const xRegions, const uint16_t usStackDepth ) /*lint !e971 Unqualified char types are allowed for strings and single characters only. */
{
 80064cc:	b580      	push	{r7, lr}
 80064ce:	b086      	sub	sp, #24
 80064d0:	af00      	add	r7, sp, #0
 80064d2:	60f8      	str	r0, [r7, #12]
 80064d4:	60b9      	str	r1, [r7, #8]
 80064d6:	607a      	str	r2, [r7, #4]
 80064d8:	603b      	str	r3, [r7, #0]
UBaseType_t x;

	/* Store the task name in the TCB. */
	for( x = ( UBaseType_t ) 0; x < ( UBaseType_t ) configMAX_TASK_NAME_LEN; x++ )
 80064da:	2300      	movs	r3, #0
 80064dc:	617b      	str	r3, [r7, #20]
 80064de:	e012      	b.n	8006506 <prvInitialiseTCBVariables+0x3a>
	{
		pxTCB->pcTaskName[ x ] = pcName[ x ];
 80064e0:	68ba      	ldr	r2, [r7, #8]
 80064e2:	697b      	ldr	r3, [r7, #20]
 80064e4:	4413      	add	r3, r2
 80064e6:	7819      	ldrb	r1, [r3, #0]
 80064e8:	68fa      	ldr	r2, [r7, #12]
 80064ea:	697b      	ldr	r3, [r7, #20]
 80064ec:	4413      	add	r3, r2
 80064ee:	3334      	adds	r3, #52	; 0x34
 80064f0:	460a      	mov	r2, r1
 80064f2:	701a      	strb	r2, [r3, #0]

		/* Don't copy all configMAX_TASK_NAME_LEN if the string is shorter than
		configMAX_TASK_NAME_LEN characters just in case the memory after the
		string is not accessible (extremely unlikely). */
		if( pcName[ x ] == 0x00 )
 80064f4:	68ba      	ldr	r2, [r7, #8]
 80064f6:	697b      	ldr	r3, [r7, #20]
 80064f8:	4413      	add	r3, r2
 80064fa:	781b      	ldrb	r3, [r3, #0]
 80064fc:	2b00      	cmp	r3, #0
 80064fe:	d006      	beq.n	800650e <prvInitialiseTCBVariables+0x42>
	for( x = ( UBaseType_t ) 0; x < ( UBaseType_t ) configMAX_TASK_NAME_LEN; x++ )
 8006500:	697b      	ldr	r3, [r7, #20]
 8006502:	3301      	adds	r3, #1
 8006504:	617b      	str	r3, [r7, #20]
 8006506:	697b      	ldr	r3, [r7, #20]
 8006508:	2b0f      	cmp	r3, #15
 800650a:	d9e9      	bls.n	80064e0 <prvInitialiseTCBVariables+0x14>
 800650c:	e000      	b.n	8006510 <prvInitialiseTCBVariables+0x44>
		{
			break;
 800650e:	bf00      	nop
		}
	}

	/* Ensure the name string is terminated in the case that the string length
	was greater or equal to configMAX_TASK_NAME_LEN. */
	pxTCB->pcTaskName[ configMAX_TASK_NAME_LEN - 1 ] = '\0';
 8006510:	68fb      	ldr	r3, [r7, #12]
 8006512:	2200      	movs	r2, #0
 8006514:	f883 2043 	strb.w	r2, [r3, #67]	; 0x43

	/* This is used as an array index so must ensure it's not too large.  First
	remove the privilege bit if one is present. */
	if( uxPriority >= ( UBaseType_t ) configMAX_PRIORITIES )
 8006518:	687b      	ldr	r3, [r7, #4]
 800651a:	2b06      	cmp	r3, #6
 800651c:	d901      	bls.n	8006522 <prvInitialiseTCBVariables+0x56>
	{
		uxPriority = ( UBaseType_t ) configMAX_PRIORITIES - ( UBaseType_t ) 1U;
 800651e:	2306      	movs	r3, #6
 8006520:	607b      	str	r3, [r7, #4]
	else
	{
		mtCOVERAGE_TEST_MARKER();
	}

	pxTCB->uxPriority = uxPriority;
 8006522:	68fb      	ldr	r3, [r7, #12]
 8006524:	687a      	ldr	r2, [r7, #4]
 8006526:	62da      	str	r2, [r3, #44]	; 0x2c
	#if ( configUSE_MUTEXES == 1 )
	{
		pxTCB->uxBasePriority = uxPriority;
 8006528:	68fb      	ldr	r3, [r7, #12]
 800652a:	687a      	ldr	r2, [r7, #4]
 800652c:	64da      	str	r2, [r3, #76]	; 0x4c
		pxTCB->uxMutexesHeld = 0;
 800652e:	68fb      	ldr	r3, [r7, #12]
 8006530:	2200      	movs	r2, #0
 8006532:	651a      	str	r2, [r3, #80]	; 0x50
	}
	#endif /* configUSE_MUTEXES */

	vListInitialiseItem( &( pxTCB->xGenericListItem ) );
 8006534:	68fb      	ldr	r3, [r7, #12]
 8006536:	3304      	adds	r3, #4
 8006538:	4618      	mov	r0, r3
 800653a:	f7ff f851 	bl	80055e0 <vListInitialiseItem>
	vListInitialiseItem( &( pxTCB->xEventListItem ) );
 800653e:	68fb      	ldr	r3, [r7, #12]
 8006540:	3318      	adds	r3, #24
 8006542:	4618      	mov	r0, r3
 8006544:	f7ff f84c 	bl	80055e0 <vListInitialiseItem>

	/* Set the pxTCB as a link back from the ListItem_t.  This is so we can get
	back to	the containing TCB from a generic item in a list. */
	listSET_LIST_ITEM_OWNER( &( pxTCB->xGenericListItem ), pxTCB );
 8006548:	68fb      	ldr	r3, [r7, #12]
 800654a:	68fa      	ldr	r2, [r7, #12]
 800654c:	611a      	str	r2, [r3, #16]

	/* Event lists are always in priority order. */
	listSET_LIST_ITEM_VALUE( &( pxTCB->xEventListItem ), ( TickType_t ) configMAX_PRIORITIES - ( TickType_t ) uxPriority ); /*lint !e961 MISRA exception as the casts are only redundant for some ports. */
 800654e:	687b      	ldr	r3, [r7, #4]
 8006550:	f1c3 0207 	rsb	r2, r3, #7
 8006554:	68fb      	ldr	r3, [r7, #12]
 8006556:	619a      	str	r2, [r3, #24]
	listSET_LIST_ITEM_OWNER( &( pxTCB->xEventListItem ), pxTCB );
 8006558:	68fb      	ldr	r3, [r7, #12]
 800655a:	68fa      	ldr	r2, [r7, #12]
 800655c:	625a      	str	r2, [r3, #36]	; 0x24
	}
	#endif

	#if ( configUSE_TASK_NOTIFICATIONS == 1 )
	{
		pxTCB->ulNotifiedValue = 0;
 800655e:	68fb      	ldr	r3, [r7, #12]
 8006560:	2200      	movs	r2, #0
 8006562:	655a      	str	r2, [r3, #84]	; 0x54
		pxTCB->eNotifyState = eNotWaitingNotification;
 8006564:	68fb      	ldr	r3, [r7, #12]
 8006566:	2200      	movs	r2, #0
 8006568:	f883 2058 	strb.w	r2, [r3, #88]	; 0x58
	{
		/* Initialise this task's Newlib reent structure. */
		_REENT_INIT_PTR( ( &( pxTCB->xNewLib_reent ) ) );
	}
	#endif /* configUSE_NEWLIB_REENTRANT */
}
 800656c:	bf00      	nop
 800656e:	3718      	adds	r7, #24
 8006570:	46bd      	mov	sp, r7
 8006572:	bd80      	pop	{r7, pc}

08006574 <prvInitialiseTaskLists>:

#endif /* portUSING_MPU_WRAPPERS */
/*-----------------------------------------------------------*/

static void prvInitialiseTaskLists( void )
{
 8006574:	b580      	push	{r7, lr}
 8006576:	b082      	sub	sp, #8
 8006578:	af00      	add	r7, sp, #0
UBaseType_t uxPriority;

	for( uxPriority = ( UBaseType_t ) 0U; uxPriority < ( UBaseType_t ) configMAX_PRIORITIES; uxPriority++ )
 800657a:	2300      	movs	r3, #0
 800657c:	607b      	str	r3, [r7, #4]
 800657e:	e00c      	b.n	800659a <prvInitialiseTaskLists+0x26>
	{
		vListInitialise( &( pxReadyTasksLists[ uxPriority ] ) );
 8006580:	687a      	ldr	r2, [r7, #4]
 8006582:	4613      	mov	r3, r2
 8006584:	009b      	lsls	r3, r3, #2
 8006586:	4413      	add	r3, r2
 8006588:	009b      	lsls	r3, r3, #2
 800658a:	4a12      	ldr	r2, [pc, #72]	; (80065d4 <prvInitialiseTaskLists+0x60>)
 800658c:	4413      	add	r3, r2
 800658e:	4618      	mov	r0, r3
 8006590:	f7ff f806 	bl	80055a0 <vListInitialise>
	for( uxPriority = ( UBaseType_t ) 0U; uxPriority < ( UBaseType_t ) configMAX_PRIORITIES; uxPriority++ )
 8006594:	687b      	ldr	r3, [r7, #4]
 8006596:	3301      	adds	r3, #1
 8006598:	607b      	str	r3, [r7, #4]
 800659a:	687b      	ldr	r3, [r7, #4]
 800659c:	2b06      	cmp	r3, #6
 800659e:	d9ef      	bls.n	8006580 <prvInitialiseTaskLists+0xc>
	}

	vListInitialise( &xDelayedTaskList1 );
 80065a0:	480d      	ldr	r0, [pc, #52]	; (80065d8 <prvInitialiseTaskLists+0x64>)
 80065a2:	f7fe fffd 	bl	80055a0 <vListInitialise>
	vListInitialise( &xDelayedTaskList2 );
 80065a6:	480d      	ldr	r0, [pc, #52]	; (80065dc <prvInitialiseTaskLists+0x68>)
 80065a8:	f7fe fffa 	bl	80055a0 <vListInitialise>
	vListInitialise( &xPendingReadyList );
 80065ac:	480c      	ldr	r0, [pc, #48]	; (80065e0 <prvInitialiseTaskLists+0x6c>)
 80065ae:	f7fe fff7 	bl	80055a0 <vListInitialise>

	#if ( INCLUDE_vTaskDelete == 1 )
	{
		vListInitialise( &xTasksWaitingTermination );
 80065b2:	480c      	ldr	r0, [pc, #48]	; (80065e4 <prvInitialiseTaskLists+0x70>)
 80065b4:	f7fe fff4 	bl	80055a0 <vListInitialise>
	}
	#endif /* INCLUDE_vTaskDelete */

	#if ( INCLUDE_vTaskSuspend == 1 )
	{
		vListInitialise( &xSuspendedTaskList );
 80065b8:	480b      	ldr	r0, [pc, #44]	; (80065e8 <prvInitialiseTaskLists+0x74>)
 80065ba:	f7fe fff1 	bl	80055a0 <vListInitialise>
	}
	#endif /* INCLUDE_vTaskSuspend */

	/* Start with pxDelayedTaskList using list1 and the pxOverflowDelayedTaskList
	using list2. */
	pxDelayedTaskList = &xDelayedTaskList1;
 80065be:	4b0b      	ldr	r3, [pc, #44]	; (80065ec <prvInitialiseTaskLists+0x78>)
 80065c0:	4a05      	ldr	r2, [pc, #20]	; (80065d8 <prvInitialiseTaskLists+0x64>)
 80065c2:	601a      	str	r2, [r3, #0]
	pxOverflowDelayedTaskList = &xDelayedTaskList2;
 80065c4:	4b0a      	ldr	r3, [pc, #40]	; (80065f0 <prvInitialiseTaskLists+0x7c>)
 80065c6:	4a05      	ldr	r2, [pc, #20]	; (80065dc <prvInitialiseTaskLists+0x68>)
 80065c8:	601a      	str	r2, [r3, #0]
}
 80065ca:	bf00      	nop
 80065cc:	3708      	adds	r7, #8
 80065ce:	46bd      	mov	sp, r7
 80065d0:	bd80      	pop	{r7, pc}
 80065d2:	bf00      	nop
 80065d4:	20007dec 	.word	0x20007dec
 80065d8:	20007e78 	.word	0x20007e78
 80065dc:	20007e8c 	.word	0x20007e8c
 80065e0:	20007ea8 	.word	0x20007ea8
 80065e4:	20007ebc 	.word	0x20007ebc
 80065e8:	20007ed4 	.word	0x20007ed4
 80065ec:	20007ea0 	.word	0x20007ea0
 80065f0:	20007ea4 	.word	0x20007ea4

080065f4 <prvCheckTasksWaitingTermination>:
/*-----------------------------------------------------------*/

static void prvCheckTasksWaitingTermination( void )
{
 80065f4:	b580      	push	{r7, lr}
 80065f6:	b082      	sub	sp, #8
 80065f8:	af00      	add	r7, sp, #0
	{
		BaseType_t xListIsEmpty;

		/* ucTasksDeleted is used to prevent vTaskSuspendAll() being called
		too often in the idle task. */
		while( uxTasksDeleted > ( UBaseType_t ) 0U )
 80065fa:	e028      	b.n	800664e <prvCheckTasksWaitingTermination+0x5a>
		{
			vTaskSuspendAll();
 80065fc:	f7ff fd94 	bl	8006128 <vTaskSuspendAll>
			{
				xListIsEmpty = listLIST_IS_EMPTY( &xTasksWaitingTermination );
 8006600:	4b17      	ldr	r3, [pc, #92]	; (8006660 <prvCheckTasksWaitingTermination+0x6c>)
 8006602:	681b      	ldr	r3, [r3, #0]
 8006604:	2b00      	cmp	r3, #0
 8006606:	bf0c      	ite	eq
 8006608:	2301      	moveq	r3, #1
 800660a:	2300      	movne	r3, #0
 800660c:	b2db      	uxtb	r3, r3
 800660e:	607b      	str	r3, [r7, #4]
			}
			( void ) xTaskResumeAll();
 8006610:	f7ff fd98 	bl	8006144 <xTaskResumeAll>

			if( xListIsEmpty == pdFALSE )
 8006614:	687b      	ldr	r3, [r7, #4]
 8006616:	2b00      	cmp	r3, #0
 8006618:	d119      	bne.n	800664e <prvCheckTasksWaitingTermination+0x5a>
			{
				TCB_t *pxTCB;

				taskENTER_CRITICAL();
 800661a:	f7ff f973 	bl	8005904 <vPortEnterCritical>
				{
					pxTCB = ( TCB_t * ) listGET_OWNER_OF_HEAD_ENTRY( ( &xTasksWaitingTermination ) );
 800661e:	4b10      	ldr	r3, [pc, #64]	; (8006660 <prvCheckTasksWaitingTermination+0x6c>)
 8006620:	68db      	ldr	r3, [r3, #12]
 8006622:	68db      	ldr	r3, [r3, #12]
 8006624:	603b      	str	r3, [r7, #0]
					( void ) uxListRemove( &( pxTCB->xGenericListItem ) );
 8006626:	683b      	ldr	r3, [r7, #0]
 8006628:	3304      	adds	r3, #4
 800662a:	4618      	mov	r0, r3
 800662c:	f7ff f842 	bl	80056b4 <uxListRemove>
					--uxCurrentNumberOfTasks;
 8006630:	4b0c      	ldr	r3, [pc, #48]	; (8006664 <prvCheckTasksWaitingTermination+0x70>)
 8006632:	681b      	ldr	r3, [r3, #0]
 8006634:	3b01      	subs	r3, #1
 8006636:	4a0b      	ldr	r2, [pc, #44]	; (8006664 <prvCheckTasksWaitingTermination+0x70>)
 8006638:	6013      	str	r3, [r2, #0]
					--uxTasksDeleted;
 800663a:	4b0b      	ldr	r3, [pc, #44]	; (8006668 <prvCheckTasksWaitingTermination+0x74>)
 800663c:	681b      	ldr	r3, [r3, #0]
 800663e:	3b01      	subs	r3, #1
 8006640:	4a09      	ldr	r2, [pc, #36]	; (8006668 <prvCheckTasksWaitingTermination+0x74>)
 8006642:	6013      	str	r3, [r2, #0]
				}
				taskEXIT_CRITICAL();
 8006644:	f7ff f98c 	bl	8005960 <vPortExitCritical>

				prvDeleteTCB( pxTCB );
 8006648:	6838      	ldr	r0, [r7, #0]
 800664a:	f000 f87b 	bl	8006744 <prvDeleteTCB>
		while( uxTasksDeleted > ( UBaseType_t ) 0U )
 800664e:	4b06      	ldr	r3, [pc, #24]	; (8006668 <prvCheckTasksWaitingTermination+0x74>)
 8006650:	681b      	ldr	r3, [r3, #0]
 8006652:	2b00      	cmp	r3, #0
 8006654:	d1d2      	bne.n	80065fc <prvCheckTasksWaitingTermination+0x8>
				mtCOVERAGE_TEST_MARKER();
			}
		}
	}
	#endif /* vTaskDelete */
}
 8006656:	bf00      	nop
 8006658:	3708      	adds	r7, #8
 800665a:	46bd      	mov	sp, r7
 800665c:	bd80      	pop	{r7, pc}
 800665e:	bf00      	nop
 8006660:	20007ebc 	.word	0x20007ebc
 8006664:	20007ee8 	.word	0x20007ee8
 8006668:	20007ed0 	.word	0x20007ed0

0800666c <prvAddCurrentTaskToDelayedList>:
/*-----------------------------------------------------------*/

static void prvAddCurrentTaskToDelayedList( const TickType_t xTimeToWake )
{
 800666c:	b580      	push	{r7, lr}
 800666e:	b082      	sub	sp, #8
 8006670:	af00      	add	r7, sp, #0
 8006672:	6078      	str	r0, [r7, #4]
	/* The list item will be inserted in wake time order. */
	listSET_LIST_ITEM_VALUE( &( pxCurrentTCB->xGenericListItem ), xTimeToWake );
 8006674:	4b13      	ldr	r3, [pc, #76]	; (80066c4 <prvAddCurrentTaskToDelayedList+0x58>)
 8006676:	681b      	ldr	r3, [r3, #0]
 8006678:	687a      	ldr	r2, [r7, #4]
 800667a:	605a      	str	r2, [r3, #4]

	if( xTimeToWake < xTickCount )
 800667c:	4b12      	ldr	r3, [pc, #72]	; (80066c8 <prvAddCurrentTaskToDelayedList+0x5c>)
 800667e:	681b      	ldr	r3, [r3, #0]
 8006680:	687a      	ldr	r2, [r7, #4]
 8006682:	429a      	cmp	r2, r3
 8006684:	d209      	bcs.n	800669a <prvAddCurrentTaskToDelayedList+0x2e>
	{
		/* Wake time has overflowed.  Place this item in the overflow list. */
		vListInsert( pxOverflowDelayedTaskList, &( pxCurrentTCB->xGenericListItem ) );
 8006686:	4b11      	ldr	r3, [pc, #68]	; (80066cc <prvAddCurrentTaskToDelayedList+0x60>)
 8006688:	681a      	ldr	r2, [r3, #0]
 800668a:	4b0e      	ldr	r3, [pc, #56]	; (80066c4 <prvAddCurrentTaskToDelayedList+0x58>)
 800668c:	681b      	ldr	r3, [r3, #0]
 800668e:	3304      	adds	r3, #4
 8006690:	4619      	mov	r1, r3
 8006692:	4610      	mov	r0, r2
 8006694:	f7fe ffd5 	bl	8005642 <vListInsert>
		else
		{
			mtCOVERAGE_TEST_MARKER();
		}
	}
}
 8006698:	e010      	b.n	80066bc <prvAddCurrentTaskToDelayedList+0x50>
		vListInsert( pxDelayedTaskList, &( pxCurrentTCB->xGenericListItem ) );
 800669a:	4b0d      	ldr	r3, [pc, #52]	; (80066d0 <prvAddCurrentTaskToDelayedList+0x64>)
 800669c:	681a      	ldr	r2, [r3, #0]
 800669e:	4b09      	ldr	r3, [pc, #36]	; (80066c4 <prvAddCurrentTaskToDelayedList+0x58>)
 80066a0:	681b      	ldr	r3, [r3, #0]
 80066a2:	3304      	adds	r3, #4
 80066a4:	4619      	mov	r1, r3
 80066a6:	4610      	mov	r0, r2
 80066a8:	f7fe ffcb 	bl	8005642 <vListInsert>
		if( xTimeToWake < xNextTaskUnblockTime )
 80066ac:	4b09      	ldr	r3, [pc, #36]	; (80066d4 <prvAddCurrentTaskToDelayedList+0x68>)
 80066ae:	681b      	ldr	r3, [r3, #0]
 80066b0:	687a      	ldr	r2, [r7, #4]
 80066b2:	429a      	cmp	r2, r3
 80066b4:	d202      	bcs.n	80066bc <prvAddCurrentTaskToDelayedList+0x50>
			xNextTaskUnblockTime = xTimeToWake;
 80066b6:	4a07      	ldr	r2, [pc, #28]	; (80066d4 <prvAddCurrentTaskToDelayedList+0x68>)
 80066b8:	687b      	ldr	r3, [r7, #4]
 80066ba:	6013      	str	r3, [r2, #0]
}
 80066bc:	bf00      	nop
 80066be:	3708      	adds	r7, #8
 80066c0:	46bd      	mov	sp, r7
 80066c2:	bd80      	pop	{r7, pc}
 80066c4:	20007de8 	.word	0x20007de8
 80066c8:	20007eec 	.word	0x20007eec
 80066cc:	20007ea4 	.word	0x20007ea4
 80066d0:	20007ea0 	.word	0x20007ea0
 80066d4:	20007f08 	.word	0x20007f08

080066d8 <prvAllocateTCBAndStack>:
/*-----------------------------------------------------------*/

static TCB_t *prvAllocateTCBAndStack( const uint16_t usStackDepth, StackType_t * const puxStackBuffer )
{
 80066d8:	b580      	push	{r7, lr}
 80066da:	b084      	sub	sp, #16
 80066dc:	af00      	add	r7, sp, #0
 80066de:	4603      	mov	r3, r0
 80066e0:	6039      	str	r1, [r7, #0]
 80066e2:	80fb      	strh	r3, [r7, #6]
	#else /* portSTACK_GROWTH */
	{
	StackType_t *pxStack;

		/* Allocate space for the stack used by the task being created. */
		pxStack = ( StackType_t * ) pvPortMallocAligned( ( ( ( size_t ) usStackDepth ) * sizeof( StackType_t ) ), puxStackBuffer ); /*lint !e961 MISRA exception as the casts are only redundant for some ports. */
 80066e4:	683b      	ldr	r3, [r7, #0]
 80066e6:	2b00      	cmp	r3, #0
 80066e8:	d106      	bne.n	80066f8 <prvAllocateTCBAndStack+0x20>
 80066ea:	88fb      	ldrh	r3, [r7, #6]
 80066ec:	009b      	lsls	r3, r3, #2
 80066ee:	4618      	mov	r0, r3
 80066f0:	f7ff f9da 	bl	8005aa8 <pvPortMalloc>
 80066f4:	4603      	mov	r3, r0
 80066f6:	e000      	b.n	80066fa <prvAllocateTCBAndStack+0x22>
 80066f8:	683b      	ldr	r3, [r7, #0]
 80066fa:	60bb      	str	r3, [r7, #8]

		if( pxStack != NULL )
 80066fc:	68bb      	ldr	r3, [r7, #8]
 80066fe:	2b00      	cmp	r3, #0
 8006700:	d00e      	beq.n	8006720 <prvAllocateTCBAndStack+0x48>
		{
			/* Allocate space for the TCB.  Where the memory comes from depends
			on the implementation of the port malloc function. */
			pxNewTCB = ( TCB_t * ) pvPortMalloc( sizeof( TCB_t ) );
 8006702:	205c      	movs	r0, #92	; 0x5c
 8006704:	f7ff f9d0 	bl	8005aa8 <pvPortMalloc>
 8006708:	60f8      	str	r0, [r7, #12]

			if( pxNewTCB != NULL )
 800670a:	68fb      	ldr	r3, [r7, #12]
 800670c:	2b00      	cmp	r3, #0
 800670e:	d003      	beq.n	8006718 <prvAllocateTCBAndStack+0x40>
			{
				/* Store the stack location in the TCB. */
				pxNewTCB->pxStack = pxStack;
 8006710:	68fb      	ldr	r3, [r7, #12]
 8006712:	68ba      	ldr	r2, [r7, #8]
 8006714:	631a      	str	r2, [r3, #48]	; 0x30
 8006716:	e005      	b.n	8006724 <prvAllocateTCBAndStack+0x4c>
			}
			else
			{
				/* The stack cannot be used as the TCB was not created.  Free it
				again. */
				vPortFree( pxStack );
 8006718:	68b8      	ldr	r0, [r7, #8]
 800671a:	f7ff fa87 	bl	8005c2c <vPortFree>
 800671e:	e001      	b.n	8006724 <prvAllocateTCBAndStack+0x4c>
			}
		}
		else
		{
			pxNewTCB = NULL;
 8006720:	2300      	movs	r3, #0
 8006722:	60fb      	str	r3, [r7, #12]
		}
	}
	#endif /* portSTACK_GROWTH */

	if( pxNewTCB != NULL )
 8006724:	68fb      	ldr	r3, [r7, #12]
 8006726:	2b00      	cmp	r3, #0
 8006728:	d007      	beq.n	800673a <prvAllocateTCBAndStack+0x62>
	{
		/* Avoid dependency on memset() if it is not required. */
		#if( ( configCHECK_FOR_STACK_OVERFLOW > 1 ) || ( configUSE_TRACE_FACILITY == 1 ) || ( INCLUDE_uxTaskGetStackHighWaterMark == 1 ) )
		{
			/* Just to help debugging. */
			( void ) memset( pxNewTCB->pxStack, ( int ) tskSTACK_FILL_BYTE, ( size_t ) usStackDepth * sizeof( StackType_t ) );
 800672a:	68fb      	ldr	r3, [r7, #12]
 800672c:	6b18      	ldr	r0, [r3, #48]	; 0x30
 800672e:	88fb      	ldrh	r3, [r7, #6]
 8006730:	009b      	lsls	r3, r3, #2
 8006732:	461a      	mov	r2, r3
 8006734:	21a5      	movs	r1, #165	; 0xa5
 8006736:	f001 fba3 	bl	8007e80 <memset>
		}
		#endif /* ( ( configCHECK_FOR_STACK_OVERFLOW > 1 ) || ( ( configUSE_TRACE_FACILITY == 1 ) || ( INCLUDE_uxTaskGetStackHighWaterMark == 1 ) ) ) */
	}

	return pxNewTCB;
 800673a:	68fb      	ldr	r3, [r7, #12]
}
 800673c:	4618      	mov	r0, r3
 800673e:	3710      	adds	r7, #16
 8006740:	46bd      	mov	sp, r7
 8006742:	bd80      	pop	{r7, pc}

08006744 <prvDeleteTCB>:
/*-----------------------------------------------------------*/

#if ( INCLUDE_vTaskDelete == 1 )

	static void prvDeleteTCB( TCB_t *pxTCB )
	{
 8006744:	b580      	push	{r7, lr}
 8006746:	b082      	sub	sp, #8
 8006748:	af00      	add	r7, sp, #0
 800674a:	6078      	str	r0, [r7, #4]
				vPortFreeAligned( pxTCB->pxStack );
			}
		}
		#else
		{
			vPortFreeAligned( pxTCB->pxStack );
 800674c:	687b      	ldr	r3, [r7, #4]
 800674e:	6b1b      	ldr	r3, [r3, #48]	; 0x30
 8006750:	4618      	mov	r0, r3
 8006752:	f7ff fa6b 	bl	8005c2c <vPortFree>
		}
		#endif

		vPortFree( pxTCB );
 8006756:	6878      	ldr	r0, [r7, #4]
 8006758:	f7ff fa68 	bl	8005c2c <vPortFree>
	}
 800675c:	bf00      	nop
 800675e:	3708      	adds	r7, #8
 8006760:	46bd      	mov	sp, r7
 8006762:	bd80      	pop	{r7, pc}

08006764 <prvResetNextTaskUnblockTime>:

#endif /* INCLUDE_vTaskDelete */
/*-----------------------------------------------------------*/

static void prvResetNextTaskUnblockTime( void )
{
 8006764:	b480      	push	{r7}
 8006766:	b083      	sub	sp, #12
 8006768:	af00      	add	r7, sp, #0
TCB_t *pxTCB;

	if( listLIST_IS_EMPTY( pxDelayedTaskList ) != pdFALSE )
 800676a:	4b0f      	ldr	r3, [pc, #60]	; (80067a8 <prvResetNextTaskUnblockTime+0x44>)
 800676c:	681b      	ldr	r3, [r3, #0]
 800676e:	681b      	ldr	r3, [r3, #0]
 8006770:	2b00      	cmp	r3, #0
 8006772:	d101      	bne.n	8006778 <prvResetNextTaskUnblockTime+0x14>
 8006774:	2301      	movs	r3, #1
 8006776:	e000      	b.n	800677a <prvResetNextTaskUnblockTime+0x16>
 8006778:	2300      	movs	r3, #0
 800677a:	2b00      	cmp	r3, #0
 800677c:	d004      	beq.n	8006788 <prvResetNextTaskUnblockTime+0x24>
	{
		/* The new current delayed list is empty.  Set xNextTaskUnblockTime to
		the maximum possible value so it is	extremely unlikely that the
		if( xTickCount >= xNextTaskUnblockTime ) test will pass until
		there is an item in the delayed list. */
		xNextTaskUnblockTime = portMAX_DELAY;
 800677e:	4b0b      	ldr	r3, [pc, #44]	; (80067ac <prvResetNextTaskUnblockTime+0x48>)
 8006780:	f04f 32ff 	mov.w	r2, #4294967295
 8006784:	601a      	str	r2, [r3, #0]
		which the task at the head of the delayed list should be removed
		from the Blocked state. */
		( pxTCB ) = ( TCB_t * ) listGET_OWNER_OF_HEAD_ENTRY( pxDelayedTaskList );
		xNextTaskUnblockTime = listGET_LIST_ITEM_VALUE( &( ( pxTCB )->xGenericListItem ) );
	}
}
 8006786:	e008      	b.n	800679a <prvResetNextTaskUnblockTime+0x36>
		( pxTCB ) = ( TCB_t * ) listGET_OWNER_OF_HEAD_ENTRY( pxDelayedTaskList );
 8006788:	4b07      	ldr	r3, [pc, #28]	; (80067a8 <prvResetNextTaskUnblockTime+0x44>)
 800678a:	681b      	ldr	r3, [r3, #0]
 800678c:	68db      	ldr	r3, [r3, #12]
 800678e:	68db      	ldr	r3, [r3, #12]
 8006790:	607b      	str	r3, [r7, #4]
		xNextTaskUnblockTime = listGET_LIST_ITEM_VALUE( &( ( pxTCB )->xGenericListItem ) );
 8006792:	687b      	ldr	r3, [r7, #4]
 8006794:	685b      	ldr	r3, [r3, #4]
 8006796:	4a05      	ldr	r2, [pc, #20]	; (80067ac <prvResetNextTaskUnblockTime+0x48>)
 8006798:	6013      	str	r3, [r2, #0]
}
 800679a:	bf00      	nop
 800679c:	370c      	adds	r7, #12
 800679e:	46bd      	mov	sp, r7
 80067a0:	f85d 7b04 	ldr.w	r7, [sp], #4
 80067a4:	4770      	bx	lr
 80067a6:	bf00      	nop
 80067a8:	20007ea0 	.word	0x20007ea0
 80067ac:	20007f08 	.word	0x20007f08

080067b0 <xTaskGetSchedulerState>:
/*-----------------------------------------------------------*/

#if ( ( INCLUDE_xTaskGetSchedulerState == 1 ) || ( configUSE_TIMERS == 1 ) )

	BaseType_t xTaskGetSchedulerState( void )
	{
 80067b0:	b480      	push	{r7}
 80067b2:	b083      	sub	sp, #12
 80067b4:	af00      	add	r7, sp, #0
	BaseType_t xReturn;

		if( xSchedulerRunning == pdFALSE )
 80067b6:	4b0b      	ldr	r3, [pc, #44]	; (80067e4 <xTaskGetSchedulerState+0x34>)
 80067b8:	681b      	ldr	r3, [r3, #0]
 80067ba:	2b00      	cmp	r3, #0
 80067bc:	d102      	bne.n	80067c4 <xTaskGetSchedulerState+0x14>
		{
			xReturn = taskSCHEDULER_NOT_STARTED;
 80067be:	2301      	movs	r3, #1
 80067c0:	607b      	str	r3, [r7, #4]
 80067c2:	e008      	b.n	80067d6 <xTaskGetSchedulerState+0x26>
		}
		else
		{
			if( uxSchedulerSuspended == ( UBaseType_t ) pdFALSE )
 80067c4:	4b08      	ldr	r3, [pc, #32]	; (80067e8 <xTaskGetSchedulerState+0x38>)
 80067c6:	681b      	ldr	r3, [r3, #0]
 80067c8:	2b00      	cmp	r3, #0
 80067ca:	d102      	bne.n	80067d2 <xTaskGetSchedulerState+0x22>
			{
				xReturn = taskSCHEDULER_RUNNING;
 80067cc:	2302      	movs	r3, #2
 80067ce:	607b      	str	r3, [r7, #4]
 80067d0:	e001      	b.n	80067d6 <xTaskGetSchedulerState+0x26>
			}
			else
			{
				xReturn = taskSCHEDULER_SUSPENDED;
 80067d2:	2300      	movs	r3, #0
 80067d4:	607b      	str	r3, [r7, #4]
			}
		}

		return xReturn;
 80067d6:	687b      	ldr	r3, [r7, #4]
	}
 80067d8:	4618      	mov	r0, r3
 80067da:	370c      	adds	r7, #12
 80067dc:	46bd      	mov	sp, r7
 80067de:	f85d 7b04 	ldr.w	r7, [sp], #4
 80067e2:	4770      	bx	lr
 80067e4:	20007ef4 	.word	0x20007ef4
 80067e8:	20007f0c 	.word	0x20007f0c

080067ec <xTaskNotifyWait>:
/*-----------------------------------------------------------*/

#if( configUSE_TASK_NOTIFICATIONS == 1 )

	BaseType_t xTaskNotifyWait( uint32_t ulBitsToClearOnEntry, uint32_t ulBitsToClearOnExit, uint32_t *pulNotificationValue, TickType_t xTicksToWait )
	{
 80067ec:	b580      	push	{r7, lr}
 80067ee:	b086      	sub	sp, #24
 80067f0:	af00      	add	r7, sp, #0
 80067f2:	60f8      	str	r0, [r7, #12]
 80067f4:	60b9      	str	r1, [r7, #8]
 80067f6:	607a      	str	r2, [r7, #4]
 80067f8:	603b      	str	r3, [r7, #0]
	TickType_t xTimeToWake;
	BaseType_t xReturn;

		taskENTER_CRITICAL();
 80067fa:	f7ff f883 	bl	8005904 <vPortEnterCritical>
		{
			/* Only block if a notification is not already pending. */
			if( pxCurrentTCB->eNotifyState != eNotified )
 80067fe:	4b39      	ldr	r3, [pc, #228]	; (80068e4 <xTaskNotifyWait+0xf8>)
 8006800:	681b      	ldr	r3, [r3, #0]
 8006802:	f893 3058 	ldrb.w	r3, [r3, #88]	; 0x58
 8006806:	b2db      	uxtb	r3, r3
 8006808:	2b02      	cmp	r3, #2
 800680a:	d03f      	beq.n	800688c <xTaskNotifyWait+0xa0>
			{
				/* Clear bits in the task's notification value as bits may get
				set	by the notifying task or interrupt.  This can be used to
				clear the value to zero. */
				pxCurrentTCB->ulNotifiedValue &= ~ulBitsToClearOnEntry;
 800680c:	4b35      	ldr	r3, [pc, #212]	; (80068e4 <xTaskNotifyWait+0xf8>)
 800680e:	681b      	ldr	r3, [r3, #0]
 8006810:	6d59      	ldr	r1, [r3, #84]	; 0x54
 8006812:	68fa      	ldr	r2, [r7, #12]
 8006814:	43d2      	mvns	r2, r2
 8006816:	400a      	ands	r2, r1
 8006818:	655a      	str	r2, [r3, #84]	; 0x54

				/* Mark this task as waiting for a notification. */
				pxCurrentTCB->eNotifyState = eWaitingNotification;
 800681a:	4b32      	ldr	r3, [pc, #200]	; (80068e4 <xTaskNotifyWait+0xf8>)
 800681c:	681b      	ldr	r3, [r3, #0]
 800681e:	2201      	movs	r2, #1
 8006820:	f883 2058 	strb.w	r2, [r3, #88]	; 0x58

				if( xTicksToWait > ( TickType_t ) 0 )
 8006824:	683b      	ldr	r3, [r7, #0]
 8006826:	2b00      	cmp	r3, #0
 8006828:	d030      	beq.n	800688c <xTaskNotifyWait+0xa0>
				{
					/* The task is going to block.  First it must be removed
					from the	ready list. */
					if( uxListRemove( &( pxCurrentTCB->xGenericListItem ) ) == ( UBaseType_t ) 0 )
 800682a:	4b2e      	ldr	r3, [pc, #184]	; (80068e4 <xTaskNotifyWait+0xf8>)
 800682c:	681b      	ldr	r3, [r3, #0]
 800682e:	3304      	adds	r3, #4
 8006830:	4618      	mov	r0, r3
 8006832:	f7fe ff3f 	bl	80056b4 <uxListRemove>
 8006836:	4603      	mov	r3, r0
 8006838:	2b00      	cmp	r3, #0
 800683a:	d10b      	bne.n	8006854 <xTaskNotifyWait+0x68>
					{
						/* The current task must be in a ready list, so there is
						no need to check, and the port reset macro can be called
						directly. */
						portRESET_READY_PRIORITY( pxCurrentTCB->uxPriority, uxTopReadyPriority );
 800683c:	4b29      	ldr	r3, [pc, #164]	; (80068e4 <xTaskNotifyWait+0xf8>)
 800683e:	681b      	ldr	r3, [r3, #0]
 8006840:	6adb      	ldr	r3, [r3, #44]	; 0x2c
 8006842:	2201      	movs	r2, #1
 8006844:	fa02 f303 	lsl.w	r3, r2, r3
 8006848:	43da      	mvns	r2, r3
 800684a:	4b27      	ldr	r3, [pc, #156]	; (80068e8 <xTaskNotifyWait+0xfc>)
 800684c:	681b      	ldr	r3, [r3, #0]
 800684e:	4013      	ands	r3, r2
 8006850:	4a25      	ldr	r2, [pc, #148]	; (80068e8 <xTaskNotifyWait+0xfc>)
 8006852:	6013      	str	r3, [r2, #0]
						mtCOVERAGE_TEST_MARKER();
					}

					#if ( INCLUDE_vTaskSuspend == 1 )
					{
						if( xTicksToWait == portMAX_DELAY )
 8006854:	683b      	ldr	r3, [r7, #0]
 8006856:	f1b3 3fff 	cmp.w	r3, #4294967295
 800685a:	d107      	bne.n	800686c <xTaskNotifyWait+0x80>
						{
							/* Add the task to the suspended task list instead
							of a delayed task list to ensure the task is not
							woken by a timing event.  It will block
							indefinitely. */
							vListInsertEnd( &xSuspendedTaskList, &( pxCurrentTCB->xGenericListItem ) );
 800685c:	4b21      	ldr	r3, [pc, #132]	; (80068e4 <xTaskNotifyWait+0xf8>)
 800685e:	681b      	ldr	r3, [r3, #0]
 8006860:	3304      	adds	r3, #4
 8006862:	4619      	mov	r1, r3
 8006864:	4821      	ldr	r0, [pc, #132]	; (80068ec <xTaskNotifyWait+0x100>)
 8006866:	f7fe fec8 	bl	80055fa <vListInsertEnd>
 800686a:	e007      	b.n	800687c <xTaskNotifyWait+0x90>
						{
							/* Calculate the time at which the task should be
							woken if no notification events occur.  This may
							overflow but this doesn't matter, the scheduler will
							handle it. */
							xTimeToWake = xTickCount + xTicksToWait;
 800686c:	4b20      	ldr	r3, [pc, #128]	; (80068f0 <xTaskNotifyWait+0x104>)
 800686e:	681a      	ldr	r2, [r3, #0]
 8006870:	683b      	ldr	r3, [r7, #0]
 8006872:	4413      	add	r3, r2
 8006874:	613b      	str	r3, [r7, #16]
							prvAddCurrentTaskToDelayedList( xTimeToWake );
 8006876:	6938      	ldr	r0, [r7, #16]
 8006878:	f7ff fef8 	bl	800666c <prvAddCurrentTaskToDelayedList>

					/* All ports are written to allow a yield in a critical
					section (some will yield immediately, others wait until the
					critical section exits) - but it is not something that
					application code should ever do. */
					portYIELD_WITHIN_API();
 800687c:	4b1d      	ldr	r3, [pc, #116]	; (80068f4 <xTaskNotifyWait+0x108>)
 800687e:	f04f 5280 	mov.w	r2, #268435456	; 0x10000000
 8006882:	601a      	str	r2, [r3, #0]
 8006884:	f3bf 8f4f 	dsb	sy
 8006888:	f3bf 8f6f 	isb	sy
			else
			{
				mtCOVERAGE_TEST_MARKER();
			}
		}
		taskEXIT_CRITICAL();
 800688c:	f7ff f868 	bl	8005960 <vPortExitCritical>

		taskENTER_CRITICAL();
 8006890:	f7ff f838 	bl	8005904 <vPortEnterCritical>
		{
			traceTASK_NOTIFY_WAIT();

			if( pulNotificationValue != NULL )
 8006894:	687b      	ldr	r3, [r7, #4]
 8006896:	2b00      	cmp	r3, #0
 8006898:	d004      	beq.n	80068a4 <xTaskNotifyWait+0xb8>
			{
				/* Output the current notification value, which may or may not
				have changed. */
				*pulNotificationValue = pxCurrentTCB->ulNotifiedValue;
 800689a:	4b12      	ldr	r3, [pc, #72]	; (80068e4 <xTaskNotifyWait+0xf8>)
 800689c:	681b      	ldr	r3, [r3, #0]
 800689e:	6d5a      	ldr	r2, [r3, #84]	; 0x54
 80068a0:	687b      	ldr	r3, [r7, #4]
 80068a2:	601a      	str	r2, [r3, #0]

			/* If eNotifyValue is set then either the task never entered the
			blocked state (because a notification was already pending) or the
			task unblocked because of a notification.  Otherwise the task
			unblocked because of a timeout. */
			if( pxCurrentTCB->eNotifyState == eWaitingNotification )
 80068a4:	4b0f      	ldr	r3, [pc, #60]	; (80068e4 <xTaskNotifyWait+0xf8>)
 80068a6:	681b      	ldr	r3, [r3, #0]
 80068a8:	f893 3058 	ldrb.w	r3, [r3, #88]	; 0x58
 80068ac:	b2db      	uxtb	r3, r3
 80068ae:	2b01      	cmp	r3, #1
 80068b0:	d102      	bne.n	80068b8 <xTaskNotifyWait+0xcc>
			{
				/* A notification was not received. */
				xReturn = pdFALSE;
 80068b2:	2300      	movs	r3, #0
 80068b4:	617b      	str	r3, [r7, #20]
 80068b6:	e008      	b.n	80068ca <xTaskNotifyWait+0xde>
			}
			else
			{
				/* A notification was already pending or a notification was
				received while the task was waiting. */
				pxCurrentTCB->ulNotifiedValue &= ~ulBitsToClearOnExit;
 80068b8:	4b0a      	ldr	r3, [pc, #40]	; (80068e4 <xTaskNotifyWait+0xf8>)
 80068ba:	681b      	ldr	r3, [r3, #0]
 80068bc:	6d59      	ldr	r1, [r3, #84]	; 0x54
 80068be:	68ba      	ldr	r2, [r7, #8]
 80068c0:	43d2      	mvns	r2, r2
 80068c2:	400a      	ands	r2, r1
 80068c4:	655a      	str	r2, [r3, #84]	; 0x54
				xReturn = pdTRUE;
 80068c6:	2301      	movs	r3, #1
 80068c8:	617b      	str	r3, [r7, #20]
			}

			pxCurrentTCB->eNotifyState = eNotWaitingNotification;
 80068ca:	4b06      	ldr	r3, [pc, #24]	; (80068e4 <xTaskNotifyWait+0xf8>)
 80068cc:	681b      	ldr	r3, [r3, #0]
 80068ce:	2200      	movs	r2, #0
 80068d0:	f883 2058 	strb.w	r2, [r3, #88]	; 0x58
		}
		taskEXIT_CRITICAL();
 80068d4:	f7ff f844 	bl	8005960 <vPortExitCritical>

		return xReturn;
 80068d8:	697b      	ldr	r3, [r7, #20]
	}
 80068da:	4618      	mov	r0, r3
 80068dc:	3718      	adds	r7, #24
 80068de:	46bd      	mov	sp, r7
 80068e0:	bd80      	pop	{r7, pc}
 80068e2:	bf00      	nop
 80068e4:	20007de8 	.word	0x20007de8
 80068e8:	20007ef0 	.word	0x20007ef0
 80068ec:	20007ed4 	.word	0x20007ed4
 80068f0:	20007eec 	.word	0x20007eec
 80068f4:	e000ed04 	.word	0xe000ed04

080068f8 <xTaskGenericNotify>:
/*-----------------------------------------------------------*/

#if( configUSE_TASK_NOTIFICATIONS == 1 )

	BaseType_t xTaskGenericNotify( TaskHandle_t xTaskToNotify, uint32_t ulValue, eNotifyAction eAction, uint32_t *pulPreviousNotificationValue )
	{
 80068f8:	b580      	push	{r7, lr}
 80068fa:	b08a      	sub	sp, #40	; 0x28
 80068fc:	af00      	add	r7, sp, #0
 80068fe:	60f8      	str	r0, [r7, #12]
 8006900:	60b9      	str	r1, [r7, #8]
 8006902:	603b      	str	r3, [r7, #0]
 8006904:	4613      	mov	r3, r2
 8006906:	71fb      	strb	r3, [r7, #7]
	TCB_t * pxTCB;
	eNotifyValue eOriginalNotifyState;
	BaseType_t xReturn = pdPASS;
 8006908:	2301      	movs	r3, #1
 800690a:	627b      	str	r3, [r7, #36]	; 0x24

		configASSERT( xTaskToNotify );
 800690c:	68fb      	ldr	r3, [r7, #12]
 800690e:	2b00      	cmp	r3, #0
 8006910:	d109      	bne.n	8006926 <xTaskGenericNotify+0x2e>
 8006912:	f04f 0350 	mov.w	r3, #80	; 0x50
 8006916:	f383 8811 	msr	BASEPRI, r3
 800691a:	f3bf 8f6f 	isb	sy
 800691e:	f3bf 8f4f 	dsb	sy
 8006922:	61bb      	str	r3, [r7, #24]
 8006924:	e7fe      	b.n	8006924 <xTaskGenericNotify+0x2c>
		pxTCB = ( TCB_t * ) xTaskToNotify;
 8006926:	68fb      	ldr	r3, [r7, #12]
 8006928:	623b      	str	r3, [r7, #32]

		taskENTER_CRITICAL();
 800692a:	f7fe ffeb 	bl	8005904 <vPortEnterCritical>
		{
			if( pulPreviousNotificationValue != NULL )
 800692e:	683b      	ldr	r3, [r7, #0]
 8006930:	2b00      	cmp	r3, #0
 8006932:	d003      	beq.n	800693c <xTaskGenericNotify+0x44>
			{
				*pulPreviousNotificationValue = pxTCB->ulNotifiedValue;
 8006934:	6a3b      	ldr	r3, [r7, #32]
 8006936:	6d5a      	ldr	r2, [r3, #84]	; 0x54
 8006938:	683b      	ldr	r3, [r7, #0]
 800693a:	601a      	str	r2, [r3, #0]
			}

			eOriginalNotifyState = pxTCB->eNotifyState;
 800693c:	6a3b      	ldr	r3, [r7, #32]
 800693e:	f893 3058 	ldrb.w	r3, [r3, #88]	; 0x58
 8006942:	77fb      	strb	r3, [r7, #31]

			pxTCB->eNotifyState = eNotified;
 8006944:	6a3b      	ldr	r3, [r7, #32]
 8006946:	2202      	movs	r2, #2
 8006948:	f883 2058 	strb.w	r2, [r3, #88]	; 0x58

			switch( eAction )
 800694c:	79fb      	ldrb	r3, [r7, #7]
 800694e:	2b04      	cmp	r3, #4
 8006950:	d827      	bhi.n	80069a2 <xTaskGenericNotify+0xaa>
 8006952:	a201      	add	r2, pc, #4	; (adr r2, 8006958 <xTaskGenericNotify+0x60>)
 8006954:	f852 f023 	ldr.w	pc, [r2, r3, lsl #2]
 8006958:	080069a3 	.word	0x080069a3
 800695c:	0800696d 	.word	0x0800696d
 8006960:	0800697b 	.word	0x0800697b
 8006964:	08006987 	.word	0x08006987
 8006968:	0800698f 	.word	0x0800698f
			{
				case eSetBits	:
					pxTCB->ulNotifiedValue |= ulValue;
 800696c:	6a3b      	ldr	r3, [r7, #32]
 800696e:	6d5a      	ldr	r2, [r3, #84]	; 0x54
 8006970:	68bb      	ldr	r3, [r7, #8]
 8006972:	431a      	orrs	r2, r3
 8006974:	6a3b      	ldr	r3, [r7, #32]
 8006976:	655a      	str	r2, [r3, #84]	; 0x54
					break;
 8006978:	e013      	b.n	80069a2 <xTaskGenericNotify+0xaa>

				case eIncrement	:
					( pxTCB->ulNotifiedValue )++;
 800697a:	6a3b      	ldr	r3, [r7, #32]
 800697c:	6d5b      	ldr	r3, [r3, #84]	; 0x54
 800697e:	1c5a      	adds	r2, r3, #1
 8006980:	6a3b      	ldr	r3, [r7, #32]
 8006982:	655a      	str	r2, [r3, #84]	; 0x54
					break;
 8006984:	e00d      	b.n	80069a2 <xTaskGenericNotify+0xaa>

				case eSetValueWithOverwrite	:
					pxTCB->ulNotifiedValue = ulValue;
 8006986:	6a3b      	ldr	r3, [r7, #32]
 8006988:	68ba      	ldr	r2, [r7, #8]
 800698a:	655a      	str	r2, [r3, #84]	; 0x54
					break;
 800698c:	e009      	b.n	80069a2 <xTaskGenericNotify+0xaa>

				case eSetValueWithoutOverwrite :
					if( eOriginalNotifyState != eNotified )
 800698e:	7ffb      	ldrb	r3, [r7, #31]
 8006990:	2b02      	cmp	r3, #2
 8006992:	d003      	beq.n	800699c <xTaskGenericNotify+0xa4>
					{
						pxTCB->ulNotifiedValue = ulValue;
 8006994:	6a3b      	ldr	r3, [r7, #32]
 8006996:	68ba      	ldr	r2, [r7, #8]
 8006998:	655a      	str	r2, [r3, #84]	; 0x54
					else
					{
						/* The value could not be written to the task. */
						xReturn = pdFAIL;
					}
					break;
 800699a:	e001      	b.n	80069a0 <xTaskGenericNotify+0xa8>
						xReturn = pdFAIL;
 800699c:	2300      	movs	r3, #0
 800699e:	627b      	str	r3, [r7, #36]	; 0x24
					break;
 80069a0:	bf00      	nop

			traceTASK_NOTIFY();

			/* If the task is in the blocked state specifically to wait for a
			notification then unblock it now. */
			if( eOriginalNotifyState == eWaitingNotification )
 80069a2:	7ffb      	ldrb	r3, [r7, #31]
 80069a4:	2b01      	cmp	r3, #1
 80069a6:	d138      	bne.n	8006a1a <xTaskGenericNotify+0x122>
			{
				( void ) uxListRemove( &( pxTCB->xGenericListItem ) );
 80069a8:	6a3b      	ldr	r3, [r7, #32]
 80069aa:	3304      	adds	r3, #4
 80069ac:	4618      	mov	r0, r3
 80069ae:	f7fe fe81 	bl	80056b4 <uxListRemove>
				prvAddTaskToReadyList( pxTCB );
 80069b2:	6a3b      	ldr	r3, [r7, #32]
 80069b4:	6adb      	ldr	r3, [r3, #44]	; 0x2c
 80069b6:	2201      	movs	r2, #1
 80069b8:	409a      	lsls	r2, r3
 80069ba:	4b1b      	ldr	r3, [pc, #108]	; (8006a28 <xTaskGenericNotify+0x130>)
 80069bc:	681b      	ldr	r3, [r3, #0]
 80069be:	4313      	orrs	r3, r2
 80069c0:	4a19      	ldr	r2, [pc, #100]	; (8006a28 <xTaskGenericNotify+0x130>)
 80069c2:	6013      	str	r3, [r2, #0]
 80069c4:	6a3b      	ldr	r3, [r7, #32]
 80069c6:	6ada      	ldr	r2, [r3, #44]	; 0x2c
 80069c8:	4613      	mov	r3, r2
 80069ca:	009b      	lsls	r3, r3, #2
 80069cc:	4413      	add	r3, r2
 80069ce:	009b      	lsls	r3, r3, #2
 80069d0:	4a16      	ldr	r2, [pc, #88]	; (8006a2c <xTaskGenericNotify+0x134>)
 80069d2:	441a      	add	r2, r3
 80069d4:	6a3b      	ldr	r3, [r7, #32]
 80069d6:	3304      	adds	r3, #4
 80069d8:	4619      	mov	r1, r3
 80069da:	4610      	mov	r0, r2
 80069dc:	f7fe fe0d 	bl	80055fa <vListInsertEnd>

				/* The task should not have been on an event list. */
				configASSERT( listLIST_ITEM_CONTAINER( &( pxTCB->xEventListItem ) ) == NULL );
 80069e0:	6a3b      	ldr	r3, [r7, #32]
 80069e2:	6a9b      	ldr	r3, [r3, #40]	; 0x28
 80069e4:	2b00      	cmp	r3, #0
 80069e6:	d009      	beq.n	80069fc <xTaskGenericNotify+0x104>
 80069e8:	f04f 0350 	mov.w	r3, #80	; 0x50
 80069ec:	f383 8811 	msr	BASEPRI, r3
 80069f0:	f3bf 8f6f 	isb	sy
 80069f4:	f3bf 8f4f 	dsb	sy
 80069f8:	617b      	str	r3, [r7, #20]
 80069fa:	e7fe      	b.n	80069fa <xTaskGenericNotify+0x102>
					earliest possible time. */
					prvResetNextTaskUnblockTime();
				}
				#endif

				if( pxTCB->uxPriority > pxCurrentTCB->uxPriority )
 80069fc:	6a3b      	ldr	r3, [r7, #32]
 80069fe:	6ada      	ldr	r2, [r3, #44]	; 0x2c
 8006a00:	4b0b      	ldr	r3, [pc, #44]	; (8006a30 <xTaskGenericNotify+0x138>)
 8006a02:	681b      	ldr	r3, [r3, #0]
 8006a04:	6adb      	ldr	r3, [r3, #44]	; 0x2c
 8006a06:	429a      	cmp	r2, r3
 8006a08:	d907      	bls.n	8006a1a <xTaskGenericNotify+0x122>
				{
					/* The notified task has a priority above the currently
					executing task so a yield is required. */
					taskYIELD_IF_USING_PREEMPTION();
 8006a0a:	4b0a      	ldr	r3, [pc, #40]	; (8006a34 <xTaskGenericNotify+0x13c>)
 8006a0c:	f04f 5280 	mov.w	r2, #268435456	; 0x10000000
 8006a10:	601a      	str	r2, [r3, #0]
 8006a12:	f3bf 8f4f 	dsb	sy
 8006a16:	f3bf 8f6f 	isb	sy
			else
			{
				mtCOVERAGE_TEST_MARKER();
			}
		}
		taskEXIT_CRITICAL();
 8006a1a:	f7fe ffa1 	bl	8005960 <vPortExitCritical>

		return xReturn;
 8006a1e:	6a7b      	ldr	r3, [r7, #36]	; 0x24
	}
 8006a20:	4618      	mov	r0, r3
 8006a22:	3728      	adds	r7, #40	; 0x28
 8006a24:	46bd      	mov	sp, r7
 8006a26:	bd80      	pop	{r7, pc}
 8006a28:	20007ef0 	.word	0x20007ef0
 8006a2c:	20007dec 	.word	0x20007dec
 8006a30:	20007de8 	.word	0x20007de8
 8006a34:	e000ed04 	.word	0xe000ed04

08006a38 <main>:
/**
  * @brief  The application entry point.
  * @retval int
  */
int main(void)
{
 8006a38:	b580      	push	{r7, lr}
 8006a3a:	b08e      	sub	sp, #56	; 0x38
 8006a3c:	af04      	add	r7, sp, #16

	HAL_Init();
 8006a3e:	f7fa ff89 	bl	8001954 <HAL_Init>
	SystemClock_Config();
 8006a42:	f000 fc57 	bl	80072f4 <SystemClock_Config>

	__HAL_RCC_GPIOC_CLK_ENABLE();
 8006a46:	4a92      	ldr	r2, [pc, #584]	; (8006c90 <main+0x258>)
 8006a48:	4b91      	ldr	r3, [pc, #580]	; (8006c90 <main+0x258>)
 8006a4a:	6cdb      	ldr	r3, [r3, #76]	; 0x4c
 8006a4c:	f043 0304 	orr.w	r3, r3, #4
 8006a50:	64d3      	str	r3, [r2, #76]	; 0x4c
 8006a52:	4b8f      	ldr	r3, [pc, #572]	; (8006c90 <main+0x258>)
 8006a54:	6cdb      	ldr	r3, [r3, #76]	; 0x4c
 8006a56:	f003 0304 	and.w	r3, r3, #4
 8006a5a:	60fb      	str	r3, [r7, #12]
 8006a5c:	68fb      	ldr	r3, [r7, #12]
	//__HAL_RCC_GPIOH_CLK_ENABLE();
	__HAL_RCC_GPIOA_CLK_ENABLE();
 8006a5e:	4a8c      	ldr	r2, [pc, #560]	; (8006c90 <main+0x258>)
 8006a60:	4b8b      	ldr	r3, [pc, #556]	; (8006c90 <main+0x258>)
 8006a62:	6cdb      	ldr	r3, [r3, #76]	; 0x4c
 8006a64:	f043 0301 	orr.w	r3, r3, #1
 8006a68:	64d3      	str	r3, [r2, #76]	; 0x4c
 8006a6a:	4b89      	ldr	r3, [pc, #548]	; (8006c90 <main+0x258>)
 8006a6c:	6cdb      	ldr	r3, [r3, #76]	; 0x4c
 8006a6e:	f003 0301 	and.w	r3, r3, #1
 8006a72:	60bb      	str	r3, [r7, #8]
 8006a74:	68bb      	ldr	r3, [r7, #8]
	__HAL_RCC_GPIOB_CLK_ENABLE();
 8006a76:	4a86      	ldr	r2, [pc, #536]	; (8006c90 <main+0x258>)
 8006a78:	4b85      	ldr	r3, [pc, #532]	; (8006c90 <main+0x258>)
 8006a7a:	6cdb      	ldr	r3, [r3, #76]	; 0x4c
 8006a7c:	f043 0302 	orr.w	r3, r3, #2
 8006a80:	64d3      	str	r3, [r2, #76]	; 0x4c
 8006a82:	4b83      	ldr	r3, [pc, #524]	; (8006c90 <main+0x258>)
 8006a84:	6cdb      	ldr	r3, [r3, #76]	; 0x4c
 8006a86:	f003 0302 	and.w	r3, r3, #2
 8006a8a:	607b      	str	r3, [r7, #4]
 8006a8c:	687b      	ldr	r3, [r7, #4]
	__HAL_RCC_GPIOD_CLK_ENABLE();
 8006a8e:	4a80      	ldr	r2, [pc, #512]	; (8006c90 <main+0x258>)
 8006a90:	4b7f      	ldr	r3, [pc, #508]	; (8006c90 <main+0x258>)
 8006a92:	6cdb      	ldr	r3, [r3, #76]	; 0x4c
 8006a94:	f043 0308 	orr.w	r3, r3, #8
 8006a98:	64d3      	str	r3, [r2, #76]	; 0x4c
 8006a9a:	4b7d      	ldr	r3, [pc, #500]	; (8006c90 <main+0x258>)
 8006a9c:	6cdb      	ldr	r3, [r3, #76]	; 0x4c
 8006a9e:	f003 0308 	and.w	r3, r3, #8
 8006aa2:	603b      	str	r3, [r7, #0]
 8006aa4:	683b      	ldr	r3, [r7, #0]

	c12832_hal_spi_init();
 8006aa6:	f7f9 fd23 	bl	80004f0 <c12832_hal_spi_init>
	c12832_hal_gpio_init();
 8006aaa:	f7f9 fd97 	bl	80005dc <c12832_hal_gpio_init>


	MX_GPIO_Init();
 8006aae:	f000 fdb1 	bl	8007614 <MX_GPIO_Init>
	MX_DMA_Init();
 8006ab2:	f000 fda7 	bl	8007604 <MX_DMA_Init>
	MX_I2C1_Init();
 8006ab6:	f000 fcb9 	bl	800742c <MX_I2C1_Init>
	MX_SPI2_Init();
 8006aba:	f000 fcf7 	bl	80074ac <MX_SPI2_Init>
	MX_SPI3_Init();
 8006abe:	f000 fd33 	bl	8007528 <MX_SPI3_Init>
	MX_USART1_UART_Init();
 8006ac2:	f000 fd6f 	bl	80075a4 <MX_USART1_UART_Init>


	//testLedAndButtones();


	HAL_GPIO_WritePin (GPIOA, GPIO_PIN_4, GPIO_PIN_RESET);
 8006ac6:	2200      	movs	r2, #0
 8006ac8:	2110      	movs	r1, #16
 8006aca:	f04f 4090 	mov.w	r0, #1207959552	; 0x48000000
 8006ace:	f7fb fa3d 	bl	8001f4c <HAL_GPIO_WritePin>
	HAL_GPIO_WritePin (GPIOA, GPIO_PIN_5, GPIO_PIN_RESET);
 8006ad2:	2200      	movs	r2, #0
 8006ad4:	2120      	movs	r1, #32
 8006ad6:	f04f 4090 	mov.w	r0, #1207959552	; 0x48000000
 8006ada:	f7fb fa37 	bl	8001f4c <HAL_GPIO_WritePin>
	HAL_GPIO_WritePin (GPIOA, GPIO_PIN_6, GPIO_PIN_RESET);
 8006ade:	2200      	movs	r2, #0
 8006ae0:	2140      	movs	r1, #64	; 0x40
 8006ae2:	f04f 4090 	mov.w	r0, #1207959552	; 0x48000000
 8006ae6:	f7fb fa31 	bl	8001f4c <HAL_GPIO_WritePin>
	HAL_GPIO_WritePin (GPIOA, GPIO_PIN_7, GPIO_PIN_RESET);
 8006aea:	2200      	movs	r2, #0
 8006aec:	2180      	movs	r1, #128	; 0x80
 8006aee:	f04f 4090 	mov.w	r0, #1207959552	; 0x48000000
 8006af2:	f7fb fa2b 	bl	8001f4c <HAL_GPIO_WritePin>
	HAL_GPIO_WritePin (GPIOB, GPIO_PIN_8, GPIO_PIN_RESET);
 8006af6:	2200      	movs	r2, #0
 8006af8:	f44f 7180 	mov.w	r1, #256	; 0x100
 8006afc:	4865      	ldr	r0, [pc, #404]	; (8006c94 <main+0x25c>)
 8006afe:	f7fb fa25 	bl	8001f4c <HAL_GPIO_WritePin>
	HAL_GPIO_WritePin (GPIOB, GPIO_PIN_9, GPIO_PIN_RESET);
 8006b02:	2200      	movs	r2, #0
 8006b04:	f44f 7100 	mov.w	r1, #512	; 0x200
 8006b08:	4862      	ldr	r0, [pc, #392]	; (8006c94 <main+0x25c>)
 8006b0a:	f7fb fa1f 	bl	8001f4c <HAL_GPIO_WritePin>


	HAL_GPIO_WritePin(DISPLAY_BACKLIGHT_GPIO_Port, DISPLAY_BACKLIGHT_Pin, GPIO_PIN_RESET);
 8006b0e:	2200      	movs	r2, #0
 8006b10:	f44f 7180 	mov.w	r1, #256	; 0x100
 8006b14:	f04f 4090 	mov.w	r0, #1207959552	; 0x48000000
 8006b18:	f7fb fa18 	bl	8001f4c <HAL_GPIO_WritePin>
	GPIO_InitTypeDef GPIO_InitStruct = {0};
 8006b1c:	f107 0310 	add.w	r3, r7, #16
 8006b20:	2200      	movs	r2, #0
 8006b22:	601a      	str	r2, [r3, #0]
 8006b24:	605a      	str	r2, [r3, #4]
 8006b26:	609a      	str	r2, [r3, #8]
 8006b28:	60da      	str	r2, [r3, #12]
 8006b2a:	611a      	str	r2, [r3, #16]
	GPIO_InitStruct.Pin = DISPLAY_BACKLIGHT_Pin;
 8006b2c:	f44f 7380 	mov.w	r3, #256	; 0x100
 8006b30:	613b      	str	r3, [r7, #16]
	GPIO_InitStruct.Mode = GPIO_MODE_OUTPUT_PP;
 8006b32:	2301      	movs	r3, #1
 8006b34:	617b      	str	r3, [r7, #20]
	GPIO_InitStruct.Pull = GPIO_NOPULL;
 8006b36:	2300      	movs	r3, #0
 8006b38:	61bb      	str	r3, [r7, #24]
	GPIO_InitStruct.Speed = GPIO_SPEED_FREQ_LOW;
 8006b3a:	2300      	movs	r3, #0
 8006b3c:	61fb      	str	r3, [r7, #28]
	HAL_GPIO_Init(DISPLAY_BACKLIGHT_GPIO_Port, &GPIO_InitStruct);
 8006b3e:	f107 0310 	add.w	r3, r7, #16
 8006b42:	4619      	mov	r1, r3
 8006b44:	f04f 4090 	mov.w	r0, #1207959552	; 0x48000000
 8006b48:	f7fb f86a 	bl	8001c20 <HAL_GPIO_Init>

	DISPLAY_BACKLIGHT_OFF;
 8006b4c:	2200      	movs	r2, #0
 8006b4e:	f44f 7180 	mov.w	r1, #256	; 0x100
 8006b52:	f04f 4090 	mov.w	r0, #1207959552	; 0x48000000
 8006b56:	f7fb f9f9 	bl	8001f4c <HAL_GPIO_WritePin>

	//HAL_Delay(2000);

	graphic_lcd_initialize ();
 8006b5a:	f7f9 fe4d 	bl	80007f8 <graphic_lcd_initialize>
	graphic_lcd_clear_screen ();
 8006b5e:	f7f9 fde1 	bl	8000724 <graphic_lcd_clear_screen>
	DISPLAY_BACKLIGHT_ON;
 8006b62:	2201      	movs	r2, #1
 8006b64:	f44f 7180 	mov.w	r1, #256	; 0x100
 8006b68:	f04f 4090 	mov.w	r0, #1207959552	; 0x48000000
 8006b6c:	f7fb f9ee 	bl	8001f4c <HAL_GPIO_WritePin>
	//HAL_Delay(1000);




	Si7006_port_init();
 8006b70:	f000 f8ba 	bl	8006ce8 <Si7006_port_init>





	if(Si7006.check_hardware() == SI7006_ERROR){
 8006b74:	4b48      	ldr	r3, [pc, #288]	; (8006c98 <main+0x260>)
 8006b76:	691b      	ldr	r3, [r3, #16]
 8006b78:	4798      	blx	r3
 8006b7a:	4603      	mov	r3, r0
 8006b7c:	2b01      	cmp	r3, #1
 8006b7e:	d105      	bne.n	8006b8c <main+0x154>
		graphic_lcd_write(0, 0, "Si7006 NOT READY");
 8006b80:	4a46      	ldr	r2, [pc, #280]	; (8006c9c <main+0x264>)
 8006b82:	2100      	movs	r1, #0
 8006b84:	2000      	movs	r0, #0
 8006b86:	f7f9 fdf5 	bl	8000774 <graphic_lcd_write>
 8006b8a:	e004      	b.n	8006b96 <main+0x15e>
	}else{
		graphic_lcd_write(0, 0, "Si7006 READY");
 8006b8c:	4a44      	ldr	r2, [pc, #272]	; (8006ca0 <main+0x268>)
 8006b8e:	2100      	movs	r1, #0
 8006b90:	2000      	movs	r0, #0
 8006b92:	f7f9 fdef 	bl	8000774 <graphic_lcd_write>
	}


	int x = HAL_I2C_IsDeviceReady(&hi2c1,Si1133DevAddr, 1000, 1000);
 8006b96:	4b43      	ldr	r3, [pc, #268]	; (8006ca4 <main+0x26c>)
 8006b98:	781b      	ldrb	r3, [r3, #0]
 8006b9a:	b299      	uxth	r1, r3
 8006b9c:	f44f 737a 	mov.w	r3, #1000	; 0x3e8
 8006ba0:	f44f 727a 	mov.w	r2, #1000	; 0x3e8
 8006ba4:	4840      	ldr	r0, [pc, #256]	; (8006ca8 <main+0x270>)
 8006ba6:	f7fb fc79 	bl	800249c <HAL_I2C_IsDeviceReady>
 8006baa:	4603      	mov	r3, r0
 8006bac:	627b      	str	r3, [r7, #36]	; 0x24
	if(x == HAL_OK) graphic_lcd_write(1, 0, "Si1133 READY");
 8006bae:	6a7b      	ldr	r3, [r7, #36]	; 0x24
 8006bb0:	2b00      	cmp	r3, #0
 8006bb2:	d105      	bne.n	8006bc0 <main+0x188>
 8006bb4:	4a3d      	ldr	r2, [pc, #244]	; (8006cac <main+0x274>)
 8006bb6:	2100      	movs	r1, #0
 8006bb8:	2001      	movs	r0, #1
 8006bba:	f7f9 fddb 	bl	8000774 <graphic_lcd_write>
 8006bbe:	e004      	b.n	8006bca <main+0x192>
	else graphic_lcd_write(1, 0, "Si1133 NOT READY");
 8006bc0:	4a3b      	ldr	r2, [pc, #236]	; (8006cb0 <main+0x278>)
 8006bc2:	2100      	movs	r1, #0
 8006bc4:	2001      	movs	r0, #1
 8006bc6:	f7f9 fdd5 	bl	8000774 <graphic_lcd_write>



	HAL_Delay(3000);
 8006bca:	f640 30b8 	movw	r0, #3000	; 0xbb8
 8006bce:	f7fa ff05 	bl	80019dc <HAL_Delay>
	graphic_lcd_clear_screen ();
 8006bd2:	f7f9 fda7 	bl	8000724 <graphic_lcd_clear_screen>




	graphic_lcd_write(0, 0, "FUCK OFF PLEASE");
 8006bd6:	4a37      	ldr	r2, [pc, #220]	; (8006cb4 <main+0x27c>)
 8006bd8:	2100      	movs	r1, #0
 8006bda:	2000      	movs	r0, #0
 8006bdc:	f7f9 fdca 	bl	8000774 <graphic_lcd_write>
	graphic_lcd_write(1, 0, "FUCK OFF PLEASE");
 8006be0:	4a34      	ldr	r2, [pc, #208]	; (8006cb4 <main+0x27c>)
 8006be2:	2100      	movs	r1, #0
 8006be4:	2001      	movs	r0, #1
 8006be6:	f7f9 fdc5 	bl	8000774 <graphic_lcd_write>
	graphic_lcd_write(2, 0, "FUCK OFF PLEASE");
 8006bea:	4a32      	ldr	r2, [pc, #200]	; (8006cb4 <main+0x27c>)
 8006bec:	2100      	movs	r1, #0
 8006bee:	2002      	movs	r0, #2
 8006bf0:	f7f9 fdc0 	bl	8000774 <graphic_lcd_write>
	graphic_lcd_write(3, 0, "FUCK OFF PLEASE");
 8006bf4:	4a2f      	ldr	r2, [pc, #188]	; (8006cb4 <main+0x27c>)
 8006bf6:	2100      	movs	r1, #0
 8006bf8:	2003      	movs	r0, #3
 8006bfa:	f7f9 fdbb 	bl	8000774 <graphic_lcd_write>
	graphics_lcd_clear_line(2);
 8006bfe:	2002      	movs	r0, #2
 8006c00:	f7f9 fe01 	bl	8000806 <graphics_lcd_clear_line>
	HAL_Delay(10000);
 8006c04:	f242 7010 	movw	r0, #10000	; 0x2710
 8006c08:	f7fa fee8 	bl	80019dc <HAL_Delay>

#if(TX_NODE == 1)

	//testLedAndButtones();
	//xTaskCreate(xRadio,(signed portCHAR *) "t1", 500, NULL, tskIDLE_PRIORITY, &xRadioHandle );
	xTaskCreate(xGLCD,(signed portCHAR *) "t3", 500, NULL, tskIDLE_PRIORITY, &xGLCDHandle );
 8006c0c:	2300      	movs	r3, #0
 8006c0e:	9303      	str	r3, [sp, #12]
 8006c10:	2300      	movs	r3, #0
 8006c12:	9302      	str	r3, [sp, #8]
 8006c14:	4b28      	ldr	r3, [pc, #160]	; (8006cb8 <main+0x280>)
 8006c16:	9301      	str	r3, [sp, #4]
 8006c18:	2300      	movs	r3, #0
 8006c1a:	9300      	str	r3, [sp, #0]
 8006c1c:	2300      	movs	r3, #0
 8006c1e:	f44f 72fa 	mov.w	r2, #500	; 0x1f4
 8006c22:	4926      	ldr	r1, [pc, #152]	; (8006cbc <main+0x284>)
 8006c24:	4826      	ldr	r0, [pc, #152]	; (8006cc0 <main+0x288>)
 8006c26:	f7ff f915 	bl	8005e54 <xTaskGenericCreate>
	xTaskCreate(xNotification,(signed portCHAR *) "t4", 200, NULL, tskIDLE_PRIORITY, &xNotificationHandle );
 8006c2a:	2300      	movs	r3, #0
 8006c2c:	9303      	str	r3, [sp, #12]
 8006c2e:	2300      	movs	r3, #0
 8006c30:	9302      	str	r3, [sp, #8]
 8006c32:	4b24      	ldr	r3, [pc, #144]	; (8006cc4 <main+0x28c>)
 8006c34:	9301      	str	r3, [sp, #4]
 8006c36:	2300      	movs	r3, #0
 8006c38:	9300      	str	r3, [sp, #0]
 8006c3a:	2300      	movs	r3, #0
 8006c3c:	22c8      	movs	r2, #200	; 0xc8
 8006c3e:	4922      	ldr	r1, [pc, #136]	; (8006cc8 <main+0x290>)
 8006c40:	4822      	ldr	r0, [pc, #136]	; (8006ccc <main+0x294>)
 8006c42:	f7ff f907 	bl	8005e54 <xTaskGenericCreate>
	xTaskCreate(xPC,(signed portCHAR *) "t5", 1000, NULL, tskIDLE_PRIORITY, &xPCHandle );
 8006c46:	2300      	movs	r3, #0
 8006c48:	9303      	str	r3, [sp, #12]
 8006c4a:	2300      	movs	r3, #0
 8006c4c:	9302      	str	r3, [sp, #8]
 8006c4e:	4b20      	ldr	r3, [pc, #128]	; (8006cd0 <main+0x298>)
 8006c50:	9301      	str	r3, [sp, #4]
 8006c52:	2300      	movs	r3, #0
 8006c54:	9300      	str	r3, [sp, #0]
 8006c56:	2300      	movs	r3, #0
 8006c58:	f44f 727a 	mov.w	r2, #1000	; 0x3e8
 8006c5c:	491d      	ldr	r1, [pc, #116]	; (8006cd4 <main+0x29c>)
 8006c5e:	481e      	ldr	r0, [pc, #120]	; (8006cd8 <main+0x2a0>)
 8006c60:	f7ff f8f8 	bl	8005e54 <xTaskGenericCreate>
	xTaskCreate(xButtons,(signed portCHAR *) "t6", 500, NULL, tskIDLE_PRIORITY, &xButtonsHandle );
 8006c64:	2300      	movs	r3, #0
 8006c66:	9303      	str	r3, [sp, #12]
 8006c68:	2300      	movs	r3, #0
 8006c6a:	9302      	str	r3, [sp, #8]
 8006c6c:	4b1b      	ldr	r3, [pc, #108]	; (8006cdc <main+0x2a4>)
 8006c6e:	9301      	str	r3, [sp, #4]
 8006c70:	2300      	movs	r3, #0
 8006c72:	9300      	str	r3, [sp, #0]
 8006c74:	2300      	movs	r3, #0
 8006c76:	f44f 72fa 	mov.w	r2, #500	; 0x1f4
 8006c7a:	4919      	ldr	r1, [pc, #100]	; (8006ce0 <main+0x2a8>)
 8006c7c:	4819      	ldr	r0, [pc, #100]	; (8006ce4 <main+0x2ac>)
 8006c7e:	f7ff f8e9 	bl	8005e54 <xTaskGenericCreate>
	//xTaskCreate(xTxNode,(signed portCHAR *) "t7", 1000, NULL, tskIDLE_PRIORITY, &xTxNodeHandle );

	vTaskStartScheduler();
 8006c82:	f7ff fa09 	bl	8006098 <vTaskStartScheduler>

	return 0;
 8006c86:	2300      	movs	r3, #0

	}



}
 8006c88:	4618      	mov	r0, r3
 8006c8a:	3728      	adds	r7, #40	; 0x28
 8006c8c:	46bd      	mov	sp, r7
 8006c8e:	bd80      	pop	{r7, pc}
 8006c90:	40021000 	.word	0x40021000
 8006c94:	48000400 	.word	0x48000400
 8006c98:	20008094 	.word	0x20008094
 8006c9c:	08007eb0 	.word	0x08007eb0
 8006ca0:	08007ec4 	.word	0x08007ec4
 8006ca4:	20000040 	.word	0x20000040
 8006ca8:	20008048 	.word	0x20008048
 8006cac:	08007ed4 	.word	0x08007ed4
 8006cb0:	08007ee4 	.word	0x08007ee4
 8006cb4:	08007ef8 	.word	0x08007ef8
 8006cb8:	20007f10 	.word	0x20007f10
 8006cbc:	08007f08 	.word	0x08007f08
 8006cc0:	0800720d 	.word	0x0800720d
 8006cc4:	20007f14 	.word	0x20007f14
 8006cc8:	08007f0c 	.word	0x08007f0c
 8006ccc:	08006f41 	.word	0x08006f41
 8006cd0:	20007f18 	.word	0x20007f18
 8006cd4:	08007f10 	.word	0x08007f10
 8006cd8:	08006f91 	.word	0x08006f91
 8006cdc:	20007f1c 	.word	0x20007f1c
 8006ce0:	08007f14 	.word	0x08007f14
 8006ce4:	08007271 	.word	0x08007271

08006ce8 <Si7006_port_init>:





Si7006_error_t Si7006_port_init(void){
 8006ce8:	b580      	push	{r7, lr}
 8006cea:	af00      	add	r7, sp, #0
	Si7006.init = Si7006_port_init;
 8006cec:	4b0b      	ldr	r3, [pc, #44]	; (8006d1c <Si7006_port_init+0x34>)
 8006cee:	4a0c      	ldr	r2, [pc, #48]	; (8006d20 <Si7006_port_init+0x38>)
 8006cf0:	601a      	str	r2, [r3, #0]
	Si7006.i2c_init = Si7006_port_i2c_init;
 8006cf2:	4b0a      	ldr	r3, [pc, #40]	; (8006d1c <Si7006_port_init+0x34>)
 8006cf4:	4a0b      	ldr	r2, [pc, #44]	; (8006d24 <Si7006_port_init+0x3c>)
 8006cf6:	605a      	str	r2, [r3, #4]
	Si7006.i2c_transmit = Si7006_port_i2c_transmit;
 8006cf8:	4b08      	ldr	r3, [pc, #32]	; (8006d1c <Si7006_port_init+0x34>)
 8006cfa:	4a0b      	ldr	r2, [pc, #44]	; (8006d28 <Si7006_port_init+0x40>)
 8006cfc:	609a      	str	r2, [r3, #8]
	Si7006.i2c_receive = Si7006_port_i2c_receive;
 8006cfe:	4b07      	ldr	r3, [pc, #28]	; (8006d1c <Si7006_port_init+0x34>)
 8006d00:	4a0a      	ldr	r2, [pc, #40]	; (8006d2c <Si7006_port_init+0x44>)
 8006d02:	60da      	str	r2, [r3, #12]
	Si7006.check_hardware = Si7006_port_check_hardware;
 8006d04:	4b05      	ldr	r3, [pc, #20]	; (8006d1c <Si7006_port_init+0x34>)
 8006d06:	4a0a      	ldr	r2, [pc, #40]	; (8006d30 <Si7006_port_init+0x48>)
 8006d08:	611a      	str	r2, [r3, #16]
	Si7006.delay = Si7006_port_delay;
 8006d0a:	4b04      	ldr	r3, [pc, #16]	; (8006d1c <Si7006_port_init+0x34>)
 8006d0c:	4a09      	ldr	r2, [pc, #36]	; (8006d34 <Si7006_port_init+0x4c>)
 8006d0e:	615a      	str	r2, [r3, #20]

	return Si7006_port_check_hardware();
 8006d10:	f000 f856 	bl	8006dc0 <Si7006_port_check_hardware>
 8006d14:	4603      	mov	r3, r0

}
 8006d16:	4618      	mov	r0, r3
 8006d18:	bd80      	pop	{r7, pc}
 8006d1a:	bf00      	nop
 8006d1c:	20008094 	.word	0x20008094
 8006d20:	08006ce9 	.word	0x08006ce9
 8006d24:	08006d39 	.word	0x08006d39
 8006d28:	08006d49 	.word	0x08006d49
 8006d2c:	08006d85 	.word	0x08006d85
 8006d30:	08006dc1 	.word	0x08006dc1
 8006d34:	08006df5 	.word	0x08006df5

08006d38 <Si7006_port_i2c_init>:
Si7006_error_t Si7006_port_i2c_init(void){
 8006d38:	b480      	push	{r7}
 8006d3a:	af00      	add	r7, sp, #0

}
 8006d3c:	bf00      	nop
 8006d3e:	4618      	mov	r0, r3
 8006d40:	46bd      	mov	sp, r7
 8006d42:	f85d 7b04 	ldr.w	r7, [sp], #4
 8006d46:	4770      	bx	lr

08006d48 <Si7006_port_i2c_transmit>:
Si7006_error_t Si7006_port_i2c_transmit(uint8_t *data, unsigned int size){
 8006d48:	b580      	push	{r7, lr}
 8006d4a:	b086      	sub	sp, #24
 8006d4c:	af02      	add	r7, sp, #8
 8006d4e:	6078      	str	r0, [r7, #4]
 8006d50:	6039      	str	r1, [r7, #0]

	HAL_StatusTypeDef ret = HAL_I2C_Master_Transmit(&hi2c1,(0x40<<1) ,data,size, 1000);
 8006d52:	683b      	ldr	r3, [r7, #0]
 8006d54:	b29a      	uxth	r2, r3
 8006d56:	f44f 737a 	mov.w	r3, #1000	; 0x3e8
 8006d5a:	9300      	str	r3, [sp, #0]
 8006d5c:	4613      	mov	r3, r2
 8006d5e:	687a      	ldr	r2, [r7, #4]
 8006d60:	2180      	movs	r1, #128	; 0x80
 8006d62:	4807      	ldr	r0, [pc, #28]	; (8006d80 <Si7006_port_i2c_transmit+0x38>)
 8006d64:	f7fb f998 	bl	8002098 <HAL_I2C_Master_Transmit>
 8006d68:	4603      	mov	r3, r0
 8006d6a:	73fb      	strb	r3, [r7, #15]
	if(ret == HAL_OK) return SI7006_SUCCESS;
 8006d6c:	7bfb      	ldrb	r3, [r7, #15]
 8006d6e:	2b00      	cmp	r3, #0
 8006d70:	d101      	bne.n	8006d76 <Si7006_port_i2c_transmit+0x2e>
 8006d72:	2300      	movs	r3, #0
 8006d74:	e000      	b.n	8006d78 <Si7006_port_i2c_transmit+0x30>
	else return SI7006_ERROR;
 8006d76:	2301      	movs	r3, #1
}
 8006d78:	4618      	mov	r0, r3
 8006d7a:	3710      	adds	r7, #16
 8006d7c:	46bd      	mov	sp, r7
 8006d7e:	bd80      	pop	{r7, pc}
 8006d80:	20008048 	.word	0x20008048

08006d84 <Si7006_port_i2c_receive>:
Si7006_error_t Si7006_port_i2c_receive(uint8_t *data, unsigned int size){
 8006d84:	b580      	push	{r7, lr}
 8006d86:	b086      	sub	sp, #24
 8006d88:	af02      	add	r7, sp, #8
 8006d8a:	6078      	str	r0, [r7, #4]
 8006d8c:	6039      	str	r1, [r7, #0]
	HAL_StatusTypeDef ret = HAL_I2C_Master_Receive(&hi2c1,(0x40<<1) ,data,size, 1000);
 8006d8e:	683b      	ldr	r3, [r7, #0]
 8006d90:	b29a      	uxth	r2, r3
 8006d92:	f44f 737a 	mov.w	r3, #1000	; 0x3e8
 8006d96:	9300      	str	r3, [sp, #0]
 8006d98:	4613      	mov	r3, r2
 8006d9a:	687a      	ldr	r2, [r7, #4]
 8006d9c:	2180      	movs	r1, #128	; 0x80
 8006d9e:	4807      	ldr	r0, [pc, #28]	; (8006dbc <Si7006_port_i2c_receive+0x38>)
 8006da0:	f7fb fa7a 	bl	8002298 <HAL_I2C_Master_Receive>
 8006da4:	4603      	mov	r3, r0
 8006da6:	73fb      	strb	r3, [r7, #15]
	if(ret == HAL_OK) return SI7006_SUCCESS;
 8006da8:	7bfb      	ldrb	r3, [r7, #15]
 8006daa:	2b00      	cmp	r3, #0
 8006dac:	d101      	bne.n	8006db2 <Si7006_port_i2c_receive+0x2e>
 8006dae:	2300      	movs	r3, #0
 8006db0:	e000      	b.n	8006db4 <Si7006_port_i2c_receive+0x30>
	else return SI7006_ERROR;
 8006db2:	2301      	movs	r3, #1
}
 8006db4:	4618      	mov	r0, r3
 8006db6:	3710      	adds	r7, #16
 8006db8:	46bd      	mov	sp, r7
 8006dba:	bd80      	pop	{r7, pc}
 8006dbc:	20008048 	.word	0x20008048

08006dc0 <Si7006_port_check_hardware>:
Si7006_error_t Si7006_port_check_hardware(){
 8006dc0:	b580      	push	{r7, lr}
 8006dc2:	b082      	sub	sp, #8
 8006dc4:	af00      	add	r7, sp, #0
	HAL_StatusTypeDef ret = HAL_I2C_IsDeviceReady(&hi2c1,(0x40<<1), 1000, 1000);
 8006dc6:	f44f 737a 	mov.w	r3, #1000	; 0x3e8
 8006dca:	f44f 727a 	mov.w	r2, #1000	; 0x3e8
 8006dce:	2180      	movs	r1, #128	; 0x80
 8006dd0:	4807      	ldr	r0, [pc, #28]	; (8006df0 <Si7006_port_check_hardware+0x30>)
 8006dd2:	f7fb fb63 	bl	800249c <HAL_I2C_IsDeviceReady>
 8006dd6:	4603      	mov	r3, r0
 8006dd8:	71fb      	strb	r3, [r7, #7]
	if(ret == HAL_OK) return SI7006_SUCCESS;
 8006dda:	79fb      	ldrb	r3, [r7, #7]
 8006ddc:	2b00      	cmp	r3, #0
 8006dde:	d101      	bne.n	8006de4 <Si7006_port_check_hardware+0x24>
 8006de0:	2300      	movs	r3, #0
 8006de2:	e000      	b.n	8006de6 <Si7006_port_check_hardware+0x26>
	else return SI7006_ERROR;
 8006de4:	2301      	movs	r3, #1
}
 8006de6:	4618      	mov	r0, r3
 8006de8:	3708      	adds	r7, #8
 8006dea:	46bd      	mov	sp, r7
 8006dec:	bd80      	pop	{r7, pc}
 8006dee:	bf00      	nop
 8006df0:	20008048 	.word	0x20008048

08006df4 <Si7006_port_delay>:
Si7006_error_t Si7006_port_delay(unsigned int ms){
 8006df4:	b580      	push	{r7, lr}
 8006df6:	b082      	sub	sp, #8
 8006df8:	af00      	add	r7, sp, #0
 8006dfa:	6078      	str	r0, [r7, #4]

	HAL_Delay(ms);
 8006dfc:	6878      	ldr	r0, [r7, #4]
 8006dfe:	f7fa fded 	bl	80019dc <HAL_Delay>
}
 8006e02:	bf00      	nop
 8006e04:	4618      	mov	r0, r3
 8006e06:	3708      	adds	r7, #8
 8006e08:	46bd      	mov	sp, r7
 8006e0a:	bd80      	pop	{r7, pc}
 8006e0c:	0000      	movs	r0, r0
	...

08006e10 <RadioReset>:
*/




void RadioReset(){
 8006e10:	b590      	push	{r4, r7, lr}
 8006e12:	b083      	sub	sp, #12
 8006e14:	af00      	add	r7, sp, #0

	NRF24L01p_RadioConfig.DataReadyInterruptEnabled = 0;
 8006e16:	4b48      	ldr	r3, [pc, #288]	; (8006f38 <RadioReset+0x128>)
 8006e18:	2200      	movs	r2, #0
 8006e1a:	701a      	strb	r2, [r3, #0]
	NRF24L01p_RadioConfig.DataSentInterruptFlagEnabled = 0;
 8006e1c:	4b46      	ldr	r3, [pc, #280]	; (8006f38 <RadioReset+0x128>)
 8006e1e:	2200      	movs	r2, #0
 8006e20:	705a      	strb	r2, [r3, #1]
	NRF24L01p_RadioConfig.MaxRetryInterruptFlagEnabled = 0;
 8006e22:	4b45      	ldr	r3, [pc, #276]	; (8006f38 <RadioReset+0x128>)
 8006e24:	2200      	movs	r2, #0
 8006e26:	709a      	strb	r2, [r3, #2]
	NRF24L01p_RadioConfig.Crc = CONFIG_CRC_16BIT;
 8006e28:	4b43      	ldr	r3, [pc, #268]	; (8006f38 <RadioReset+0x128>)
 8006e2a:	220c      	movs	r2, #12
 8006e2c:	70da      	strb	r2, [r3, #3]
	NRF24L01p_RadioConfig.AutoReTransmissionCount = 15;
 8006e2e:	4b42      	ldr	r3, [pc, #264]	; (8006f38 <RadioReset+0x128>)
 8006e30:	220f      	movs	r2, #15
 8006e32:	711a      	strb	r2, [r3, #4]
	NRF24L01p_RadioConfig.AutoReTransmitDelayX250us = 15;
 8006e34:	4b40      	ldr	r3, [pc, #256]	; (8006f38 <RadioReset+0x128>)
 8006e36:	220f      	movs	r2, #15
 8006e38:	715a      	strb	r2, [r3, #5]
	NRF24L01p_RadioConfig.frequencyOffset = 2;
 8006e3a:	4b3f      	ldr	r3, [pc, #252]	; (8006f38 <RadioReset+0x128>)
 8006e3c:	2202      	movs	r2, #2
 8006e3e:	719a      	strb	r2, [r3, #6]
	NRF24L01p_RadioConfig.datarate = RF_SETUP_RF_DR_2MBPS;
 8006e40:	4b3d      	ldr	r3, [pc, #244]	; (8006f38 <RadioReset+0x128>)
 8006e42:	2208      	movs	r2, #8
 8006e44:	71da      	strb	r2, [r3, #7]
	NRF24L01p_RadioConfig.RfPower = RF_SETUP_RF_PWR_0DBM;
 8006e46:	4b3c      	ldr	r3, [pc, #240]	; (8006f38 <RadioReset+0x128>)
 8006e48:	2206      	movs	r2, #6
 8006e4a:	721a      	strb	r2, [r3, #8]
	NRF24L01p_RadioConfig.PllLock = 0;
 8006e4c:	4b3a      	ldr	r3, [pc, #232]	; (8006f38 <RadioReset+0x128>)
 8006e4e:	2200      	movs	r2, #0
 8006e50:	725a      	strb	r2, [r3, #9]
	NRF24L01p_RadioConfig.ContWaveEnabled = 0;
 8006e52:	4b39      	ldr	r3, [pc, #228]	; (8006f38 <RadioReset+0x128>)
 8006e54:	2200      	movs	r2, #0
 8006e56:	729a      	strb	r2, [r3, #10]
	NRF24L01p_RadioConfig.FeatureDynamicPayloadEnabled = 1;
 8006e58:	4b37      	ldr	r3, [pc, #220]	; (8006f38 <RadioReset+0x128>)
 8006e5a:	2201      	movs	r2, #1
 8006e5c:	72da      	strb	r2, [r3, #11]
	NRF24L01p_RadioConfig.FeaturePayloadWithAckEnabled = 1;
 8006e5e:	4b36      	ldr	r3, [pc, #216]	; (8006f38 <RadioReset+0x128>)
 8006e60:	2201      	movs	r2, #1
 8006e62:	731a      	strb	r2, [r3, #12]
	NRF24L01p_RadioConfig.FeatureDynamicPayloadWithNoAckEnabled = 1;
 8006e64:	4b34      	ldr	r3, [pc, #208]	; (8006f38 <RadioReset+0x128>)
 8006e66:	2201      	movs	r2, #1
 8006e68:	735a      	strb	r2, [r3, #13]

    RxPipeConfig[0].address = 0x11223344EE;
 8006e6a:	4a34      	ldr	r2, [pc, #208]	; (8006f3c <RadioReset+0x12c>)
 8006e6c:	a426      	add	r4, pc, #152	; (adr r4, 8006f08 <RadioReset+0xf8>)
 8006e6e:	cc18      	ldmia	r4, {r3, r4}
 8006e70:	e9c2 3402 	strd	r3, r4, [r2, #8]
    RxPipeConfig[1].address = 0x9A4524CE01;
 8006e74:	4a31      	ldr	r2, [pc, #196]	; (8006f3c <RadioReset+0x12c>)
 8006e76:	a426      	add	r4, pc, #152	; (adr r4, 8006f10 <RadioReset+0x100>)
 8006e78:	cc18      	ldmia	r4, {r3, r4}
 8006e7a:	e9c2 3408 	strd	r3, r4, [r2, #32]
    RxPipeConfig[2].address = 0x9A4524CE02;
 8006e7e:	4a2f      	ldr	r2, [pc, #188]	; (8006f3c <RadioReset+0x12c>)
 8006e80:	a425      	add	r4, pc, #148	; (adr r4, 8006f18 <RadioReset+0x108>)
 8006e82:	cc18      	ldmia	r4, {r3, r4}
 8006e84:	e9c2 340e 	strd	r3, r4, [r2, #56]	; 0x38
    RxPipeConfig[3].address = 0x9A4524CE03;
 8006e88:	4a2c      	ldr	r2, [pc, #176]	; (8006f3c <RadioReset+0x12c>)
 8006e8a:	a425      	add	r4, pc, #148	; (adr r4, 8006f20 <RadioReset+0x110>)
 8006e8c:	cc18      	ldmia	r4, {r3, r4}
 8006e8e:	e9c2 3414 	strd	r3, r4, [r2, #80]	; 0x50
    RxPipeConfig[4].address = 0x9A4524CE04;
 8006e92:	4a2a      	ldr	r2, [pc, #168]	; (8006f3c <RadioReset+0x12c>)
 8006e94:	a424      	add	r4, pc, #144	; (adr r4, 8006f28 <RadioReset+0x118>)
 8006e96:	cc18      	ldmia	r4, {r3, r4}
 8006e98:	e9c2 341a 	strd	r3, r4, [r2, #104]	; 0x68
    RxPipeConfig[5].address = 0x9A4524CE05;
 8006e9c:	4a27      	ldr	r2, [pc, #156]	; (8006f3c <RadioReset+0x12c>)
 8006e9e:	a424      	add	r4, pc, #144	; (adr r4, 8006f30 <RadioReset+0x120>)
 8006ea0:	cc18      	ldmia	r4, {r3, r4}
 8006ea2:	e9c2 3420 	strd	r3, r4, [r2, #128]	; 0x80


	int i;
	for(i=0;i<6;i++){
 8006ea6:	2300      	movs	r3, #0
 8006ea8:	607b      	str	r3, [r7, #4]
 8006eaa:	e01f      	b.n	8006eec <RadioReset+0xdc>
		RxPipeConfig[i].PipeEnabled = 1;
 8006eac:	4923      	ldr	r1, [pc, #140]	; (8006f3c <RadioReset+0x12c>)
 8006eae:	687a      	ldr	r2, [r7, #4]
 8006eb0:	4613      	mov	r3, r2
 8006eb2:	005b      	lsls	r3, r3, #1
 8006eb4:	4413      	add	r3, r2
 8006eb6:	00db      	lsls	r3, r3, #3
 8006eb8:	440b      	add	r3, r1
 8006eba:	2201      	movs	r2, #1
 8006ebc:	701a      	strb	r2, [r3, #0]
		RxPipeConfig[i].autoAckEnabled = 1;
 8006ebe:	491f      	ldr	r1, [pc, #124]	; (8006f3c <RadioReset+0x12c>)
 8006ec0:	687a      	ldr	r2, [r7, #4]
 8006ec2:	4613      	mov	r3, r2
 8006ec4:	005b      	lsls	r3, r3, #1
 8006ec6:	4413      	add	r3, r2
 8006ec8:	00db      	lsls	r3, r3, #3
 8006eca:	440b      	add	r3, r1
 8006ecc:	3301      	adds	r3, #1
 8006ece:	2201      	movs	r2, #1
 8006ed0:	701a      	strb	r2, [r3, #0]
		RxPipeConfig[i].dynamicPayloadEnabled = 1;
 8006ed2:	491a      	ldr	r1, [pc, #104]	; (8006f3c <RadioReset+0x12c>)
 8006ed4:	687a      	ldr	r2, [r7, #4]
 8006ed6:	4613      	mov	r3, r2
 8006ed8:	005b      	lsls	r3, r3, #1
 8006eda:	4413      	add	r3, r2
 8006edc:	00db      	lsls	r3, r3, #3
 8006ede:	440b      	add	r3, r1
 8006ee0:	3311      	adds	r3, #17
 8006ee2:	2201      	movs	r2, #1
 8006ee4:	701a      	strb	r2, [r3, #0]
	for(i=0;i<6;i++){
 8006ee6:	687b      	ldr	r3, [r7, #4]
 8006ee8:	3301      	adds	r3, #1
 8006eea:	607b      	str	r3, [r7, #4]
 8006eec:	687b      	ldr	r3, [r7, #4]
 8006eee:	2b05      	cmp	r3, #5
 8006ef0:	dddc      	ble.n	8006eac <RadioReset+0x9c>
	}


	NRF24L01p_ResetConfigValues(&NRF24L01p_RadioConfig, RxPipeConfig);
 8006ef2:	4912      	ldr	r1, [pc, #72]	; (8006f3c <RadioReset+0x12c>)
 8006ef4:	4810      	ldr	r0, [pc, #64]	; (8006f38 <RadioReset+0x128>)
 8006ef6:	f7f9 fdab 	bl	8000a50 <NRF24L01p_ResetConfigValues>
}
 8006efa:	bf00      	nop
 8006efc:	370c      	adds	r7, #12
 8006efe:	46bd      	mov	sp, r7
 8006f00:	bd90      	pop	{r4, r7, pc}
 8006f02:	bf00      	nop
 8006f04:	f3af 8000 	nop.w
 8006f08:	223344ee 	.word	0x223344ee
 8006f0c:	00000011 	.word	0x00000011
 8006f10:	4524ce01 	.word	0x4524ce01
 8006f14:	0000009a 	.word	0x0000009a
 8006f18:	4524ce02 	.word	0x4524ce02
 8006f1c:	0000009a 	.word	0x0000009a
 8006f20:	4524ce03 	.word	0x4524ce03
 8006f24:	0000009a 	.word	0x0000009a
 8006f28:	4524ce04 	.word	0x4524ce04
 8006f2c:	0000009a 	.word	0x0000009a
 8006f30:	4524ce05 	.word	0x4524ce05
 8006f34:	0000009a 	.word	0x0000009a
 8006f38:	20008228 	.word	0x20008228
 8006f3c:	20007fb0 	.word	0x20007fb0

08006f40 <xNotification>:

		}
	}
}

void xNotification( void *pvParameters ){
 8006f40:	b580      	push	{r7, lr}
 8006f42:	b084      	sub	sp, #16
 8006f44:	af00      	add	r7, sp, #0
 8006f46:	6078      	str	r0, [r7, #4]
	uint32_t ulNotifiedValue;
	while(1){

		if(xTaskNotifyWait (0 , 0xFFFFFFFF, &ulNotifiedValue, portMAX_DELAY) == pdTRUE){
 8006f48:	f107 020c 	add.w	r2, r7, #12
 8006f4c:	f04f 33ff 	mov.w	r3, #4294967295
 8006f50:	f04f 31ff 	mov.w	r1, #4294967295
 8006f54:	2000      	movs	r0, #0
 8006f56:	f7ff fc49 	bl	80067ec <xTaskNotifyWait>
 8006f5a:	4603      	mov	r3, r0
 8006f5c:	2b01      	cmp	r3, #1
 8006f5e:	d10e      	bne.n	8006f7e <xNotification+0x3e>
						//DigitalPin_ClearValue(&led1);
			HAL_GPIO_WritePin (GPIOB, GPIO_PIN_9, GPIO_PIN_SET);
 8006f60:	2201      	movs	r2, #1
 8006f62:	f44f 7100 	mov.w	r1, #512	; 0x200
 8006f66:	4808      	ldr	r0, [pc, #32]	; (8006f88 <xNotification+0x48>)
 8006f68:	f7fa fff0 	bl	8001f4c <HAL_GPIO_WritePin>
						vTaskDelay(200);
 8006f6c:	20c8      	movs	r0, #200	; 0xc8
 8006f6e:	f7ff f841 	bl	8005ff4 <vTaskDelay>
			HAL_GPIO_WritePin (GPIOB, GPIO_PIN_9, GPIO_PIN_RESET);
 8006f72:	2200      	movs	r2, #0
 8006f74:	f44f 7100 	mov.w	r1, #512	; 0x200
 8006f78:	4803      	ldr	r0, [pc, #12]	; (8006f88 <xNotification+0x48>)
 8006f7a:	f7fa ffe7 	bl	8001f4c <HAL_GPIO_WritePin>

						//DigitalPin_SetValue(&led1);
		}

		vTaskDelay(100);
 8006f7e:	2064      	movs	r0, #100	; 0x64
 8006f80:	f7ff f838 	bl	8005ff4 <vTaskDelay>
		if(xTaskNotifyWait (0 , 0xFFFFFFFF, &ulNotifiedValue, portMAX_DELAY) == pdTRUE){
 8006f84:	e7e0      	b.n	8006f48 <xNotification+0x8>
 8006f86:	bf00      	nop
 8006f88:	48000400 	.word	0x48000400
 8006f8c:	00000000 	.word	0x00000000

08006f90 <xPC>:
}




void xPC( void *pvParameters ){
 8006f90:	b590      	push	{r4, r7, lr}
 8006f92:	b0ab      	sub	sp, #172	; 0xac
 8006f94:	af00      	add	r7, sp, #0
 8006f96:	6078      	str	r0, [r7, #4]
	char cmd[50];
	int CmdSize = 32;
 8006f98:	2320      	movs	r3, #32
 8006f9a:	f8c7 3094 	str.w	r3, [r7, #148]	; 0x94
	custom_print("initialization\r\n");
 8006f9e:	488c      	ldr	r0, [pc, #560]	; (80071d0 <xPC+0x240>)
 8006fa0:	f000 fbec 	bl	800777c <custom_print>

	RadioReset();
 8006fa4:	f7ff ff34 	bl	8006e10 <RadioReset>

	char myMesg[32];

	Rxpayload.UseAck = 1;
 8006fa8:	4b8a      	ldr	r3, [pc, #552]	; (80071d4 <xPC+0x244>)
 8006faa:	2201      	movs	r2, #1
 8006fac:	755a      	strb	r2, [r3, #21]


	Rxpayload.address = 0x11223344EE;
 8006fae:	4a89      	ldr	r2, [pc, #548]	; (80071d4 <xPC+0x244>)
 8006fb0:	a485      	add	r4, pc, #532	; (adr r4, 80071c8 <xPC+0x238>)
 8006fb2:	cc18      	ldmia	r4, {r3, r4}
 8006fb4:	e882 0018 	stmia.w	r2, {r3, r4}
	Rxpayload.data = (uint8_t*)myMesg;
 8006fb8:	4a86      	ldr	r2, [pc, #536]	; (80071d4 <xPC+0x244>)
 8006fba:	f107 0340 	add.w	r3, r7, #64	; 0x40
 8006fbe:	60d3      	str	r3, [r2, #12]
	Rxpayload.length = strlen(myMesg);
 8006fc0:	f107 0340 	add.w	r3, r7, #64	; 0x40
 8006fc4:	4618      	mov	r0, r3
 8006fc6:	f7f9 f903 	bl	80001d0 <strlen>
 8006fca:	4602      	mov	r2, r0
 8006fcc:	4b81      	ldr	r3, [pc, #516]	; (80071d4 <xPC+0x244>)
 8006fce:	611a      	str	r2, [r3, #16]
	Rxpayload.retransmitCount = 15;
 8006fd0:	4b80      	ldr	r3, [pc, #512]	; (80071d4 <xPC+0x244>)
 8006fd2:	220f      	movs	r2, #15
 8006fd4:	751a      	strb	r2, [r3, #20]


	//////
	/////
	custom_print ("\e[1;32mWlecome Everyone.\r\n\e[0m");
 8006fd6:	4880      	ldr	r0, [pc, #512]	; (80071d8 <xPC+0x248>)
 8006fd8:	f000 fbd0 	bl	800777c <custom_print>
	custom_print ("\e[1;34mCygning Demo\r\n\e[0m");
 8006fdc:	487f      	ldr	r0, [pc, #508]	; (80071dc <xPC+0x24c>)
 8006fde:	f000 fbcd 	bl	800777c <custom_print>
    custom_print ("\e[1;35mFYS4260\r\n\e[0m");
 8006fe2:	487f      	ldr	r0, [pc, #508]	; (80071e0 <xPC+0x250>)
 8006fe4:	f000 fbca 	bl	800777c <custom_print>

    char command[50];
    char commandPtr = 0;
 8006fe8:	2300      	movs	r3, #0
 8006fea:	f887 30a7 	strb.w	r3, [r7, #167]	; 0xa7
	while(1){

		//custom_print("hello world\b\b\b\r\n");
		//custom_print ("\e[1;30mThis is a gray text.\r\n\e[0m");
		//custom_print ("\e[1;31mThis is a red text.\r\n\e[0m");
		custom_print("\r\n\e[1;32mCygnini>>\e[0m");
 8006fee:	487d      	ldr	r0, [pc, #500]	; (80071e4 <xPC+0x254>)
 8006ff0:	f000 fbc4 	bl	800777c <custom_print>
	    //custom_print ("\e[1;36mThis is a cyan text.\r\n\e[0m");
	    //custom_print ("\e[1;37mThis is a white text.\r\n\e[0m");


	    int i = 0;
 8006ff4:	2300      	movs	r3, #0
 8006ff6:	f8c7 30a0 	str.w	r3, [r7, #160]	; 0xa0
		char c;
		while(1){
			//c = pc_getc();
			HAL_StatusTypeDef rxerr = HAL_UART_Receive(&huart1, &c, 1, 0);
 8006ffa:	f107 010b 	add.w	r1, r7, #11
 8006ffe:	2300      	movs	r3, #0
 8007000:	2201      	movs	r2, #1
 8007002:	4879      	ldr	r0, [pc, #484]	; (80071e8 <xPC+0x258>)
 8007004:	f7fd fdfb 	bl	8004bfe <HAL_UART_Receive>
 8007008:	4603      	mov	r3, r0
 800700a:	f887 3093 	strb.w	r3, [r7, #147]	; 0x93

			if(rxerr == HAL_OK){
 800700e:	f897 3093 	ldrb.w	r3, [r7, #147]	; 0x93
 8007012:	2b00      	cmp	r3, #0
 8007014:	d13a      	bne.n	800708c <xPC+0xfc>
				//printf("%#2x",c);
				if(c == '\r'){
 8007016:	7afb      	ldrb	r3, [r7, #11]
 8007018:	2b0d      	cmp	r3, #13
 800701a:	d113      	bne.n	8007044 <xPC+0xb4>
				   cmd[i] = 0;
 800701c:	f107 0260 	add.w	r2, r7, #96	; 0x60
 8007020:	f8d7 30a0 	ldr.w	r3, [r7, #160]	; 0xa0
 8007024:	4413      	add	r3, r2
 8007026:	2200      	movs	r2, #0
 8007028:	701a      	strb	r2, [r3, #0]
				   if(i>0) break;
 800702a:	f8d7 30a0 	ldr.w	r3, [r7, #160]	; 0xa0
 800702e:	2b00      	cmp	r3, #0
 8007030:	dc7c      	bgt.n	800712c <xPC+0x19c>

				   command[commandPtr] = 0;
 8007032:	f897 30a7 	ldrb.w	r3, [r7, #167]	; 0xa7
 8007036:	f107 02a8 	add.w	r2, r7, #168	; 0xa8
 800703a:	4413      	add	r3, r2
 800703c:	2200      	movs	r2, #0
 800703e:	f803 2c9c 	strb.w	r2, [r3, #-156]
 8007042:	e023      	b.n	800708c <xPC+0xfc>
				//	i--;
				//	cmd[i] = 0;
				//	pc_putc(0x7f);
				//}
				else{
					if(i<CmdSize){
 8007044:	f8d7 20a0 	ldr.w	r2, [r7, #160]	; 0xa0
 8007048:	f8d7 3094 	ldr.w	r3, [r7, #148]	; 0x94
 800704c:	429a      	cmp	r2, r3
 800704e:	da1d      	bge.n	800708c <xPC+0xfc>
						pc_putc(c);
 8007050:	7afb      	ldrb	r3, [r7, #11]
 8007052:	4618      	mov	r0, r3
 8007054:	f000 fb80 	bl	8007758 <pc_putc>
						cmd[i] = c;
 8007058:	7af9      	ldrb	r1, [r7, #11]
 800705a:	f107 0260 	add.w	r2, r7, #96	; 0x60
 800705e:	f8d7 30a0 	ldr.w	r3, [r7, #160]	; 0xa0
 8007062:	4413      	add	r3, r2
 8007064:	460a      	mov	r2, r1
 8007066:	701a      	strb	r2, [r3, #0]
						i++;
 8007068:	f8d7 30a0 	ldr.w	r3, [r7, #160]	; 0xa0
 800706c:	3301      	adds	r3, #1
 800706e:	f8c7 30a0 	str.w	r3, [r7, #160]	; 0xa0

						command[commandPtr] = c;
 8007072:	f897 30a7 	ldrb.w	r3, [r7, #167]	; 0xa7
 8007076:	7afa      	ldrb	r2, [r7, #11]
 8007078:	f107 01a8 	add.w	r1, r7, #168	; 0xa8
 800707c:	440b      	add	r3, r1
 800707e:	f803 2c9c 	strb.w	r2, [r3, #-156]
						commandPtr++;
 8007082:	f897 30a7 	ldrb.w	r3, [r7, #167]	; 0xa7
 8007086:	3301      	adds	r3, #1
 8007088:	f887 30a7 	strb.w	r3, [r7, #167]	; 0xa7
			}




			if(NRF24L01p_readable()){
 800708c:	f7f9 fe2c 	bl	8000ce8 <NRF24L01p_readable>
 8007090:	4603      	mov	r3, r0
 8007092:	2b00      	cmp	r3, #0
 8007094:	d0b1      	beq.n	8006ffa <xPC+0x6a>
				xTaskNotify ( xNotificationHandle, (1<<0), eSetBits);
 8007096:	4b55      	ldr	r3, [pc, #340]	; (80071ec <xPC+0x25c>)
 8007098:	6818      	ldr	r0, [r3, #0]
 800709a:	2300      	movs	r3, #0
 800709c:	2201      	movs	r2, #1
 800709e:	2101      	movs	r1, #1
 80070a0:	f7ff fc2a 	bl	80068f8 <xTaskGenericNotify>
				//custom_print("message received\r\n");

				Rxpayload.data = RxData;
 80070a4:	4b4b      	ldr	r3, [pc, #300]	; (80071d4 <xPC+0x244>)
 80070a6:	4a52      	ldr	r2, [pc, #328]	; (80071f0 <xPC+0x260>)
 80070a8:	60da      	str	r2, [r3, #12]

				NRF24L01p_clear_data_ready_flag();
 80070aa:	f7fa f9cb 	bl	8001444 <NRF24L01p_clear_data_ready_flag>
				NRF24L01p_readPayload(&Rxpayload);
 80070ae:	4849      	ldr	r0, [pc, #292]	; (80071d4 <xPC+0x244>)
 80070b0:	f7f9 fe5e 	bl	8000d70 <NRF24L01p_readPayload>
				Rxpayload.data[Rxpayload.length] = '\0';
 80070b4:	4b47      	ldr	r3, [pc, #284]	; (80071d4 <xPC+0x244>)
 80070b6:	68da      	ldr	r2, [r3, #12]
 80070b8:	4b46      	ldr	r3, [pc, #280]	; (80071d4 <xPC+0x244>)
 80070ba:	691b      	ldr	r3, [r3, #16]
 80070bc:	4413      	add	r3, r2
 80070be:	2200      	movs	r2, #0
 80070c0:	701a      	strb	r2, [r3, #0]

				graphic_lcd_write(1, 0, "RECEIVED DATA");
 80070c2:	4a4c      	ldr	r2, [pc, #304]	; (80071f4 <xPC+0x264>)
 80070c4:	2100      	movs	r1, #0
 80070c6:	2001      	movs	r0, #1
 80070c8:	f7f9 fb54 	bl	8000774 <graphic_lcd_write>
				graphic_lcd_write(2, 0, Rxpayload.data);
 80070cc:	4b41      	ldr	r3, [pc, #260]	; (80071d4 <xPC+0x244>)
 80070ce:	68db      	ldr	r3, [r3, #12]
 80070d0:	461a      	mov	r2, r3
 80070d2:	2100      	movs	r1, #0
 80070d4:	2002      	movs	r0, #2
 80070d6:	f7f9 fb4d 	bl	8000774 <graphic_lcd_write>

				custom_print("\r\n\r\n");
 80070da:	4847      	ldr	r0, [pc, #284]	; (80071f8 <xPC+0x268>)
 80070dc:	f000 fb4e 	bl	800777c <custom_print>
				custom_print(Rxpayload.data);
 80070e0:	4b3c      	ldr	r3, [pc, #240]	; (80071d4 <xPC+0x244>)
 80070e2:	68db      	ldr	r3, [r3, #12]
 80070e4:	4618      	mov	r0, r3
 80070e6:	f000 fb49 	bl	800777c <custom_print>
				custom_print("\r\n\r\n");
 80070ea:	4843      	ldr	r0, [pc, #268]	; (80071f8 <xPC+0x268>)
 80070ec:	f000 fb46 	bl	800777c <custom_print>

				//xTaskNotify ( xGLCDHandle, (1<<0), eSetBits);
				NRF24L01p_flush_rx();
 80070f0:	f7fa f811 	bl	8001116 <NRF24L01p_flush_rx>


				custom_print("\r\n\e[1;32mCygnini>>\e[0m");
 80070f4:	483b      	ldr	r0, [pc, #236]	; (80071e4 <xPC+0x254>)
 80070f6:	f000 fb41 	bl	800777c <custom_print>


				for(int m=0;m<commandPtr;m++){
 80070fa:	2300      	movs	r3, #0
 80070fc:	f8c7 309c 	str.w	r3, [r7, #156]	; 0x9c
 8007100:	e00d      	b.n	800711e <xPC+0x18e>
					pc_putc(command[m]);
 8007102:	f107 020c 	add.w	r2, r7, #12
 8007106:	f8d7 309c 	ldr.w	r3, [r7, #156]	; 0x9c
 800710a:	4413      	add	r3, r2
 800710c:	781b      	ldrb	r3, [r3, #0]
 800710e:	4618      	mov	r0, r3
 8007110:	f000 fb22 	bl	8007758 <pc_putc>
				for(int m=0;m<commandPtr;m++){
 8007114:	f8d7 309c 	ldr.w	r3, [r7, #156]	; 0x9c
 8007118:	3301      	adds	r3, #1
 800711a:	f8c7 309c 	str.w	r3, [r7, #156]	; 0x9c
 800711e:	f897 20a7 	ldrb.w	r2, [r7, #167]	; 0xa7
 8007122:	f8d7 309c 	ldr.w	r3, [r7, #156]	; 0x9c
 8007126:	429a      	cmp	r2, r3
 8007128:	dceb      	bgt.n	8007102 <xPC+0x172>
		while(1){
 800712a:	e766      	b.n	8006ffa <xPC+0x6a>
				   if(i>0) break;
 800712c:	bf00      	nop



		}

		commandPtr = 0;
 800712e:	2300      	movs	r3, #0
 8007130:	f887 30a7 	strb.w	r3, [r7, #167]	; 0xa7


		for(int j=0;j<=i;j++){
 8007134:	2300      	movs	r3, #0
 8007136:	f8c7 3098 	str.w	r3, [r7, #152]	; 0x98
 800713a:	e010      	b.n	800715e <xPC+0x1ce>
			cmdMsg[j] = cmd[j];
 800713c:	f107 0260 	add.w	r2, r7, #96	; 0x60
 8007140:	f8d7 3098 	ldr.w	r3, [r7, #152]	; 0x98
 8007144:	4413      	add	r3, r2
 8007146:	7819      	ldrb	r1, [r3, #0]
 8007148:	4a2c      	ldr	r2, [pc, #176]	; (80071fc <xPC+0x26c>)
 800714a:	f8d7 3098 	ldr.w	r3, [r7, #152]	; 0x98
 800714e:	4413      	add	r3, r2
 8007150:	460a      	mov	r2, r1
 8007152:	701a      	strb	r2, [r3, #0]
		for(int j=0;j<=i;j++){
 8007154:	f8d7 3098 	ldr.w	r3, [r7, #152]	; 0x98
 8007158:	3301      	adds	r3, #1
 800715a:	f8c7 3098 	str.w	r3, [r7, #152]	; 0x98
 800715e:	f8d7 2098 	ldr.w	r2, [r7, #152]	; 0x98
 8007162:	f8d7 30a0 	ldr.w	r3, [r7, #160]	; 0xa0
 8007166:	429a      	cmp	r2, r3
 8007168:	dde8      	ble.n	800713c <xPC+0x1ac>

		//custom_print(cmdMsg);
		//custom_print("\r\n");


		sprintf(TxData, cmdMsg);
 800716a:	4924      	ldr	r1, [pc, #144]	; (80071fc <xPC+0x26c>)
 800716c:	4824      	ldr	r0, [pc, #144]	; (8007200 <xPC+0x270>)
 800716e:	f000 fe21 	bl	8007db4 <siprintf>
		//TxPayload.data = tempString;
		TxPayload.data = TxData;
 8007172:	4b24      	ldr	r3, [pc, #144]	; (8007204 <xPC+0x274>)
 8007174:	4a22      	ldr	r2, [pc, #136]	; (8007200 <xPC+0x270>)
 8007176:	60da      	str	r2, [r3, #12]
		TxPayload.UseAck = 1;
 8007178:	4b22      	ldr	r3, [pc, #136]	; (8007204 <xPC+0x274>)
 800717a:	2201      	movs	r2, #1
 800717c:	755a      	strb	r2, [r3, #21]
		TxPayload.length = strlen(cmdMsg);
 800717e:	481f      	ldr	r0, [pc, #124]	; (80071fc <xPC+0x26c>)
 8007180:	f7f9 f826 	bl	80001d0 <strlen>
 8007184:	4602      	mov	r2, r0
 8007186:	4b1f      	ldr	r3, [pc, #124]	; (8007204 <xPC+0x274>)
 8007188:	611a      	str	r2, [r3, #16]
		//TxPayload.length = strlen(tempString);
		TxPayload.address = 0x11223344EE;
 800718a:	4a1e      	ldr	r2, [pc, #120]	; (8007204 <xPC+0x274>)
 800718c:	a40e      	add	r4, pc, #56	; (adr r4, 80071c8 <xPC+0x238>)
 800718e:	cc18      	ldmia	r4, {r3, r4}
 8007190:	e882 0018 	stmia.w	r2, {r3, r4}

		NRF24L01p_writePayload(&TxPayload);
 8007194:	481b      	ldr	r0, [pc, #108]	; (8007204 <xPC+0x274>)
 8007196:	f7f9 fdb9 	bl	8000d0c <NRF24L01p_writePayload>

		NRF24L01p_ErrorStatus_t ret = NRF24L01p_TransmitPayload(&TxPayload);
 800719a:	481a      	ldr	r0, [pc, #104]	; (8007204 <xPC+0x274>)
 800719c:	f7f9 fe22 	bl	8000de4 <NRF24L01p_TransmitPayload>
 80071a0:	4603      	mov	r3, r0
 80071a2:	f887 3092 	strb.w	r3, [r7, #146]	; 0x92

		if(ret == NRF24L01P_SUCCESS){
 80071a6:	f897 3092 	ldrb.w	r3, [r7, #146]	; 0x92
 80071aa:	2b01      	cmp	r3, #1
 80071ac:	d002      	beq.n	80071b4 <xPC+0x224>

		}
		else{
			custom_print("\t\t\r\n\e[1;31mTransmission Failed\e[0m");
 80071ae:	4816      	ldr	r0, [pc, #88]	; (8007208 <xPC+0x278>)
 80071b0:	f000 fae4 	bl	800777c <custom_print>
		}



		NRF24L01p_flush_tx();
 80071b4:	f7f9 ff9a 	bl	80010ec <NRF24L01p_flush_tx>
		//NRF24L01p_flush_rx();

		HAL_Delay(200);
 80071b8:	20c8      	movs	r0, #200	; 0xc8
 80071ba:	f7fa fc0f 	bl	80019dc <HAL_Delay>




		//xTaskNotify ( xGLCDHandle, (1<<0), eSetBits);
		vTaskDelay(100);
 80071be:	2064      	movs	r0, #100	; 0x64
 80071c0:	f7fe ff18 	bl	8005ff4 <vTaskDelay>
	while(1){
 80071c4:	e713      	b.n	8006fee <xPC+0x5e>
 80071c6:	bf00      	nop
 80071c8:	223344ee 	.word	0x223344ee
 80071cc:	00000011 	.word	0x00000011
 80071d0:	08007f38 	.word	0x08007f38
 80071d4:	20008148 	.word	0x20008148
 80071d8:	08007f4c 	.word	0x08007f4c
 80071dc:	08007f6c 	.word	0x08007f6c
 80071e0:	08007f88 	.word	0x08007f88
 80071e4:	08007fa0 	.word	0x08007fa0
 80071e8:	200081b8 	.word	0x200081b8
 80071ec:	20007f14 	.word	0x20007f14
 80071f0:	20008258 	.word	0x20008258
 80071f4:	08007fb8 	.word	0x08007fb8
 80071f8:	08007fc8 	.word	0x08007fc8
 80071fc:	200080ac 	.word	0x200080ac
 8007200:	20008238 	.word	0x20008238
 8007204:	20008190 	.word	0x20008190
 8007208:	08007fd0 	.word	0x08007fd0

0800720c <xGLCD>:
}




void xGLCD( void *pvParameters ){
 800720c:	b580      	push	{r7, lr}
 800720e:	b08c      	sub	sp, #48	; 0x30
 8007210:	af00      	add	r7, sp, #0
 8007212:	6078      	str	r0, [r7, #4]
	uint32_t ulNotifiedValue;

	int dataCount = 0;
 8007214:	2300      	movs	r3, #0
 8007216:	62fb      	str	r3, [r7, #44]	; 0x2c
	char msg[30];
	while(1){

		if(xTaskNotifyWait (0 , 0xFFFFFFFF, &ulNotifiedValue, portMAX_DELAY) == pdTRUE){
 8007218:	f107 0228 	add.w	r2, r7, #40	; 0x28
 800721c:	f04f 33ff 	mov.w	r3, #4294967295
 8007220:	f04f 31ff 	mov.w	r1, #4294967295
 8007224:	2000      	movs	r0, #0
 8007226:	f7ff fae1 	bl	80067ec <xTaskNotifyWait>
 800722a:	4603      	mov	r3, r0
 800722c:	2b01      	cmp	r3, #1
 800722e:	d117      	bne.n	8007260 <xGLCD+0x54>
			dataCount++;
 8007230:	6afb      	ldr	r3, [r7, #44]	; 0x2c
 8007232:	3301      	adds	r3, #1
 8007234:	62fb      	str	r3, [r7, #44]	; 0x2c
			sprintf(msg, "total messages: %d", dataCount);
 8007236:	f107 0308 	add.w	r3, r7, #8
 800723a:	6afa      	ldr	r2, [r7, #44]	; 0x2c
 800723c:	490a      	ldr	r1, [pc, #40]	; (8007268 <xGLCD+0x5c>)
 800723e:	4618      	mov	r0, r3
 8007240:	f000 fdb8 	bl	8007db4 <siprintf>
			graphic_lcd_clear_screen ();
 8007244:	f7f9 fa6e 	bl	8000724 <graphic_lcd_clear_screen>
			graphic_lcd_write(1, 0, msg);
 8007248:	f107 0308 	add.w	r3, r7, #8
 800724c:	461a      	mov	r2, r3
 800724e:	2100      	movs	r1, #0
 8007250:	2001      	movs	r0, #1
 8007252:	f7f9 fa8f 	bl	8000774 <graphic_lcd_write>
			graphic_lcd_write(3, 0, cmdMsg);
 8007256:	4a05      	ldr	r2, [pc, #20]	; (800726c <xGLCD+0x60>)
 8007258:	2100      	movs	r1, #0
 800725a:	2003      	movs	r0, #3
 800725c:	f7f9 fa8a 	bl	8000774 <graphic_lcd_write>
						//DigitalPin_SetValue(&led1);
		}

		vTaskDelay(100);
 8007260:	2064      	movs	r0, #100	; 0x64
 8007262:	f7fe fec7 	bl	8005ff4 <vTaskDelay>
		if(xTaskNotifyWait (0 , 0xFFFFFFFF, &ulNotifiedValue, portMAX_DELAY) == pdTRUE){
 8007266:	e7d7      	b.n	8007218 <xGLCD+0xc>
 8007268:	08007ff4 	.word	0x08007ff4
 800726c:	200080ac 	.word	0x200080ac

08007270 <xButtons>:

	}
}

void xButtons (void *pvParameters) {
 8007270:	b580      	push	{r7, lr}
 8007272:	b082      	sub	sp, #8
 8007274:	af00      	add	r7, sp, #0
 8007276:	6078      	str	r0, [r7, #4]

	printf("this is button loop\r\n");
 8007278:	4819      	ldr	r0, [pc, #100]	; (80072e0 <xButtons+0x70>)
 800727a:	f000 fdb1 	bl	8007de0 <puts>
	while(1){
		if(HAL_GPIO_ReadPin(GPIOA, GPIO_PIN_0) == 0){
 800727e:	2101      	movs	r1, #1
 8007280:	f04f 4090 	mov.w	r0, #1207959552	; 0x48000000
 8007284:	f7fa fe4a 	bl	8001f1c <HAL_GPIO_ReadPin>
 8007288:	4603      	mov	r3, r0
 800728a:	2b00      	cmp	r3, #0
 800728c:	d102      	bne.n	8007294 <xButtons+0x24>
			custom_print("you pressed button D\r\n");
 800728e:	4815      	ldr	r0, [pc, #84]	; (80072e4 <xButtons+0x74>)
 8007290:	f000 fa74 	bl	800777c <custom_print>

		}
		if(HAL_GPIO_ReadPin(GPIOA, GPIO_PIN_1) == 0){
 8007294:	2102      	movs	r1, #2
 8007296:	f04f 4090 	mov.w	r0, #1207959552	; 0x48000000
 800729a:	f7fa fe3f 	bl	8001f1c <HAL_GPIO_ReadPin>
 800729e:	4603      	mov	r3, r0
 80072a0:	2b00      	cmp	r3, #0
 80072a2:	d102      	bne.n	80072aa <xButtons+0x3a>
			custom_print("you pressed button C\r\n");
 80072a4:	4810      	ldr	r0, [pc, #64]	; (80072e8 <xButtons+0x78>)
 80072a6:	f000 fa69 	bl	800777c <custom_print>

		}
		if(HAL_GPIO_ReadPin(GPIOA, GPIO_PIN_2) == 0){
 80072aa:	2104      	movs	r1, #4
 80072ac:	f04f 4090 	mov.w	r0, #1207959552	; 0x48000000
 80072b0:	f7fa fe34 	bl	8001f1c <HAL_GPIO_ReadPin>
 80072b4:	4603      	mov	r3, r0
 80072b6:	2b00      	cmp	r3, #0
 80072b8:	d102      	bne.n	80072c0 <xButtons+0x50>
			custom_print("you pressed button B\r\n");
 80072ba:	480c      	ldr	r0, [pc, #48]	; (80072ec <xButtons+0x7c>)
 80072bc:	f000 fa5e 	bl	800777c <custom_print>

		}
		if(HAL_GPIO_ReadPin(GPIOA, GPIO_PIN_3) == 0){
 80072c0:	2108      	movs	r1, #8
 80072c2:	f04f 4090 	mov.w	r0, #1207959552	; 0x48000000
 80072c6:	f7fa fe29 	bl	8001f1c <HAL_GPIO_ReadPin>
 80072ca:	4603      	mov	r3, r0
 80072cc:	2b00      	cmp	r3, #0
 80072ce:	d102      	bne.n	80072d6 <xButtons+0x66>
			custom_print("you pressed button A\r\n");
 80072d0:	4807      	ldr	r0, [pc, #28]	; (80072f0 <xButtons+0x80>)
 80072d2:	f000 fa53 	bl	800777c <custom_print>

		}

		vTaskDelay(200);
 80072d6:	20c8      	movs	r0, #200	; 0xc8
 80072d8:	f7fe fe8c 	bl	8005ff4 <vTaskDelay>
		if(HAL_GPIO_ReadPin(GPIOA, GPIO_PIN_0) == 0){
 80072dc:	e7cf      	b.n	800727e <xButtons+0xe>
 80072de:	bf00      	nop
 80072e0:	08008008 	.word	0x08008008
 80072e4:	08008020 	.word	0x08008020
 80072e8:	08008038 	.word	0x08008038
 80072ec:	08008050 	.word	0x08008050
 80072f0:	08008068 	.word	0x08008068

080072f4 <SystemClock_Config>:
/**
  * @brief System Clock Configuration
  * @retval None
  */
void SystemClock_Config(void)
{
 80072f4:	b580      	push	{r7, lr}
 80072f6:	b0ae      	sub	sp, #184	; 0xb8
 80072f8:	af00      	add	r7, sp, #0
  RCC_OscInitTypeDef RCC_OscInitStruct = {0};
 80072fa:	f107 0374 	add.w	r3, r7, #116	; 0x74
 80072fe:	2244      	movs	r2, #68	; 0x44
 8007300:	2100      	movs	r1, #0
 8007302:	4618      	mov	r0, r3
 8007304:	f000 fdbc 	bl	8007e80 <memset>
  RCC_ClkInitTypeDef RCC_ClkInitStruct = {0};
 8007308:	f107 0360 	add.w	r3, r7, #96	; 0x60
 800730c:	2200      	movs	r2, #0
 800730e:	601a      	str	r2, [r3, #0]
 8007310:	605a      	str	r2, [r3, #4]
 8007312:	609a      	str	r2, [r3, #8]
 8007314:	60da      	str	r2, [r3, #12]
 8007316:	611a      	str	r2, [r3, #16]
  RCC_PeriphCLKInitTypeDef PeriphClkInit = {0};
 8007318:	463b      	mov	r3, r7
 800731a:	2260      	movs	r2, #96	; 0x60
 800731c:	2100      	movs	r1, #0
 800731e:	4618      	mov	r0, r3
 8007320:	f000 fdae 	bl	8007e80 <memset>

  /**Configure LSE Drive Capability
  */
  HAL_PWR_EnableBkUpAccess();
 8007324:	f7fb fbf6 	bl	8002b14 <HAL_PWR_EnableBkUpAccess>
  __HAL_RCC_LSEDRIVE_CONFIG(RCC_LSEDRIVE_LOW);
 8007328:	4a3e      	ldr	r2, [pc, #248]	; (8007424 <SystemClock_Config+0x130>)
 800732a:	4b3e      	ldr	r3, [pc, #248]	; (8007424 <SystemClock_Config+0x130>)
 800732c:	f8d3 3090 	ldr.w	r3, [r3, #144]	; 0x90
 8007330:	f023 0318 	bic.w	r3, r3, #24
 8007334:	f8c2 3090 	str.w	r3, [r2, #144]	; 0x90
  /**Initializes the CPU, AHB and APB busses clocks
  */
  RCC_OscInitStruct.OscillatorType = RCC_OSCILLATORTYPE_LSE|RCC_OSCILLATORTYPE_MSI;
 8007338:	2314      	movs	r3, #20
 800733a:	677b      	str	r3, [r7, #116]	; 0x74
  RCC_OscInitStruct.LSEState = RCC_LSE_ON;
 800733c:	2301      	movs	r3, #1
 800733e:	67fb      	str	r3, [r7, #124]	; 0x7c
  RCC_OscInitStruct.MSIState = RCC_MSI_ON;
 8007340:	2301      	movs	r3, #1
 8007342:	f8c7 308c 	str.w	r3, [r7, #140]	; 0x8c
  RCC_OscInitStruct.MSICalibrationValue = 0;
 8007346:	2300      	movs	r3, #0
 8007348:	f8c7 3090 	str.w	r3, [r7, #144]	; 0x90
  RCC_OscInitStruct.MSIClockRange = RCC_MSIRANGE_7;
 800734c:	2370      	movs	r3, #112	; 0x70
 800734e:	f8c7 3094 	str.w	r3, [r7, #148]	; 0x94
  RCC_OscInitStruct.PLL.PLLState = RCC_PLL_ON;
 8007352:	2302      	movs	r3, #2
 8007354:	f8c7 309c 	str.w	r3, [r7, #156]	; 0x9c
  RCC_OscInitStruct.PLL.PLLSource = RCC_PLLSOURCE_MSI;
 8007358:	2301      	movs	r3, #1
 800735a:	f8c7 30a0 	str.w	r3, [r7, #160]	; 0xa0
  RCC_OscInitStruct.PLL.PLLM = 1;
 800735e:	2301      	movs	r3, #1
 8007360:	f8c7 30a4 	str.w	r3, [r7, #164]	; 0xa4
  RCC_OscInitStruct.PLL.PLLN = 36;
 8007364:	2324      	movs	r3, #36	; 0x24
 8007366:	f8c7 30a8 	str.w	r3, [r7, #168]	; 0xa8
  RCC_OscInitStruct.PLL.PLLP = RCC_PLLP_DIV7;
 800736a:	2307      	movs	r3, #7
 800736c:	f8c7 30ac 	str.w	r3, [r7, #172]	; 0xac
  RCC_OscInitStruct.PLL.PLLQ = RCC_PLLQ_DIV6;
 8007370:	2306      	movs	r3, #6
 8007372:	f8c7 30b0 	str.w	r3, [r7, #176]	; 0xb0
  RCC_OscInitStruct.PLL.PLLR = RCC_PLLR_DIV4;
 8007376:	2304      	movs	r3, #4
 8007378:	f8c7 30b4 	str.w	r3, [r7, #180]	; 0xb4
  if (HAL_RCC_OscConfig(&RCC_OscInitStruct) != HAL_OK)
 800737c:	f107 0374 	add.w	r3, r7, #116	; 0x74
 8007380:	4618      	mov	r0, r3
 8007382:	f7fb fc3b 	bl	8002bfc <HAL_RCC_OscConfig>
 8007386:	4603      	mov	r3, r0
 8007388:	2b00      	cmp	r3, #0
 800738a:	d001      	beq.n	8007390 <SystemClock_Config+0x9c>
  {
    Error_Handler();
 800738c:	f000 fa0c 	bl	80077a8 <Error_Handler>
  }
  /**Initializes the CPU, AHB and APB busses clocks
  */
  RCC_ClkInitStruct.ClockType = RCC_CLOCKTYPE_HCLK|RCC_CLOCKTYPE_SYSCLK
 8007390:	230f      	movs	r3, #15
 8007392:	663b      	str	r3, [r7, #96]	; 0x60
                              |RCC_CLOCKTYPE_PCLK1|RCC_CLOCKTYPE_PCLK2;
  RCC_ClkInitStruct.SYSCLKSource = RCC_SYSCLKSOURCE_PLLCLK;
 8007394:	2303      	movs	r3, #3
 8007396:	667b      	str	r3, [r7, #100]	; 0x64
  RCC_ClkInitStruct.AHBCLKDivider = RCC_SYSCLK_DIV1;
 8007398:	2300      	movs	r3, #0
 800739a:	66bb      	str	r3, [r7, #104]	; 0x68
  RCC_ClkInitStruct.APB1CLKDivider = RCC_HCLK_DIV1;
 800739c:	2300      	movs	r3, #0
 800739e:	66fb      	str	r3, [r7, #108]	; 0x6c
  RCC_ClkInitStruct.APB2CLKDivider = RCC_HCLK_DIV1;
 80073a0:	2300      	movs	r3, #0
 80073a2:	673b      	str	r3, [r7, #112]	; 0x70

  if (HAL_RCC_ClockConfig(&RCC_ClkInitStruct, FLASH_LATENCY_4) != HAL_OK)
 80073a4:	f107 0360 	add.w	r3, r7, #96	; 0x60
 80073a8:	2104      	movs	r1, #4
 80073aa:	4618      	mov	r0, r3
 80073ac:	f7fb ffe8 	bl	8003380 <HAL_RCC_ClockConfig>
 80073b0:	4603      	mov	r3, r0
 80073b2:	2b00      	cmp	r3, #0
 80073b4:	d001      	beq.n	80073ba <SystemClock_Config+0xc6>
  {
    Error_Handler();
 80073b6:	f000 f9f7 	bl	80077a8 <Error_Handler>
  }
  PeriphClkInit.PeriphClockSelection = RCC_PERIPHCLK_RTC|RCC_PERIPHCLK_USART1
 80073ba:	4b1b      	ldr	r3, [pc, #108]	; (8007428 <SystemClock_Config+0x134>)
 80073bc:	603b      	str	r3, [r7, #0]
                              |RCC_PERIPHCLK_SAI1|RCC_PERIPHCLK_I2C1
                              |RCC_PERIPHCLK_USB;
  PeriphClkInit.Usart1ClockSelection = RCC_USART1CLKSOURCE_PCLK2;
 80073be:	2300      	movs	r3, #0
 80073c0:	623b      	str	r3, [r7, #32]
  PeriphClkInit.I2c1ClockSelection = RCC_I2C1CLKSOURCE_PCLK1;
 80073c2:	2300      	movs	r3, #0
 80073c4:	633b      	str	r3, [r7, #48]	; 0x30
  PeriphClkInit.Sai1ClockSelection = RCC_SAI1CLKSOURCE_PLLSAI1;
 80073c6:	2300      	movs	r3, #0
 80073c8:	647b      	str	r3, [r7, #68]	; 0x44
  PeriphClkInit.RTCClockSelection = RCC_RTCCLKSOURCE_LSE;
 80073ca:	f44f 7380 	mov.w	r3, #256	; 0x100
 80073ce:	65fb      	str	r3, [r7, #92]	; 0x5c
  PeriphClkInit.UsbClockSelection = RCC_USBCLKSOURCE_PLL;
 80073d0:	f04f 6300 	mov.w	r3, #134217728	; 0x8000000
 80073d4:	64bb      	str	r3, [r7, #72]	; 0x48
  PeriphClkInit.PLLSAI1.PLLSAI1Source = RCC_PLLSOURCE_MSI;
 80073d6:	2301      	movs	r3, #1
 80073d8:	607b      	str	r3, [r7, #4]
  PeriphClkInit.PLLSAI1.PLLSAI1M = 1;
 80073da:	2301      	movs	r3, #1
 80073dc:	60bb      	str	r3, [r7, #8]
  PeriphClkInit.PLLSAI1.PLLSAI1N = 26;
 80073de:	231a      	movs	r3, #26
 80073e0:	60fb      	str	r3, [r7, #12]
  PeriphClkInit.PLLSAI1.PLLSAI1P = RCC_PLLP_DIV17;
 80073e2:	2311      	movs	r3, #17
 80073e4:	613b      	str	r3, [r7, #16]
  PeriphClkInit.PLLSAI1.PLLSAI1Q = RCC_PLLQ_DIV2;
 80073e6:	2302      	movs	r3, #2
 80073e8:	617b      	str	r3, [r7, #20]
  PeriphClkInit.PLLSAI1.PLLSAI1R = RCC_PLLR_DIV2;
 80073ea:	2302      	movs	r3, #2
 80073ec:	61bb      	str	r3, [r7, #24]
  PeriphClkInit.PLLSAI1.PLLSAI1ClockOut = RCC_PLLSAI1_SAI1CLK;
 80073ee:	f44f 3380 	mov.w	r3, #65536	; 0x10000
 80073f2:	61fb      	str	r3, [r7, #28]
  if (HAL_RCCEx_PeriphCLKConfig(&PeriphClkInit) != HAL_OK)
 80073f4:	463b      	mov	r3, r7
 80073f6:	4618      	mov	r0, r3
 80073f8:	f7fc fa90 	bl	800391c <HAL_RCCEx_PeriphCLKConfig>
 80073fc:	4603      	mov	r3, r0
 80073fe:	2b00      	cmp	r3, #0
 8007400:	d001      	beq.n	8007406 <SystemClock_Config+0x112>
  {
    Error_Handler();
 8007402:	f000 f9d1 	bl	80077a8 <Error_Handler>
  }
  /**Configure the main internal regulator output voltage
  */
  if (HAL_PWREx_ControlVoltageScaling(PWR_REGULATOR_VOLTAGE_SCALE1) != HAL_OK)
 8007406:	f44f 7000 	mov.w	r0, #512	; 0x200
 800740a:	f7fb fba1 	bl	8002b50 <HAL_PWREx_ControlVoltageScaling>
 800740e:	4603      	mov	r3, r0
 8007410:	2b00      	cmp	r3, #0
 8007412:	d001      	beq.n	8007418 <SystemClock_Config+0x124>
  {
    Error_Handler();
 8007414:	f000 f9c8 	bl	80077a8 <Error_Handler>
  }
  /**Enable MSI Auto calibration
  */
  HAL_RCCEx_EnableMSIPLLMode();
 8007418:	f7fc fcc6 	bl	8003da8 <HAL_RCCEx_EnableMSIPLLMode>


}
 800741c:	bf00      	nop
 800741e:	37b8      	adds	r7, #184	; 0xb8
 8007420:	46bd      	mov	sp, r7
 8007422:	bd80      	pop	{r7, pc}
 8007424:	40021000 	.word	0x40021000
 8007428:	00022841 	.word	0x00022841

0800742c <MX_I2C1_Init>:
  * @brief I2C1 Initialization Function
  * @param None
  * @retval None
  */
static void MX_I2C1_Init(void)
{
 800742c:	b580      	push	{r7, lr}
 800742e:	af00      	add	r7, sp, #0
  /* USER CODE END I2C1_Init 0 */

  /* USER CODE BEGIN I2C1_Init 1 */

  /* USER CODE END I2C1_Init 1 */
  hi2c1.Instance = I2C1;
 8007430:	4b1b      	ldr	r3, [pc, #108]	; (80074a0 <MX_I2C1_Init+0x74>)
 8007432:	4a1c      	ldr	r2, [pc, #112]	; (80074a4 <MX_I2C1_Init+0x78>)
 8007434:	601a      	str	r2, [r3, #0]
  hi2c1.Init.Timing = 0x00702991;
 8007436:	4b1a      	ldr	r3, [pc, #104]	; (80074a0 <MX_I2C1_Init+0x74>)
 8007438:	4a1b      	ldr	r2, [pc, #108]	; (80074a8 <MX_I2C1_Init+0x7c>)
 800743a:	605a      	str	r2, [r3, #4]
  hi2c1.Init.OwnAddress1 = 0;
 800743c:	4b18      	ldr	r3, [pc, #96]	; (80074a0 <MX_I2C1_Init+0x74>)
 800743e:	2200      	movs	r2, #0
 8007440:	609a      	str	r2, [r3, #8]
  hi2c1.Init.AddressingMode = I2C_ADDRESSINGMODE_7BIT;
 8007442:	4b17      	ldr	r3, [pc, #92]	; (80074a0 <MX_I2C1_Init+0x74>)
 8007444:	2201      	movs	r2, #1
 8007446:	60da      	str	r2, [r3, #12]
  hi2c1.Init.DualAddressMode = I2C_DUALADDRESS_DISABLE;
 8007448:	4b15      	ldr	r3, [pc, #84]	; (80074a0 <MX_I2C1_Init+0x74>)
 800744a:	2200      	movs	r2, #0
 800744c:	611a      	str	r2, [r3, #16]
  hi2c1.Init.OwnAddress2 = 0;
 800744e:	4b14      	ldr	r3, [pc, #80]	; (80074a0 <MX_I2C1_Init+0x74>)
 8007450:	2200      	movs	r2, #0
 8007452:	615a      	str	r2, [r3, #20]
  hi2c1.Init.OwnAddress2Masks = I2C_OA2_NOMASK;
 8007454:	4b12      	ldr	r3, [pc, #72]	; (80074a0 <MX_I2C1_Init+0x74>)
 8007456:	2200      	movs	r2, #0
 8007458:	619a      	str	r2, [r3, #24]
  hi2c1.Init.GeneralCallMode = I2C_GENERALCALL_DISABLE;
 800745a:	4b11      	ldr	r3, [pc, #68]	; (80074a0 <MX_I2C1_Init+0x74>)
 800745c:	2200      	movs	r2, #0
 800745e:	61da      	str	r2, [r3, #28]
  hi2c1.Init.NoStretchMode = I2C_NOSTRETCH_DISABLE;
 8007460:	4b0f      	ldr	r3, [pc, #60]	; (80074a0 <MX_I2C1_Init+0x74>)
 8007462:	2200      	movs	r2, #0
 8007464:	621a      	str	r2, [r3, #32]
  if (HAL_I2C_Init(&hi2c1) != HAL_OK)
 8007466:	480e      	ldr	r0, [pc, #56]	; (80074a0 <MX_I2C1_Init+0x74>)
 8007468:	f7fa fd88 	bl	8001f7c <HAL_I2C_Init>
 800746c:	4603      	mov	r3, r0
 800746e:	2b00      	cmp	r3, #0
 8007470:	d001      	beq.n	8007476 <MX_I2C1_Init+0x4a>
  {
    Error_Handler();
 8007472:	f000 f999 	bl	80077a8 <Error_Handler>
  }
  /** Configure Analogue filter
  */
  if (HAL_I2CEx_ConfigAnalogFilter(&hi2c1, I2C_ANALOGFILTER_ENABLE) != HAL_OK)
 8007476:	2100      	movs	r1, #0
 8007478:	4809      	ldr	r0, [pc, #36]	; (80074a0 <MX_I2C1_Init+0x74>)
 800747a:	f7fb fab1 	bl	80029e0 <HAL_I2CEx_ConfigAnalogFilter>
 800747e:	4603      	mov	r3, r0
 8007480:	2b00      	cmp	r3, #0
 8007482:	d001      	beq.n	8007488 <MX_I2C1_Init+0x5c>
  {
    Error_Handler();
 8007484:	f000 f990 	bl	80077a8 <Error_Handler>
  }
  /** Configure Digital filter
  */
  if (HAL_I2CEx_ConfigDigitalFilter(&hi2c1, 0) != HAL_OK)
 8007488:	2100      	movs	r1, #0
 800748a:	4805      	ldr	r0, [pc, #20]	; (80074a0 <MX_I2C1_Init+0x74>)
 800748c:	f7fb faf3 	bl	8002a76 <HAL_I2CEx_ConfigDigitalFilter>
 8007490:	4603      	mov	r3, r0
 8007492:	2b00      	cmp	r3, #0
 8007494:	d001      	beq.n	800749a <MX_I2C1_Init+0x6e>
  {
    Error_Handler();
 8007496:	f000 f987 	bl	80077a8 <Error_Handler>
  }
  /* USER CODE BEGIN I2C1_Init 2 */

  /* USER CODE END I2C1_Init 2 */

}
 800749a:	bf00      	nop
 800749c:	bd80      	pop	{r7, pc}
 800749e:	bf00      	nop
 80074a0:	20008048 	.word	0x20008048
 80074a4:	40005400 	.word	0x40005400
 80074a8:	00702991 	.word	0x00702991

080074ac <MX_SPI2_Init>:
  * @brief SPI2 Initialization Function
  * @param None
  * @retval None
  */
static void MX_SPI2_Init(void)
{
 80074ac:	b580      	push	{r7, lr}
 80074ae:	af00      	add	r7, sp, #0

  /* USER CODE BEGIN SPI2_Init 1 */

  /* USER CODE END SPI2_Init 1 */
  /* SPI2 parameter configuration*/
  hspi2.Instance = SPI2;
 80074b0:	4b1b      	ldr	r3, [pc, #108]	; (8007520 <MX_SPI2_Init+0x74>)
 80074b2:	4a1c      	ldr	r2, [pc, #112]	; (8007524 <MX_SPI2_Init+0x78>)
 80074b4:	601a      	str	r2, [r3, #0]
  hspi2.Init.Mode = SPI_MODE_MASTER;
 80074b6:	4b1a      	ldr	r3, [pc, #104]	; (8007520 <MX_SPI2_Init+0x74>)
 80074b8:	f44f 7282 	mov.w	r2, #260	; 0x104
 80074bc:	605a      	str	r2, [r3, #4]
  hspi2.Init.Direction = SPI_DIRECTION_2LINES;
 80074be:	4b18      	ldr	r3, [pc, #96]	; (8007520 <MX_SPI2_Init+0x74>)
 80074c0:	2200      	movs	r2, #0
 80074c2:	609a      	str	r2, [r3, #8]
  hspi2.Init.DataSize = SPI_DATASIZE_8BIT;
 80074c4:	4b16      	ldr	r3, [pc, #88]	; (8007520 <MX_SPI2_Init+0x74>)
 80074c6:	f44f 62e0 	mov.w	r2, #1792	; 0x700
 80074ca:	60da      	str	r2, [r3, #12]
  hspi2.Init.CLKPolarity = SPI_POLARITY_LOW;
 80074cc:	4b14      	ldr	r3, [pc, #80]	; (8007520 <MX_SPI2_Init+0x74>)
 80074ce:	2200      	movs	r2, #0
 80074d0:	611a      	str	r2, [r3, #16]
  hspi2.Init.CLKPhase = SPI_PHASE_1EDGE;
 80074d2:	4b13      	ldr	r3, [pc, #76]	; (8007520 <MX_SPI2_Init+0x74>)
 80074d4:	2200      	movs	r2, #0
 80074d6:	615a      	str	r2, [r3, #20]
  hspi2.Init.NSS = SPI_NSS_SOFT;
 80074d8:	4b11      	ldr	r3, [pc, #68]	; (8007520 <MX_SPI2_Init+0x74>)
 80074da:	f44f 7200 	mov.w	r2, #512	; 0x200
 80074de:	619a      	str	r2, [r3, #24]
  hspi2.Init.BaudRatePrescaler = SPI_BAUDRATEPRESCALER_2;
 80074e0:	4b0f      	ldr	r3, [pc, #60]	; (8007520 <MX_SPI2_Init+0x74>)
 80074e2:	2200      	movs	r2, #0
 80074e4:	61da      	str	r2, [r3, #28]
  hspi2.Init.FirstBit = SPI_FIRSTBIT_MSB;
 80074e6:	4b0e      	ldr	r3, [pc, #56]	; (8007520 <MX_SPI2_Init+0x74>)
 80074e8:	2200      	movs	r2, #0
 80074ea:	621a      	str	r2, [r3, #32]
  hspi2.Init.TIMode = SPI_TIMODE_DISABLE;
 80074ec:	4b0c      	ldr	r3, [pc, #48]	; (8007520 <MX_SPI2_Init+0x74>)
 80074ee:	2200      	movs	r2, #0
 80074f0:	625a      	str	r2, [r3, #36]	; 0x24
  hspi2.Init.CRCCalculation = SPI_CRCCALCULATION_DISABLE;
 80074f2:	4b0b      	ldr	r3, [pc, #44]	; (8007520 <MX_SPI2_Init+0x74>)
 80074f4:	2200      	movs	r2, #0
 80074f6:	629a      	str	r2, [r3, #40]	; 0x28
  hspi2.Init.CRCPolynomial = 7;
 80074f8:	4b09      	ldr	r3, [pc, #36]	; (8007520 <MX_SPI2_Init+0x74>)
 80074fa:	2207      	movs	r2, #7
 80074fc:	62da      	str	r2, [r3, #44]	; 0x2c
  hspi2.Init.CRCLength = SPI_CRC_LENGTH_DATASIZE;
 80074fe:	4b08      	ldr	r3, [pc, #32]	; (8007520 <MX_SPI2_Init+0x74>)
 8007500:	2200      	movs	r2, #0
 8007502:	631a      	str	r2, [r3, #48]	; 0x30
  hspi2.Init.NSSPMode = SPI_NSS_PULSE_ENABLE;
 8007504:	4b06      	ldr	r3, [pc, #24]	; (8007520 <MX_SPI2_Init+0x74>)
 8007506:	2208      	movs	r2, #8
 8007508:	635a      	str	r2, [r3, #52]	; 0x34
  if (HAL_SPI_Init(&hspi2) != HAL_OK)
 800750a:	4805      	ldr	r0, [pc, #20]	; (8007520 <MX_SPI2_Init+0x74>)
 800750c:	f7fc fdb0 	bl	8004070 <HAL_SPI_Init>
 8007510:	4603      	mov	r3, r0
 8007512:	2b00      	cmp	r3, #0
 8007514:	d001      	beq.n	800751a <MX_SPI2_Init+0x6e>
  {
    Error_Handler();
 8007516:	f000 f947 	bl	80077a8 <Error_Handler>
  }
  /* USER CODE BEGIN SPI2_Init 2 */

  /* USER CODE END SPI2_Init 2 */

}
 800751a:	bf00      	nop
 800751c:	bd80      	pop	{r7, pc}
 800751e:	bf00      	nop
 8007520:	20007f20 	.word	0x20007f20
 8007524:	40003800 	.word	0x40003800

08007528 <MX_SPI3_Init>:
  * @brief SPI3 Initialization Function
  * @param None
  * @retval None
  */
static void MX_SPI3_Init(void)
{
 8007528:	b580      	push	{r7, lr}
 800752a:	af00      	add	r7, sp, #0

  /* USER CODE BEGIN SPI3_Init 1 */

  /* USER CODE END SPI3_Init 1 */
  /* SPI3 parameter configuration*/
  hspi3.Instance = SPI3;
 800752c:	4b1b      	ldr	r3, [pc, #108]	; (800759c <MX_SPI3_Init+0x74>)
 800752e:	4a1c      	ldr	r2, [pc, #112]	; (80075a0 <MX_SPI3_Init+0x78>)
 8007530:	601a      	str	r2, [r3, #0]
  hspi3.Init.Mode = SPI_MODE_MASTER;
 8007532:	4b1a      	ldr	r3, [pc, #104]	; (800759c <MX_SPI3_Init+0x74>)
 8007534:	f44f 7282 	mov.w	r2, #260	; 0x104
 8007538:	605a      	str	r2, [r3, #4]
  hspi3.Init.Direction = SPI_DIRECTION_2LINES;
 800753a:	4b18      	ldr	r3, [pc, #96]	; (800759c <MX_SPI3_Init+0x74>)
 800753c:	2200      	movs	r2, #0
 800753e:	609a      	str	r2, [r3, #8]
  hspi3.Init.DataSize = SPI_DATASIZE_8BIT;
 8007540:	4b16      	ldr	r3, [pc, #88]	; (800759c <MX_SPI3_Init+0x74>)
 8007542:	f44f 62e0 	mov.w	r2, #1792	; 0x700
 8007546:	60da      	str	r2, [r3, #12]
  hspi3.Init.CLKPolarity = SPI_POLARITY_LOW;
 8007548:	4b14      	ldr	r3, [pc, #80]	; (800759c <MX_SPI3_Init+0x74>)
 800754a:	2200      	movs	r2, #0
 800754c:	611a      	str	r2, [r3, #16]
  hspi3.Init.CLKPhase = SPI_PHASE_1EDGE;
 800754e:	4b13      	ldr	r3, [pc, #76]	; (800759c <MX_SPI3_Init+0x74>)
 8007550:	2200      	movs	r2, #0
 8007552:	615a      	str	r2, [r3, #20]
  hspi3.Init.NSS = SPI_NSS_SOFT;
 8007554:	4b11      	ldr	r3, [pc, #68]	; (800759c <MX_SPI3_Init+0x74>)
 8007556:	f44f 7200 	mov.w	r2, #512	; 0x200
 800755a:	619a      	str	r2, [r3, #24]
  hspi3.Init.BaudRatePrescaler = SPI_BAUDRATEPRESCALER_2;
 800755c:	4b0f      	ldr	r3, [pc, #60]	; (800759c <MX_SPI3_Init+0x74>)
 800755e:	2200      	movs	r2, #0
 8007560:	61da      	str	r2, [r3, #28]
  hspi3.Init.FirstBit = SPI_FIRSTBIT_MSB;
 8007562:	4b0e      	ldr	r3, [pc, #56]	; (800759c <MX_SPI3_Init+0x74>)
 8007564:	2200      	movs	r2, #0
 8007566:	621a      	str	r2, [r3, #32]
  hspi3.Init.TIMode = SPI_TIMODE_DISABLE;
 8007568:	4b0c      	ldr	r3, [pc, #48]	; (800759c <MX_SPI3_Init+0x74>)
 800756a:	2200      	movs	r2, #0
 800756c:	625a      	str	r2, [r3, #36]	; 0x24
  hspi3.Init.CRCCalculation = SPI_CRCCALCULATION_DISABLE;
 800756e:	4b0b      	ldr	r3, [pc, #44]	; (800759c <MX_SPI3_Init+0x74>)
 8007570:	2200      	movs	r2, #0
 8007572:	629a      	str	r2, [r3, #40]	; 0x28
  hspi3.Init.CRCPolynomial = 7;
 8007574:	4b09      	ldr	r3, [pc, #36]	; (800759c <MX_SPI3_Init+0x74>)
 8007576:	2207      	movs	r2, #7
 8007578:	62da      	str	r2, [r3, #44]	; 0x2c
  hspi3.Init.CRCLength = SPI_CRC_LENGTH_DATASIZE;
 800757a:	4b08      	ldr	r3, [pc, #32]	; (800759c <MX_SPI3_Init+0x74>)
 800757c:	2200      	movs	r2, #0
 800757e:	631a      	str	r2, [r3, #48]	; 0x30
  hspi3.Init.NSSPMode = SPI_NSS_PULSE_ENABLE;
 8007580:	4b06      	ldr	r3, [pc, #24]	; (800759c <MX_SPI3_Init+0x74>)
 8007582:	2208      	movs	r2, #8
 8007584:	635a      	str	r2, [r3, #52]	; 0x34
  if (HAL_SPI_Init(&hspi3) != HAL_OK)
 8007586:	4805      	ldr	r0, [pc, #20]	; (800759c <MX_SPI3_Init+0x74>)
 8007588:	f7fc fd72 	bl	8004070 <HAL_SPI_Init>
 800758c:	4603      	mov	r3, r0
 800758e:	2b00      	cmp	r3, #0
 8007590:	d001      	beq.n	8007596 <MX_SPI3_Init+0x6e>
  {
    Error_Handler();
 8007592:	f000 f909 	bl	80077a8 <Error_Handler>
  }
  /* USER CODE BEGIN SPI3_Init 2 */

  /* USER CODE END SPI3_Init 2 */

}
 8007596:	bf00      	nop
 8007598:	bd80      	pop	{r7, pc}
 800759a:	bf00      	nop
 800759c:	200080e0 	.word	0x200080e0
 80075a0:	40003c00 	.word	0x40003c00

080075a4 <MX_USART1_UART_Init>:
  * @brief USART1 Initialization Function
  * @param None
  * @retval None
  */
static void MX_USART1_UART_Init(void)
{
 80075a4:	b580      	push	{r7, lr}
 80075a6:	af00      	add	r7, sp, #0
  /* USER CODE END USART1_Init 0 */

  /* USER CODE BEGIN USART1_Init 1 */

  /* USER CODE END USART1_Init 1 */
  huart1.Instance = USART1;
 80075a8:	4b14      	ldr	r3, [pc, #80]	; (80075fc <MX_USART1_UART_Init+0x58>)
 80075aa:	4a15      	ldr	r2, [pc, #84]	; (8007600 <MX_USART1_UART_Init+0x5c>)
 80075ac:	601a      	str	r2, [r3, #0]
  huart1.Init.BaudRate = 9600;
 80075ae:	4b13      	ldr	r3, [pc, #76]	; (80075fc <MX_USART1_UART_Init+0x58>)
 80075b0:	f44f 5216 	mov.w	r2, #9600	; 0x2580
 80075b4:	605a      	str	r2, [r3, #4]
  huart1.Init.WordLength = UART_WORDLENGTH_8B;
 80075b6:	4b11      	ldr	r3, [pc, #68]	; (80075fc <MX_USART1_UART_Init+0x58>)
 80075b8:	2200      	movs	r2, #0
 80075ba:	609a      	str	r2, [r3, #8]
  huart1.Init.StopBits = UART_STOPBITS_1;
 80075bc:	4b0f      	ldr	r3, [pc, #60]	; (80075fc <MX_USART1_UART_Init+0x58>)
 80075be:	2200      	movs	r2, #0
 80075c0:	60da      	str	r2, [r3, #12]
  huart1.Init.Parity = UART_PARITY_NONE;
 80075c2:	4b0e      	ldr	r3, [pc, #56]	; (80075fc <MX_USART1_UART_Init+0x58>)
 80075c4:	2200      	movs	r2, #0
 80075c6:	611a      	str	r2, [r3, #16]
  huart1.Init.Mode = UART_MODE_TX_RX;
 80075c8:	4b0c      	ldr	r3, [pc, #48]	; (80075fc <MX_USART1_UART_Init+0x58>)
 80075ca:	220c      	movs	r2, #12
 80075cc:	615a      	str	r2, [r3, #20]
  huart1.Init.HwFlowCtl = UART_HWCONTROL_NONE;
 80075ce:	4b0b      	ldr	r3, [pc, #44]	; (80075fc <MX_USART1_UART_Init+0x58>)
 80075d0:	2200      	movs	r2, #0
 80075d2:	619a      	str	r2, [r3, #24]
  huart1.Init.OverSampling = UART_OVERSAMPLING_16;
 80075d4:	4b09      	ldr	r3, [pc, #36]	; (80075fc <MX_USART1_UART_Init+0x58>)
 80075d6:	2200      	movs	r2, #0
 80075d8:	61da      	str	r2, [r3, #28]
  huart1.Init.OneBitSampling = UART_ONE_BIT_SAMPLE_DISABLE;
 80075da:	4b08      	ldr	r3, [pc, #32]	; (80075fc <MX_USART1_UART_Init+0x58>)
 80075dc:	2200      	movs	r2, #0
 80075de:	621a      	str	r2, [r3, #32]
  huart1.AdvancedInit.AdvFeatureInit = UART_ADVFEATURE_NO_INIT;
 80075e0:	4b06      	ldr	r3, [pc, #24]	; (80075fc <MX_USART1_UART_Init+0x58>)
 80075e2:	2200      	movs	r2, #0
 80075e4:	625a      	str	r2, [r3, #36]	; 0x24
  if (HAL_UART_Init(&huart1) != HAL_OK)
 80075e6:	4805      	ldr	r0, [pc, #20]	; (80075fc <MX_USART1_UART_Init+0x58>)
 80075e8:	f7fd fa2b 	bl	8004a42 <HAL_UART_Init>
 80075ec:	4603      	mov	r3, r0
 80075ee:	2b00      	cmp	r3, #0
 80075f0:	d001      	beq.n	80075f6 <MX_USART1_UART_Init+0x52>
  {
    Error_Handler();
 80075f2:	f000 f8d9 	bl	80077a8 <Error_Handler>
  }
  /* USER CODE BEGIN USART1_Init 2 */

  /* USER CODE END USART1_Init 2 */

}
 80075f6:	bf00      	nop
 80075f8:	bd80      	pop	{r7, pc}
 80075fa:	bf00      	nop
 80075fc:	200081b8 	.word	0x200081b8
 8007600:	40013800 	.word	0x40013800

08007604 <MX_DMA_Init>:
/**
  * Enable DMA controller clock
  * Configure DMA for memory to memory transfers
  */
static void MX_DMA_Init(void)
{
 8007604:	b480      	push	{r7}
 8007606:	af00      	add	r7, sp, #0


}
 8007608:	bf00      	nop
 800760a:	46bd      	mov	sp, r7
 800760c:	f85d 7b04 	ldr.w	r7, [sp], #4
 8007610:	4770      	bx	lr
	...

08007614 <MX_GPIO_Init>:
  * @brief GPIO Initialization Function
  * @param None
  * @retval None
  */
static void MX_GPIO_Init(void)
{
 8007614:	b580      	push	{r7, lr}
 8007616:	b088      	sub	sp, #32
 8007618:	af00      	add	r7, sp, #0
  GPIO_InitTypeDef GPIO_InitStruct = {0};
 800761a:	f107 030c 	add.w	r3, r7, #12
 800761e:	2200      	movs	r2, #0
 8007620:	601a      	str	r2, [r3, #0]
 8007622:	605a      	str	r2, [r3, #4]
 8007624:	609a      	str	r2, [r3, #8]
 8007626:	60da      	str	r2, [r3, #12]
 8007628:	611a      	str	r2, [r3, #16]

  /* GPIO Ports Clock Enable */
  __HAL_RCC_GPIOA_CLK_ENABLE();
 800762a:	4a47      	ldr	r2, [pc, #284]	; (8007748 <MX_GPIO_Init+0x134>)
 800762c:	4b46      	ldr	r3, [pc, #280]	; (8007748 <MX_GPIO_Init+0x134>)
 800762e:	6cdb      	ldr	r3, [r3, #76]	; 0x4c
 8007630:	f043 0301 	orr.w	r3, r3, #1
 8007634:	64d3      	str	r3, [r2, #76]	; 0x4c
 8007636:	4b44      	ldr	r3, [pc, #272]	; (8007748 <MX_GPIO_Init+0x134>)
 8007638:	6cdb      	ldr	r3, [r3, #76]	; 0x4c
 800763a:	f003 0301 	and.w	r3, r3, #1
 800763e:	60bb      	str	r3, [r7, #8]
 8007640:	68bb      	ldr	r3, [r7, #8]
  __HAL_RCC_GPIOC_CLK_ENABLE();
 8007642:	4a41      	ldr	r2, [pc, #260]	; (8007748 <MX_GPIO_Init+0x134>)
 8007644:	4b40      	ldr	r3, [pc, #256]	; (8007748 <MX_GPIO_Init+0x134>)
 8007646:	6cdb      	ldr	r3, [r3, #76]	; 0x4c
 8007648:	f043 0304 	orr.w	r3, r3, #4
 800764c:	64d3      	str	r3, [r2, #76]	; 0x4c
 800764e:	4b3e      	ldr	r3, [pc, #248]	; (8007748 <MX_GPIO_Init+0x134>)
 8007650:	6cdb      	ldr	r3, [r3, #76]	; 0x4c
 8007652:	f003 0304 	and.w	r3, r3, #4
 8007656:	607b      	str	r3, [r7, #4]
 8007658:	687b      	ldr	r3, [r7, #4]
  __HAL_RCC_GPIOB_CLK_ENABLE();
 800765a:	4a3b      	ldr	r2, [pc, #236]	; (8007748 <MX_GPIO_Init+0x134>)
 800765c:	4b3a      	ldr	r3, [pc, #232]	; (8007748 <MX_GPIO_Init+0x134>)
 800765e:	6cdb      	ldr	r3, [r3, #76]	; 0x4c
 8007660:	f043 0302 	orr.w	r3, r3, #2
 8007664:	64d3      	str	r3, [r2, #76]	; 0x4c
 8007666:	4b38      	ldr	r3, [pc, #224]	; (8007748 <MX_GPIO_Init+0x134>)
 8007668:	6cdb      	ldr	r3, [r3, #76]	; 0x4c
 800766a:	f003 0302 	and.w	r3, r3, #2
 800766e:	603b      	str	r3, [r7, #0]
 8007670:	683b      	ldr	r3, [r7, #0]

  /*Configure GPIO pin Output Level */
  HAL_GPIO_WritePin(GPIOA, GPIO_PIN_4|GPIO_PIN_5|GPIO_PIN_6|GPIO_PIN_7
 8007672:	2200      	movs	r2, #0
 8007674:	f44f 71f8 	mov.w	r1, #496	; 0x1f0
 8007678:	f04f 4090 	mov.w	r0, #1207959552	; 0x48000000
 800767c:	f7fa fc66 	bl	8001f4c <HAL_GPIO_WritePin>
                          |GPIO_PIN_8, GPIO_PIN_RESET);

  /*Configure GPIO pin Output Level */
  HAL_GPIO_WritePin(GPIOC, GPIO_PIN_5|GPIO_PIN_6|GPIO_PIN_8|GPIO_PIN_9, GPIO_PIN_RESET);
 8007680:	2200      	movs	r2, #0
 8007682:	f44f 7158 	mov.w	r1, #864	; 0x360
 8007686:	4831      	ldr	r0, [pc, #196]	; (800774c <MX_GPIO_Init+0x138>)
 8007688:	f7fa fc60 	bl	8001f4c <HAL_GPIO_WritePin>

  /*Configure GPIO pin Output Level */
  HAL_GPIO_WritePin(GPIOB, GPIO_PIN_12|GPIO_PIN_8|GPIO_PIN_9, GPIO_PIN_RESET);
 800768c:	2200      	movs	r2, #0
 800768e:	f44f 5198 	mov.w	r1, #4864	; 0x1300
 8007692:	482f      	ldr	r0, [pc, #188]	; (8007750 <MX_GPIO_Init+0x13c>)
 8007694:	f7fa fc5a 	bl	8001f4c <HAL_GPIO_WritePin>

  /*Configure GPIO pins : PA0 PA1 PA2 PA3 */
  GPIO_InitStruct.Pin = GPIO_PIN_0|GPIO_PIN_1|GPIO_PIN_2|GPIO_PIN_3;
 8007698:	230f      	movs	r3, #15
 800769a:	60fb      	str	r3, [r7, #12]
  GPIO_InitStruct.Mode = GPIO_MODE_INPUT;
 800769c:	2300      	movs	r3, #0
 800769e:	613b      	str	r3, [r7, #16]
  GPIO_InitStruct.Pull = GPIO_NOPULL;
 80076a0:	2300      	movs	r3, #0
 80076a2:	617b      	str	r3, [r7, #20]
  HAL_GPIO_Init(GPIOA, &GPIO_InitStruct);
 80076a4:	f107 030c 	add.w	r3, r7, #12
 80076a8:	4619      	mov	r1, r3
 80076aa:	f04f 4090 	mov.w	r0, #1207959552	; 0x48000000
 80076ae:	f7fa fab7 	bl	8001c20 <HAL_GPIO_Init>

  /*Configure GPIO pins : PA4 PA5 PA6 PA7
                           PA8 */
  GPIO_InitStruct.Pin = GPIO_PIN_4|GPIO_PIN_5|GPIO_PIN_6|GPIO_PIN_7
 80076b2:	f44f 73f8 	mov.w	r3, #496	; 0x1f0
 80076b6:	60fb      	str	r3, [r7, #12]
                          |GPIO_PIN_8;
  GPIO_InitStruct.Mode = GPIO_MODE_OUTPUT_PP;
 80076b8:	2301      	movs	r3, #1
 80076ba:	613b      	str	r3, [r7, #16]
  GPIO_InitStruct.Pull = GPIO_NOPULL;
 80076bc:	2300      	movs	r3, #0
 80076be:	617b      	str	r3, [r7, #20]
  GPIO_InitStruct.Speed = GPIO_SPEED_FREQ_LOW;
 80076c0:	2300      	movs	r3, #0
 80076c2:	61bb      	str	r3, [r7, #24]
  HAL_GPIO_Init(GPIOA, &GPIO_InitStruct);
 80076c4:	f107 030c 	add.w	r3, r7, #12
 80076c8:	4619      	mov	r1, r3
 80076ca:	f04f 4090 	mov.w	r0, #1207959552	; 0x48000000
 80076ce:	f7fa faa7 	bl	8001c20 <HAL_GPIO_Init>

  /*Configure GPIO pins : PC5 PC6 PC8 PC9 */
  GPIO_InitStruct.Pin = GPIO_PIN_5|GPIO_PIN_6|GPIO_PIN_8|GPIO_PIN_9;
 80076d2:	f44f 7358 	mov.w	r3, #864	; 0x360
 80076d6:	60fb      	str	r3, [r7, #12]
  GPIO_InitStruct.Mode = GPIO_MODE_OUTPUT_PP;
 80076d8:	2301      	movs	r3, #1
 80076da:	613b      	str	r3, [r7, #16]
  GPIO_InitStruct.Pull = GPIO_NOPULL;
 80076dc:	2300      	movs	r3, #0
 80076de:	617b      	str	r3, [r7, #20]
  GPIO_InitStruct.Speed = GPIO_SPEED_FREQ_LOW;
 80076e0:	2300      	movs	r3, #0
 80076e2:	61bb      	str	r3, [r7, #24]
  HAL_GPIO_Init(GPIOC, &GPIO_InitStruct);
 80076e4:	f107 030c 	add.w	r3, r7, #12
 80076e8:	4619      	mov	r1, r3
 80076ea:	4818      	ldr	r0, [pc, #96]	; (800774c <MX_GPIO_Init+0x138>)
 80076ec:	f7fa fa98 	bl	8001c20 <HAL_GPIO_Init>

  /*Configure GPIO pin : PB0 */
  GPIO_InitStruct.Pin = GPIO_PIN_0;
 80076f0:	2301      	movs	r3, #1
 80076f2:	60fb      	str	r3, [r7, #12]
  GPIO_InitStruct.Mode = GPIO_MODE_IT_RISING;
 80076f4:	4b17      	ldr	r3, [pc, #92]	; (8007754 <MX_GPIO_Init+0x140>)
 80076f6:	613b      	str	r3, [r7, #16]
  GPIO_InitStruct.Pull = GPIO_NOPULL;
 80076f8:	2300      	movs	r3, #0
 80076fa:	617b      	str	r3, [r7, #20]
  HAL_GPIO_Init(GPIOB, &GPIO_InitStruct);
 80076fc:	f107 030c 	add.w	r3, r7, #12
 8007700:	4619      	mov	r1, r3
 8007702:	4813      	ldr	r0, [pc, #76]	; (8007750 <MX_GPIO_Init+0x13c>)
 8007704:	f7fa fa8c 	bl	8001c20 <HAL_GPIO_Init>

  /*Configure GPIO pins : PB12 PB8 PB9 */
  GPIO_InitStruct.Pin = GPIO_PIN_12|GPIO_PIN_8|GPIO_PIN_9;
 8007708:	f44f 5398 	mov.w	r3, #4864	; 0x1300
 800770c:	60fb      	str	r3, [r7, #12]
  GPIO_InitStruct.Mode = GPIO_MODE_OUTPUT_PP;
 800770e:	2301      	movs	r3, #1
 8007710:	613b      	str	r3, [r7, #16]
  GPIO_InitStruct.Pull = GPIO_NOPULL;
 8007712:	2300      	movs	r3, #0
 8007714:	617b      	str	r3, [r7, #20]
  GPIO_InitStruct.Speed = GPIO_SPEED_FREQ_LOW;
 8007716:	2300      	movs	r3, #0
 8007718:	61bb      	str	r3, [r7, #24]
  HAL_GPIO_Init(GPIOB, &GPIO_InitStruct);
 800771a:	f107 030c 	add.w	r3, r7, #12
 800771e:	4619      	mov	r1, r3
 8007720:	480b      	ldr	r0, [pc, #44]	; (8007750 <MX_GPIO_Init+0x13c>)
 8007722:	f7fa fa7d 	bl	8001c20 <HAL_GPIO_Init>

  /*Configure GPIO pin : PC7 */
  GPIO_InitStruct.Pin = GPIO_PIN_7;
 8007726:	2380      	movs	r3, #128	; 0x80
 8007728:	60fb      	str	r3, [r7, #12]
  GPIO_InitStruct.Mode = GPIO_MODE_IT_RISING;
 800772a:	4b0a      	ldr	r3, [pc, #40]	; (8007754 <MX_GPIO_Init+0x140>)
 800772c:	613b      	str	r3, [r7, #16]
  GPIO_InitStruct.Pull = GPIO_NOPULL;
 800772e:	2300      	movs	r3, #0
 8007730:	617b      	str	r3, [r7, #20]
  HAL_GPIO_Init(GPIOC, &GPIO_InitStruct);
 8007732:	f107 030c 	add.w	r3, r7, #12
 8007736:	4619      	mov	r1, r3
 8007738:	4804      	ldr	r0, [pc, #16]	; (800774c <MX_GPIO_Init+0x138>)
 800773a:	f7fa fa71 	bl	8001c20 <HAL_GPIO_Init>

}
 800773e:	bf00      	nop
 8007740:	3720      	adds	r7, #32
 8007742:	46bd      	mov	sp, r7
 8007744:	bd80      	pop	{r7, pc}
 8007746:	bf00      	nop
 8007748:	40021000 	.word	0x40021000
 800774c:	48000800 	.word	0x48000800
 8007750:	48000400 	.word	0x48000400
 8007754:	10110000 	.word	0x10110000

08007758 <pc_putc>:




static void pc_putc(char c){
 8007758:	b580      	push	{r7, lr}
 800775a:	b082      	sub	sp, #8
 800775c:	af00      	add	r7, sp, #0
 800775e:	4603      	mov	r3, r0
 8007760:	71fb      	strb	r3, [r7, #7]
	HAL_UART_Transmit(&huart1, &c, 1,0xFFFF);
 8007762:	1df9      	adds	r1, r7, #7
 8007764:	f64f 73ff 	movw	r3, #65535	; 0xffff
 8007768:	2201      	movs	r2, #1
 800776a:	4803      	ldr	r0, [pc, #12]	; (8007778 <pc_putc+0x20>)
 800776c:	f7fd f9ba 	bl	8004ae4 <HAL_UART_Transmit>

}
 8007770:	bf00      	nop
 8007772:	3708      	adds	r7, #8
 8007774:	46bd      	mov	sp, r7
 8007776:	bd80      	pop	{r7, pc}
 8007778:	200081b8 	.word	0x200081b8

0800777c <custom_print>:
	char c;
	HAL_UART_Receive(&huart1, &c, 1, 0);
	return c;
}

static void custom_print(char *str){
 800777c:	b580      	push	{r7, lr}
 800777e:	b082      	sub	sp, #8
 8007780:	af00      	add	r7, sp, #0
 8007782:	6078      	str	r0, [r7, #4]
	HAL_UART_Transmit(&huart1, (uint8_t *)str, strlen(str),0xFFFF);
 8007784:	6878      	ldr	r0, [r7, #4]
 8007786:	f7f8 fd23 	bl	80001d0 <strlen>
 800778a:	4603      	mov	r3, r0
 800778c:	b29a      	uxth	r2, r3
 800778e:	f64f 73ff 	movw	r3, #65535	; 0xffff
 8007792:	6879      	ldr	r1, [r7, #4]
 8007794:	4803      	ldr	r0, [pc, #12]	; (80077a4 <custom_print+0x28>)
 8007796:	f7fd f9a5 	bl	8004ae4 <HAL_UART_Transmit>

}
 800779a:	bf00      	nop
 800779c:	3708      	adds	r7, #8
 800779e:	46bd      	mov	sp, r7
 80077a0:	bd80      	pop	{r7, pc}
 80077a2:	bf00      	nop
 80077a4:	200081b8 	.word	0x200081b8

080077a8 <Error_Handler>:
/**
  * @brief  This function is executed in case of error occurrence.
  * @retval None
  */
void Error_Handler(void)
{
 80077a8:	b480      	push	{r7}
 80077aa:	af00      	add	r7, sp, #0
  /* USER CODE BEGIN Error_Handler_Debug */
  /* User can add his own implementation to report the HAL error return state */

  /* USER CODE END Error_Handler_Debug */
}
 80077ac:	bf00      	nop
 80077ae:	46bd      	mov	sp, r7
 80077b0:	f85d 7b04 	ldr.w	r7, [sp], #4
 80077b4:	4770      	bx	lr
	...

080077b8 <Reset_Handler>:

    .section	.text.Reset_Handler
	.weak	Reset_Handler
	.type	Reset_Handler, %function
Reset_Handler:
  ldr   sp, =_estack    /* Atollic update: set stack pointer */
 80077b8:	f8df d034 	ldr.w	sp, [pc, #52]	; 80077f0 <LoopForever+0x2>

/* Copy the data segment initializers from flash to SRAM */
  movs	r1, #0
 80077bc:	2100      	movs	r1, #0
  b	LoopCopyDataInit
 80077be:	e003      	b.n	80077c8 <LoopCopyDataInit>

080077c0 <CopyDataInit>:

CopyDataInit:
	ldr	r3, =_sidata
 80077c0:	4b0c      	ldr	r3, [pc, #48]	; (80077f4 <LoopForever+0x6>)
	ldr	r3, [r3, r1]
 80077c2:	585b      	ldr	r3, [r3, r1]
	str	r3, [r0, r1]
 80077c4:	5043      	str	r3, [r0, r1]
	adds	r1, r1, #4
 80077c6:	3104      	adds	r1, #4

080077c8 <LoopCopyDataInit>:

LoopCopyDataInit:
	ldr	r0, =_sdata
 80077c8:	480b      	ldr	r0, [pc, #44]	; (80077f8 <LoopForever+0xa>)
	ldr	r3, =_edata
 80077ca:	4b0c      	ldr	r3, [pc, #48]	; (80077fc <LoopForever+0xe>)
	adds	r2, r0, r1
 80077cc:	1842      	adds	r2, r0, r1
	cmp	r2, r3
 80077ce:	429a      	cmp	r2, r3
	bcc	CopyDataInit
 80077d0:	d3f6      	bcc.n	80077c0 <CopyDataInit>
	ldr	r2, =_sbss
 80077d2:	4a0b      	ldr	r2, [pc, #44]	; (8007800 <LoopForever+0x12>)
	b	LoopFillZerobss
 80077d4:	e002      	b.n	80077dc <LoopFillZerobss>

080077d6 <FillZerobss>:
/* Zero fill the bss segment. */
FillZerobss:
	movs	r3, #0
 80077d6:	2300      	movs	r3, #0
	str	r3, [r2], #4
 80077d8:	f842 3b04 	str.w	r3, [r2], #4

080077dc <LoopFillZerobss>:

LoopFillZerobss:
	ldr	r3, = _ebss
 80077dc:	4b09      	ldr	r3, [pc, #36]	; (8007804 <LoopForever+0x16>)
	cmp	r2, r3
 80077de:	429a      	cmp	r2, r3
	bcc	FillZerobss
 80077e0:	d3f9      	bcc.n	80077d6 <FillZerobss>

/* Call the clock system intitialization function.*/
    bl  SystemInit
 80077e2:	f000 f9d1 	bl	8007b88 <SystemInit>
/* Call static constructors */
    bl __libc_init_array
 80077e6:	f000 fb27 	bl	8007e38 <__libc_init_array>
/* Call the application's entry point.*/
	bl	main
 80077ea:	f7ff f925 	bl	8006a38 <main>

080077ee <LoopForever>:

LoopForever:
    b LoopForever
 80077ee:	e7fe      	b.n	80077ee <LoopForever>
  ldr   sp, =_estack    /* Atollic update: set stack pointer */
 80077f0:	2000c000 	.word	0x2000c000
	ldr	r3, =_sidata
 80077f4:	080083b0 	.word	0x080083b0
	ldr	r0, =_sdata
 80077f8:	20000000 	.word	0x20000000
	ldr	r3, =_edata
 80077fc:	20000048 	.word	0x20000048
	ldr	r2, =_sbss
 8007800:	20000048 	.word	0x20000048
	ldr	r3, = _ebss
 8007804:	20008278 	.word	0x20008278

08007808 <ADC1_IRQHandler>:
 * @retval : None
*/
    .section	.text.Default_Handler,"ax",%progbits
Default_Handler:
Infinite_Loop:
	b	Infinite_Loop
 8007808:	e7fe      	b.n	8007808 <ADC1_IRQHandler>
	...

0800780c <HAL_MspInit>:
/* USER CODE END 0 */
/**
  * Initializes the Global MSP.
  */
void HAL_MspInit(void)
{
 800780c:	b580      	push	{r7, lr}
 800780e:	b082      	sub	sp, #8
 8007810:	af00      	add	r7, sp, #0
  /* USER CODE BEGIN MspInit 0 */

  /* USER CODE END MspInit 0 */

  __HAL_RCC_SYSCFG_CLK_ENABLE();
 8007812:	4a12      	ldr	r2, [pc, #72]	; (800785c <HAL_MspInit+0x50>)
 8007814:	4b11      	ldr	r3, [pc, #68]	; (800785c <HAL_MspInit+0x50>)
 8007816:	6e1b      	ldr	r3, [r3, #96]	; 0x60
 8007818:	f043 0301 	orr.w	r3, r3, #1
 800781c:	6613      	str	r3, [r2, #96]	; 0x60
 800781e:	4b0f      	ldr	r3, [pc, #60]	; (800785c <HAL_MspInit+0x50>)
 8007820:	6e1b      	ldr	r3, [r3, #96]	; 0x60
 8007822:	f003 0301 	and.w	r3, r3, #1
 8007826:	607b      	str	r3, [r7, #4]
 8007828:	687b      	ldr	r3, [r7, #4]
  __HAL_RCC_PWR_CLK_ENABLE();
 800782a:	4a0c      	ldr	r2, [pc, #48]	; (800785c <HAL_MspInit+0x50>)
 800782c:	4b0b      	ldr	r3, [pc, #44]	; (800785c <HAL_MspInit+0x50>)
 800782e:	6d9b      	ldr	r3, [r3, #88]	; 0x58
 8007830:	f043 5380 	orr.w	r3, r3, #268435456	; 0x10000000
 8007834:	6593      	str	r3, [r2, #88]	; 0x58
 8007836:	4b09      	ldr	r3, [pc, #36]	; (800785c <HAL_MspInit+0x50>)
 8007838:	6d9b      	ldr	r3, [r3, #88]	; 0x58
 800783a:	f003 5380 	and.w	r3, r3, #268435456	; 0x10000000
 800783e:	603b      	str	r3, [r7, #0]
 8007840:	683b      	ldr	r3, [r7, #0]

  /* System interrupt init*/
  /* PendSV_IRQn interrupt configuration */
  HAL_NVIC_SetPriority(PendSV_IRQn, 15, 0);
 8007842:	2200      	movs	r2, #0
 8007844:	210f      	movs	r1, #15
 8007846:	f06f 0001 	mvn.w	r0, #1
 800784a:	f7fa f9b2 	bl	8001bb2 <HAL_NVIC_SetPriority>
  HAL_InitTick(15);
 800784e:	200f      	movs	r0, #15
 8007850:	f7fa f88e 	bl	8001970 <HAL_InitTick>
  /* USER CODE BEGIN MspInit 1 */

  /* USER CODE END MspInit 1 */
}
 8007854:	bf00      	nop
 8007856:	3708      	adds	r7, #8
 8007858:	46bd      	mov	sp, r7
 800785a:	bd80      	pop	{r7, pc}
 800785c:	40021000 	.word	0x40021000

08007860 <HAL_I2C_MspInit>:
* This function configures the hardware resources used in this example
* @param hi2c: I2C handle pointer
* @retval None
*/
void HAL_I2C_MspInit(I2C_HandleTypeDef* hi2c)
{
 8007860:	b580      	push	{r7, lr}
 8007862:	b08a      	sub	sp, #40	; 0x28
 8007864:	af00      	add	r7, sp, #0
 8007866:	6078      	str	r0, [r7, #4]
  GPIO_InitTypeDef GPIO_InitStruct = {0};
 8007868:	f107 0314 	add.w	r3, r7, #20
 800786c:	2200      	movs	r2, #0
 800786e:	601a      	str	r2, [r3, #0]
 8007870:	605a      	str	r2, [r3, #4]
 8007872:	609a      	str	r2, [r3, #8]
 8007874:	60da      	str	r2, [r3, #12]
 8007876:	611a      	str	r2, [r3, #16]
  if(hi2c->Instance==I2C1)
 8007878:	687b      	ldr	r3, [r7, #4]
 800787a:	681b      	ldr	r3, [r3, #0]
 800787c:	4a18      	ldr	r2, [pc, #96]	; (80078e0 <HAL_I2C_MspInit+0x80>)
 800787e:	4293      	cmp	r3, r2
 8007880:	d129      	bne.n	80078d6 <HAL_I2C_MspInit+0x76>
  {
  /* USER CODE BEGIN I2C1_MspInit 0 */

  /* USER CODE END I2C1_MspInit 0 */
  
    __HAL_RCC_GPIOA_CLK_ENABLE();
 8007882:	4a18      	ldr	r2, [pc, #96]	; (80078e4 <HAL_I2C_MspInit+0x84>)
 8007884:	4b17      	ldr	r3, [pc, #92]	; (80078e4 <HAL_I2C_MspInit+0x84>)
 8007886:	6cdb      	ldr	r3, [r3, #76]	; 0x4c
 8007888:	f043 0301 	orr.w	r3, r3, #1
 800788c:	64d3      	str	r3, [r2, #76]	; 0x4c
 800788e:	4b15      	ldr	r3, [pc, #84]	; (80078e4 <HAL_I2C_MspInit+0x84>)
 8007890:	6cdb      	ldr	r3, [r3, #76]	; 0x4c
 8007892:	f003 0301 	and.w	r3, r3, #1
 8007896:	613b      	str	r3, [r7, #16]
 8007898:	693b      	ldr	r3, [r7, #16]
    /**I2C1 GPIO Configuration    
    PA9     ------> I2C1_SCL
    PA10     ------> I2C1_SDA 
    */
    GPIO_InitStruct.Pin = GPIO_PIN_9|GPIO_PIN_10;
 800789a:	f44f 63c0 	mov.w	r3, #1536	; 0x600
 800789e:	617b      	str	r3, [r7, #20]
    GPIO_InitStruct.Mode = GPIO_MODE_AF_OD;
 80078a0:	2312      	movs	r3, #18
 80078a2:	61bb      	str	r3, [r7, #24]
    GPIO_InitStruct.Pull = GPIO_PULLUP;
 80078a4:	2301      	movs	r3, #1
 80078a6:	61fb      	str	r3, [r7, #28]
    GPIO_InitStruct.Speed = GPIO_SPEED_FREQ_VERY_HIGH;
 80078a8:	2303      	movs	r3, #3
 80078aa:	623b      	str	r3, [r7, #32]
    GPIO_InitStruct.Alternate = GPIO_AF4_I2C1;
 80078ac:	2304      	movs	r3, #4
 80078ae:	627b      	str	r3, [r7, #36]	; 0x24
    HAL_GPIO_Init(GPIOA, &GPIO_InitStruct);
 80078b0:	f107 0314 	add.w	r3, r7, #20
 80078b4:	4619      	mov	r1, r3
 80078b6:	f04f 4090 	mov.w	r0, #1207959552	; 0x48000000
 80078ba:	f7fa f9b1 	bl	8001c20 <HAL_GPIO_Init>

    /* Peripheral clock enable */
    __HAL_RCC_I2C1_CLK_ENABLE();
 80078be:	4a09      	ldr	r2, [pc, #36]	; (80078e4 <HAL_I2C_MspInit+0x84>)
 80078c0:	4b08      	ldr	r3, [pc, #32]	; (80078e4 <HAL_I2C_MspInit+0x84>)
 80078c2:	6d9b      	ldr	r3, [r3, #88]	; 0x58
 80078c4:	f443 1300 	orr.w	r3, r3, #2097152	; 0x200000
 80078c8:	6593      	str	r3, [r2, #88]	; 0x58
 80078ca:	4b06      	ldr	r3, [pc, #24]	; (80078e4 <HAL_I2C_MspInit+0x84>)
 80078cc:	6d9b      	ldr	r3, [r3, #88]	; 0x58
 80078ce:	f403 1300 	and.w	r3, r3, #2097152	; 0x200000
 80078d2:	60fb      	str	r3, [r7, #12]
 80078d4:	68fb      	ldr	r3, [r7, #12]
  /* USER CODE BEGIN I2C1_MspInit 1 */

  /* USER CODE END I2C1_MspInit 1 */
  }

}
 80078d6:	bf00      	nop
 80078d8:	3728      	adds	r7, #40	; 0x28
 80078da:	46bd      	mov	sp, r7
 80078dc:	bd80      	pop	{r7, pc}
 80078de:	bf00      	nop
 80078e0:	40005400 	.word	0x40005400
 80078e4:	40021000 	.word	0x40021000

080078e8 <HAL_SPI_MspInit>:
* This function configures the hardware resources used in this example
* @param hspi: SPI handle pointer
* @retval None
*/
void HAL_SPI_MspInit(SPI_HandleTypeDef* hspi)
{
 80078e8:	b580      	push	{r7, lr}
 80078ea:	b08c      	sub	sp, #48	; 0x30
 80078ec:	af00      	add	r7, sp, #0
 80078ee:	6078      	str	r0, [r7, #4]
  GPIO_InitTypeDef GPIO_InitStruct = {0};
 80078f0:	f107 031c 	add.w	r3, r7, #28
 80078f4:	2200      	movs	r2, #0
 80078f6:	601a      	str	r2, [r3, #0]
 80078f8:	605a      	str	r2, [r3, #4]
 80078fa:	609a      	str	r2, [r3, #8]
 80078fc:	60da      	str	r2, [r3, #12]
 80078fe:	611a      	str	r2, [r3, #16]
  if(hspi->Instance==SPI2)
 8007900:	687b      	ldr	r3, [r7, #4]
 8007902:	681b      	ldr	r3, [r3, #0]
 8007904:	4a33      	ldr	r2, [pc, #204]	; (80079d4 <HAL_SPI_MspInit+0xec>)
 8007906:	4293      	cmp	r3, r2
 8007908:	d129      	bne.n	800795e <HAL_SPI_MspInit+0x76>
  {
  /* USER CODE BEGIN SPI2_MspInit 0 */

  /* USER CODE END SPI2_MspInit 0 */
    /* Peripheral clock enable */
    __HAL_RCC_SPI2_CLK_ENABLE();
 800790a:	4a33      	ldr	r2, [pc, #204]	; (80079d8 <HAL_SPI_MspInit+0xf0>)
 800790c:	4b32      	ldr	r3, [pc, #200]	; (80079d8 <HAL_SPI_MspInit+0xf0>)
 800790e:	6d9b      	ldr	r3, [r3, #88]	; 0x58
 8007910:	f443 4380 	orr.w	r3, r3, #16384	; 0x4000
 8007914:	6593      	str	r3, [r2, #88]	; 0x58
 8007916:	4b30      	ldr	r3, [pc, #192]	; (80079d8 <HAL_SPI_MspInit+0xf0>)
 8007918:	6d9b      	ldr	r3, [r3, #88]	; 0x58
 800791a:	f403 4380 	and.w	r3, r3, #16384	; 0x4000
 800791e:	61bb      	str	r3, [r7, #24]
 8007920:	69bb      	ldr	r3, [r7, #24]

    __HAL_RCC_GPIOB_CLK_ENABLE();
 8007922:	4a2d      	ldr	r2, [pc, #180]	; (80079d8 <HAL_SPI_MspInit+0xf0>)
 8007924:	4b2c      	ldr	r3, [pc, #176]	; (80079d8 <HAL_SPI_MspInit+0xf0>)
 8007926:	6cdb      	ldr	r3, [r3, #76]	; 0x4c
 8007928:	f043 0302 	orr.w	r3, r3, #2
 800792c:	64d3      	str	r3, [r2, #76]	; 0x4c
 800792e:	4b2a      	ldr	r3, [pc, #168]	; (80079d8 <HAL_SPI_MspInit+0xf0>)
 8007930:	6cdb      	ldr	r3, [r3, #76]	; 0x4c
 8007932:	f003 0302 	and.w	r3, r3, #2
 8007936:	617b      	str	r3, [r7, #20]
 8007938:	697b      	ldr	r3, [r7, #20]
    /**SPI2 GPIO Configuration
    PB13     ------> SPI2_SCK
    PB14     ------> SPI2_MISO
    PB15     ------> SPI2_MOSI
    */
    GPIO_InitStruct.Pin = GPIO_PIN_13|GPIO_PIN_14|GPIO_PIN_15;
 800793a:	f44f 4360 	mov.w	r3, #57344	; 0xe000
 800793e:	61fb      	str	r3, [r7, #28]
    GPIO_InitStruct.Mode = GPIO_MODE_AF_PP;
 8007940:	2302      	movs	r3, #2
 8007942:	623b      	str	r3, [r7, #32]
    GPIO_InitStruct.Pull = GPIO_NOPULL;
 8007944:	2300      	movs	r3, #0
 8007946:	627b      	str	r3, [r7, #36]	; 0x24
    GPIO_InitStruct.Speed = GPIO_SPEED_FREQ_VERY_HIGH;
 8007948:	2303      	movs	r3, #3
 800794a:	62bb      	str	r3, [r7, #40]	; 0x28
    GPIO_InitStruct.Alternate = GPIO_AF5_SPI2;
 800794c:	2305      	movs	r3, #5
 800794e:	62fb      	str	r3, [r7, #44]	; 0x2c
    HAL_GPIO_Init(GPIOB, &GPIO_InitStruct);
 8007950:	f107 031c 	add.w	r3, r7, #28
 8007954:	4619      	mov	r1, r3
 8007956:	4821      	ldr	r0, [pc, #132]	; (80079dc <HAL_SPI_MspInit+0xf4>)
 8007958:	f7fa f962 	bl	8001c20 <HAL_GPIO_Init>
  /* USER CODE BEGIN SPI3_MspInit 1 */

  /* USER CODE END SPI3_MspInit 1 */
  }

}
 800795c:	e035      	b.n	80079ca <HAL_SPI_MspInit+0xe2>
  else if(hspi->Instance==SPI3)
 800795e:	687b      	ldr	r3, [r7, #4]
 8007960:	681b      	ldr	r3, [r3, #0]
 8007962:	4a1f      	ldr	r2, [pc, #124]	; (80079e0 <HAL_SPI_MspInit+0xf8>)
 8007964:	4293      	cmp	r3, r2
 8007966:	d130      	bne.n	80079ca <HAL_SPI_MspInit+0xe2>
    __HAL_RCC_SPI3_CLK_ENABLE();
 8007968:	4a1b      	ldr	r2, [pc, #108]	; (80079d8 <HAL_SPI_MspInit+0xf0>)
 800796a:	4b1b      	ldr	r3, [pc, #108]	; (80079d8 <HAL_SPI_MspInit+0xf0>)
 800796c:	6d9b      	ldr	r3, [r3, #88]	; 0x58
 800796e:	f443 4300 	orr.w	r3, r3, #32768	; 0x8000
 8007972:	6593      	str	r3, [r2, #88]	; 0x58
 8007974:	4b18      	ldr	r3, [pc, #96]	; (80079d8 <HAL_SPI_MspInit+0xf0>)
 8007976:	6d9b      	ldr	r3, [r3, #88]	; 0x58
 8007978:	f403 4300 	and.w	r3, r3, #32768	; 0x8000
 800797c:	613b      	str	r3, [r7, #16]
 800797e:	693b      	ldr	r3, [r7, #16]
    __HAL_RCC_GPIOC_CLK_ENABLE();
 8007980:	4a15      	ldr	r2, [pc, #84]	; (80079d8 <HAL_SPI_MspInit+0xf0>)
 8007982:	4b15      	ldr	r3, [pc, #84]	; (80079d8 <HAL_SPI_MspInit+0xf0>)
 8007984:	6cdb      	ldr	r3, [r3, #76]	; 0x4c
 8007986:	f043 0304 	orr.w	r3, r3, #4
 800798a:	64d3      	str	r3, [r2, #76]	; 0x4c
 800798c:	4b12      	ldr	r3, [pc, #72]	; (80079d8 <HAL_SPI_MspInit+0xf0>)
 800798e:	6cdb      	ldr	r3, [r3, #76]	; 0x4c
 8007990:	f003 0304 	and.w	r3, r3, #4
 8007994:	60fb      	str	r3, [r7, #12]
 8007996:	68fb      	ldr	r3, [r7, #12]
    GPIO_InitStruct.Pin = GPIO_PIN_10|GPIO_PIN_11|GPIO_PIN_12;
 8007998:	f44f 53e0 	mov.w	r3, #7168	; 0x1c00
 800799c:	61fb      	str	r3, [r7, #28]
    GPIO_InitStruct.Mode = GPIO_MODE_AF_PP;
 800799e:	2302      	movs	r3, #2
 80079a0:	623b      	str	r3, [r7, #32]
    GPIO_InitStruct.Pull = GPIO_NOPULL;
 80079a2:	2300      	movs	r3, #0
 80079a4:	627b      	str	r3, [r7, #36]	; 0x24
    GPIO_InitStruct.Speed = GPIO_SPEED_FREQ_VERY_HIGH;
 80079a6:	2303      	movs	r3, #3
 80079a8:	62bb      	str	r3, [r7, #40]	; 0x28
    GPIO_InitStruct.Alternate = GPIO_AF6_SPI3;
 80079aa:	2306      	movs	r3, #6
 80079ac:	62fb      	str	r3, [r7, #44]	; 0x2c
    HAL_GPIO_Init(GPIOC, &GPIO_InitStruct);
 80079ae:	f107 031c 	add.w	r3, r7, #28
 80079b2:	4619      	mov	r1, r3
 80079b4:	480b      	ldr	r0, [pc, #44]	; (80079e4 <HAL_SPI_MspInit+0xfc>)
 80079b6:	f7fa f933 	bl	8001c20 <HAL_GPIO_Init>
    HAL_NVIC_SetPriority(SPI3_IRQn, 5, 0);
 80079ba:	2200      	movs	r2, #0
 80079bc:	2105      	movs	r1, #5
 80079be:	2033      	movs	r0, #51	; 0x33
 80079c0:	f7fa f8f7 	bl	8001bb2 <HAL_NVIC_SetPriority>
    HAL_NVIC_EnableIRQ(SPI3_IRQn);
 80079c4:	2033      	movs	r0, #51	; 0x33
 80079c6:	f7fa f910 	bl	8001bea <HAL_NVIC_EnableIRQ>
}
 80079ca:	bf00      	nop
 80079cc:	3730      	adds	r7, #48	; 0x30
 80079ce:	46bd      	mov	sp, r7
 80079d0:	bd80      	pop	{r7, pc}
 80079d2:	bf00      	nop
 80079d4:	40003800 	.word	0x40003800
 80079d8:	40021000 	.word	0x40021000
 80079dc:	48000400 	.word	0x48000400
 80079e0:	40003c00 	.word	0x40003c00
 80079e4:	48000800 	.word	0x48000800

080079e8 <HAL_UART_MspInit>:
* This function configures the hardware resources used in this example
* @param huart: UART handle pointer
* @retval None
*/
void HAL_UART_MspInit(UART_HandleTypeDef* huart)
{
 80079e8:	b580      	push	{r7, lr}
 80079ea:	b08a      	sub	sp, #40	; 0x28
 80079ec:	af00      	add	r7, sp, #0
 80079ee:	6078      	str	r0, [r7, #4]
  GPIO_InitTypeDef GPIO_InitStruct = {0};
 80079f0:	f107 0314 	add.w	r3, r7, #20
 80079f4:	2200      	movs	r2, #0
 80079f6:	601a      	str	r2, [r3, #0]
 80079f8:	605a      	str	r2, [r3, #4]
 80079fa:	609a      	str	r2, [r3, #8]
 80079fc:	60da      	str	r2, [r3, #12]
 80079fe:	611a      	str	r2, [r3, #16]
  if(huart->Instance==USART1)
 8007a00:	687b      	ldr	r3, [r7, #4]
 8007a02:	681b      	ldr	r3, [r3, #0]
 8007a04:	4a1b      	ldr	r2, [pc, #108]	; (8007a74 <HAL_UART_MspInit+0x8c>)
 8007a06:	4293      	cmp	r3, r2
 8007a08:	d12f      	bne.n	8007a6a <HAL_UART_MspInit+0x82>
  {
  /* USER CODE BEGIN USART1_MspInit 0 */

  /* USER CODE END USART1_MspInit 0 */
    /* Peripheral clock enable */
    __HAL_RCC_USART1_CLK_ENABLE();
 8007a0a:	4a1b      	ldr	r2, [pc, #108]	; (8007a78 <HAL_UART_MspInit+0x90>)
 8007a0c:	4b1a      	ldr	r3, [pc, #104]	; (8007a78 <HAL_UART_MspInit+0x90>)
 8007a0e:	6e1b      	ldr	r3, [r3, #96]	; 0x60
 8007a10:	f443 4380 	orr.w	r3, r3, #16384	; 0x4000
 8007a14:	6613      	str	r3, [r2, #96]	; 0x60
 8007a16:	4b18      	ldr	r3, [pc, #96]	; (8007a78 <HAL_UART_MspInit+0x90>)
 8007a18:	6e1b      	ldr	r3, [r3, #96]	; 0x60
 8007a1a:	f403 4380 	and.w	r3, r3, #16384	; 0x4000
 8007a1e:	613b      	str	r3, [r7, #16]
 8007a20:	693b      	ldr	r3, [r7, #16]
  
    __HAL_RCC_GPIOB_CLK_ENABLE();
 8007a22:	4a15      	ldr	r2, [pc, #84]	; (8007a78 <HAL_UART_MspInit+0x90>)
 8007a24:	4b14      	ldr	r3, [pc, #80]	; (8007a78 <HAL_UART_MspInit+0x90>)
 8007a26:	6cdb      	ldr	r3, [r3, #76]	; 0x4c
 8007a28:	f043 0302 	orr.w	r3, r3, #2
 8007a2c:	64d3      	str	r3, [r2, #76]	; 0x4c
 8007a2e:	4b12      	ldr	r3, [pc, #72]	; (8007a78 <HAL_UART_MspInit+0x90>)
 8007a30:	6cdb      	ldr	r3, [r3, #76]	; 0x4c
 8007a32:	f003 0302 	and.w	r3, r3, #2
 8007a36:	60fb      	str	r3, [r7, #12]
 8007a38:	68fb      	ldr	r3, [r7, #12]
    /**USART1 GPIO Configuration    
    PB6     ------> USART1_TX
    PB7     ------> USART1_RX 
    */
    GPIO_InitStruct.Pin = GPIO_PIN_6|GPIO_PIN_7;
 8007a3a:	23c0      	movs	r3, #192	; 0xc0
 8007a3c:	617b      	str	r3, [r7, #20]
    GPIO_InitStruct.Mode = GPIO_MODE_AF_PP;
 8007a3e:	2302      	movs	r3, #2
 8007a40:	61bb      	str	r3, [r7, #24]
    GPIO_InitStruct.Pull = GPIO_NOPULL;
 8007a42:	2300      	movs	r3, #0
 8007a44:	61fb      	str	r3, [r7, #28]
    GPIO_InitStruct.Speed = GPIO_SPEED_FREQ_VERY_HIGH;
 8007a46:	2303      	movs	r3, #3
 8007a48:	623b      	str	r3, [r7, #32]
    GPIO_InitStruct.Alternate = GPIO_AF7_USART1;
 8007a4a:	2307      	movs	r3, #7
 8007a4c:	627b      	str	r3, [r7, #36]	; 0x24
    HAL_GPIO_Init(GPIOB, &GPIO_InitStruct);
 8007a4e:	f107 0314 	add.w	r3, r7, #20
 8007a52:	4619      	mov	r1, r3
 8007a54:	4809      	ldr	r0, [pc, #36]	; (8007a7c <HAL_UART_MspInit+0x94>)
 8007a56:	f7fa f8e3 	bl	8001c20 <HAL_GPIO_Init>

    /* USART1 interrupt Init */
    HAL_NVIC_SetPriority(USART1_IRQn, 5, 0);
 8007a5a:	2200      	movs	r2, #0
 8007a5c:	2105      	movs	r1, #5
 8007a5e:	2025      	movs	r0, #37	; 0x25
 8007a60:	f7fa f8a7 	bl	8001bb2 <HAL_NVIC_SetPriority>
    HAL_NVIC_EnableIRQ(USART1_IRQn);
 8007a64:	2025      	movs	r0, #37	; 0x25
 8007a66:	f7fa f8c0 	bl	8001bea <HAL_NVIC_EnableIRQ>
  /* USER CODE BEGIN USART1_MspInit 1 */

  /* USER CODE END USART1_MspInit 1 */
  }

}
 8007a6a:	bf00      	nop
 8007a6c:	3728      	adds	r7, #40	; 0x28
 8007a6e:	46bd      	mov	sp, r7
 8007a70:	bd80      	pop	{r7, pc}
 8007a72:	bf00      	nop
 8007a74:	40013800 	.word	0x40013800
 8007a78:	40021000 	.word	0x40021000
 8007a7c:	48000400 	.word	0x48000400

08007a80 <NMI_Handler>:

/**
* @brief This function handles Non maskable interrupt.
*/
void NMI_Handler(void)
{
 8007a80:	b480      	push	{r7}
 8007a82:	af00      	add	r7, sp, #0

  /* USER CODE END NonMaskableInt_IRQn 0 */
  /* USER CODE BEGIN NonMaskableInt_IRQn 1 */

  /* USER CODE END NonMaskableInt_IRQn 1 */
}
 8007a84:	bf00      	nop
 8007a86:	46bd      	mov	sp, r7
 8007a88:	f85d 7b04 	ldr.w	r7, [sp], #4
 8007a8c:	4770      	bx	lr

08007a8e <HardFault_Handler>:

/**
* @brief This function handles Hard fault interrupt.
*/
void HardFault_Handler(void)
{
 8007a8e:	b480      	push	{r7}
 8007a90:	af00      	add	r7, sp, #0
  /* USER CODE BEGIN HardFault_IRQn 0 */

  /* USER CODE END HardFault_IRQn 0 */
  while (1)
 8007a92:	e7fe      	b.n	8007a92 <HardFault_Handler+0x4>

08007a94 <MemManage_Handler>:

/**
* @brief This function handles Memory management fault.
*/
void MemManage_Handler(void)
{
 8007a94:	b480      	push	{r7}
 8007a96:	af00      	add	r7, sp, #0
  /* USER CODE BEGIN MemoryManagement_IRQn 0 */

  /* USER CODE END MemoryManagement_IRQn 0 */
  while (1)
 8007a98:	e7fe      	b.n	8007a98 <MemManage_Handler+0x4>

08007a9a <BusFault_Handler>:

/**
* @brief This function handles Prefetch fault, memory access fault.
*/
void BusFault_Handler(void)
{
 8007a9a:	b480      	push	{r7}
 8007a9c:	af00      	add	r7, sp, #0
  /* USER CODE BEGIN BusFault_IRQn 0 */

  /* USER CODE END BusFault_IRQn 0 */
  while (1)
 8007a9e:	e7fe      	b.n	8007a9e <BusFault_Handler+0x4>

08007aa0 <UsageFault_Handler>:

/**
* @brief This function handles Undefined instruction or illegal state.
*/
void UsageFault_Handler(void)
{
 8007aa0:	b480      	push	{r7}
 8007aa2:	af00      	add	r7, sp, #0
  /* USER CODE BEGIN UsageFault_IRQn 0 */

  /* USER CODE END UsageFault_IRQn 0 */
  while (1)
 8007aa4:	e7fe      	b.n	8007aa4 <UsageFault_Handler+0x4>

08007aa6 <DebugMon_Handler>:

/**
* @brief This function handles Debug monitor.
*/
void DebugMon_Handler(void)
{
 8007aa6:	b480      	push	{r7}
 8007aa8:	af00      	add	r7, sp, #0

  /* USER CODE END DebugMonitor_IRQn 0 */
  /* USER CODE BEGIN DebugMonitor_IRQn 1 */

  /* USER CODE END DebugMonitor_IRQn 1 */
}
 8007aaa:	bf00      	nop
 8007aac:	46bd      	mov	sp, r7
 8007aae:	f85d 7b04 	ldr.w	r7, [sp], #4
 8007ab2:	4770      	bx	lr

08007ab4 <SysTick_Handler>:

/**
* @brief This function handles System tick timer.
*/
void SysTick_Handler(void)
{
 8007ab4:	b580      	push	{r7, lr}
 8007ab6:	af00      	add	r7, sp, #0
  /* USER CODE BEGIN SysTick_IRQn 0 */

  /* USER CODE END SysTick_IRQn 0 */
  osSystickHandler();
 8007ab8:	f7fd fd67 	bl	800558a <osSystickHandler>
  HAL_IncTick();
 8007abc:	f7f9 ff74 	bl	80019a8 <HAL_IncTick>
  /* USER CODE BEGIN SysTick_IRQn 1 */

  /* USER CODE END SysTick_IRQn 1 */
}
 8007ac0:	bf00      	nop
 8007ac2:	bd80      	pop	{r7, pc}

08007ac4 <TIM1_UP_TIM16_IRQHandler>:

/**
* @brief This function handles TIM1 update interrupt and TIM16 global interrupt.
*/
void TIM1_UP_TIM16_IRQHandler(void)
{
 8007ac4:	b480      	push	{r7}
 8007ac6:	af00      	add	r7, sp, #0
  /* USER CODE END TIM1_UP_TIM16_IRQn 0 */

  /* USER CODE BEGIN TIM1_UP_TIM16_IRQn 1 */

  /* USER CODE END TIM1_UP_TIM16_IRQn 1 */
}
 8007ac8:	bf00      	nop
 8007aca:	46bd      	mov	sp, r7
 8007acc:	f85d 7b04 	ldr.w	r7, [sp], #4
 8007ad0:	4770      	bx	lr

08007ad2 <DMA2_Channel1_IRQHandler>:

/**
* @brief This function handles DMA2 channel1 global interrupt.
*/
void DMA2_Channel1_IRQHandler(void)
{
 8007ad2:	b480      	push	{r7}
 8007ad4:	af00      	add	r7, sp, #0
  /* USER CODE END DMA2_Channel1_IRQn 0 */

  /* USER CODE BEGIN DMA2_Channel1_IRQn 1 */

  /* USER CODE END DMA2_Channel1_IRQn 1 */
}
 8007ad6:	bf00      	nop
 8007ad8:	46bd      	mov	sp, r7
 8007ada:	f85d 7b04 	ldr.w	r7, [sp], #4
 8007ade:	4770      	bx	lr

08007ae0 <DMA2_Channel2_IRQHandler>:

/**
* @brief This function handles DMA2 channel2 global interrupt.
*/
void DMA2_Channel2_IRQHandler(void)
{
 8007ae0:	b480      	push	{r7}
 8007ae2:	af00      	add	r7, sp, #0
  /* USER CODE END DMA2_Channel2_IRQn 0 */

  /* USER CODE BEGIN DMA2_Channel2_IRQn 1 */

  /* USER CODE END DMA2_Channel2_IRQn 1 */
}
 8007ae4:	bf00      	nop
 8007ae6:	46bd      	mov	sp, r7
 8007ae8:	f85d 7b04 	ldr.w	r7, [sp], #4
 8007aec:	4770      	bx	lr

08007aee <USB_IRQHandler>:

/**
* @brief This function handles USB event interrupt through EXTI line 17.
*/
void USB_IRQHandler(void)
{
 8007aee:	b480      	push	{r7}
 8007af0:	af00      	add	r7, sp, #0
  /* USER CODE END USB_IRQn 0 */

  /* USER CODE BEGIN USB_IRQn 1 */

  /* USER CODE END USB_IRQn 1 */
}
 8007af2:	bf00      	nop
 8007af4:	46bd      	mov	sp, r7
 8007af6:	f85d 7b04 	ldr.w	r7, [sp], #4
 8007afa:	4770      	bx	lr

08007afc <ITM_SendChar>:
           \li Is blocking when a debugger is connected, but the previous character sent has not been transmitted.
  \param [in]     ch  Character to transmit.
  \returns            Character to transmit.
 */
__STATIC_INLINE uint32_t ITM_SendChar (uint32_t ch)
{
 8007afc:	b480      	push	{r7}
 8007afe:	b083      	sub	sp, #12
 8007b00:	af00      	add	r7, sp, #0
 8007b02:	6078      	str	r0, [r7, #4]
  if (((ITM->TCR & ITM_TCR_ITMENA_Msk) != 0UL) &&      /* ITM enabled */
 8007b04:	f04f 4360 	mov.w	r3, #3758096384	; 0xe0000000
 8007b08:	f8d3 3e80 	ldr.w	r3, [r3, #3712]	; 0xe80
 8007b0c:	f003 0301 	and.w	r3, r3, #1
 8007b10:	2b00      	cmp	r3, #0
 8007b12:	d013      	beq.n	8007b3c <ITM_SendChar+0x40>
      ((ITM->TER & 1UL               ) != 0UL)   )     /* ITM Port #0 enabled */
 8007b14:	f04f 4360 	mov.w	r3, #3758096384	; 0xe0000000
 8007b18:	f8d3 3e00 	ldr.w	r3, [r3, #3584]	; 0xe00
 8007b1c:	f003 0301 	and.w	r3, r3, #1
  if (((ITM->TCR & ITM_TCR_ITMENA_Msk) != 0UL) &&      /* ITM enabled */
 8007b20:	2b00      	cmp	r3, #0
 8007b22:	d00b      	beq.n	8007b3c <ITM_SendChar+0x40>
  {
    while (ITM->PORT[0U].u32 == 0UL)
 8007b24:	e000      	b.n	8007b28 <ITM_SendChar+0x2c>
  __ASM volatile ("nop");
 8007b26:	bf00      	nop
 8007b28:	f04f 4360 	mov.w	r3, #3758096384	; 0xe0000000
 8007b2c:	681b      	ldr	r3, [r3, #0]
 8007b2e:	2b00      	cmp	r3, #0
 8007b30:	d0f9      	beq.n	8007b26 <ITM_SendChar+0x2a>
    {
      __NOP();
    }
    ITM->PORT[0U].u8 = (uint8_t)ch;
 8007b32:	f04f 4360 	mov.w	r3, #3758096384	; 0xe0000000
 8007b36:	687a      	ldr	r2, [r7, #4]
 8007b38:	b2d2      	uxtb	r2, r2
 8007b3a:	701a      	strb	r2, [r3, #0]
  }
  return (ch);
 8007b3c:	687b      	ldr	r3, [r7, #4]
}
 8007b3e:	4618      	mov	r0, r3
 8007b40:	370c      	adds	r7, #12
 8007b42:	46bd      	mov	sp, r7
 8007b44:	f85d 7b04 	ldr.w	r7, [sp], #4
 8007b48:	4770      	bx	lr

08007b4a <_write>:
  _kill(status, -1);
  while (1) {}    /* Make sure we hang here */
}

int _write(int32_t file, uint8_t *ptr, int32_t len)
{
 8007b4a:	b580      	push	{r7, lr}
 8007b4c:	b086      	sub	sp, #24
 8007b4e:	af00      	add	r7, sp, #0
 8007b50:	60f8      	str	r0, [r7, #12]
 8007b52:	60b9      	str	r1, [r7, #8]
 8007b54:	607a      	str	r2, [r7, #4]
	/* Implement your write code here, this is used by puts and printf for example */
	int i=0;
 8007b56:	2300      	movs	r3, #0
 8007b58:	617b      	str	r3, [r7, #20]
	for(i=0 ; i<len ; i++)
 8007b5a:	2300      	movs	r3, #0
 8007b5c:	617b      	str	r3, [r7, #20]
 8007b5e:	e009      	b.n	8007b74 <_write+0x2a>
	ITM_SendChar((*ptr++));
 8007b60:	68bb      	ldr	r3, [r7, #8]
 8007b62:	1c5a      	adds	r2, r3, #1
 8007b64:	60ba      	str	r2, [r7, #8]
 8007b66:	781b      	ldrb	r3, [r3, #0]
 8007b68:	4618      	mov	r0, r3
 8007b6a:	f7ff ffc7 	bl	8007afc <ITM_SendChar>
	for(i=0 ; i<len ; i++)
 8007b6e:	697b      	ldr	r3, [r7, #20]
 8007b70:	3301      	adds	r3, #1
 8007b72:	617b      	str	r3, [r7, #20]
 8007b74:	697a      	ldr	r2, [r7, #20]
 8007b76:	687b      	ldr	r3, [r7, #4]
 8007b78:	429a      	cmp	r2, r3
 8007b7a:	dbf1      	blt.n	8007b60 <_write+0x16>

	return len;
 8007b7c:	687b      	ldr	r3, [r7, #4]

}
 8007b7e:	4618      	mov	r0, r3
 8007b80:	3718      	adds	r7, #24
 8007b82:	46bd      	mov	sp, r7
 8007b84:	bd80      	pop	{r7, pc}
	...

08007b88 <SystemInit>:
  * @param  None
  * @retval None
  */

void SystemInit(void)
{
 8007b88:	b480      	push	{r7}
 8007b8a:	af00      	add	r7, sp, #0
  /* FPU settings ------------------------------------------------------------*/
  #if (__FPU_PRESENT == 1) && (__FPU_USED == 1)
    SCB->CPACR |= ((3UL << 10*2)|(3UL << 11*2));  /* set CP10 and CP11 Full Access */
 8007b8c:	4a17      	ldr	r2, [pc, #92]	; (8007bec <SystemInit+0x64>)
 8007b8e:	4b17      	ldr	r3, [pc, #92]	; (8007bec <SystemInit+0x64>)
 8007b90:	f8d3 3088 	ldr.w	r3, [r3, #136]	; 0x88
 8007b94:	f443 0370 	orr.w	r3, r3, #15728640	; 0xf00000
 8007b98:	f8c2 3088 	str.w	r3, [r2, #136]	; 0x88
  #endif

  /* Reset the RCC clock configuration to the default reset state ------------*/
  /* Set MSION bit */
  RCC->CR |= RCC_CR_MSION;
 8007b9c:	4a14      	ldr	r2, [pc, #80]	; (8007bf0 <SystemInit+0x68>)
 8007b9e:	4b14      	ldr	r3, [pc, #80]	; (8007bf0 <SystemInit+0x68>)
 8007ba0:	681b      	ldr	r3, [r3, #0]
 8007ba2:	f043 0301 	orr.w	r3, r3, #1
 8007ba6:	6013      	str	r3, [r2, #0]

  /* Reset CFGR register */
  RCC->CFGR = 0x00000000U;
 8007ba8:	4b11      	ldr	r3, [pc, #68]	; (8007bf0 <SystemInit+0x68>)
 8007baa:	2200      	movs	r2, #0
 8007bac:	609a      	str	r2, [r3, #8]

  /* Reset HSEON, CSSON , HSION, and PLLON bits */
  RCC->CR &= 0xEAF6FFFFU;
 8007bae:	4a10      	ldr	r2, [pc, #64]	; (8007bf0 <SystemInit+0x68>)
 8007bb0:	4b0f      	ldr	r3, [pc, #60]	; (8007bf0 <SystemInit+0x68>)
 8007bb2:	681b      	ldr	r3, [r3, #0]
 8007bb4:	f023 53a8 	bic.w	r3, r3, #352321536	; 0x15000000
 8007bb8:	f423 2310 	bic.w	r3, r3, #589824	; 0x90000
 8007bbc:	6013      	str	r3, [r2, #0]

  /* Reset PLLCFGR register */
  RCC->PLLCFGR = 0x00001000U;
 8007bbe:	4b0c      	ldr	r3, [pc, #48]	; (8007bf0 <SystemInit+0x68>)
 8007bc0:	f44f 5280 	mov.w	r2, #4096	; 0x1000
 8007bc4:	60da      	str	r2, [r3, #12]

  /* Reset HSEBYP bit */
  RCC->CR &= 0xFFFBFFFFU;
 8007bc6:	4a0a      	ldr	r2, [pc, #40]	; (8007bf0 <SystemInit+0x68>)
 8007bc8:	4b09      	ldr	r3, [pc, #36]	; (8007bf0 <SystemInit+0x68>)
 8007bca:	681b      	ldr	r3, [r3, #0]
 8007bcc:	f423 2380 	bic.w	r3, r3, #262144	; 0x40000
 8007bd0:	6013      	str	r3, [r2, #0]

  /* Disable all interrupts */
  RCC->CIER = 0x00000000U;
 8007bd2:	4b07      	ldr	r3, [pc, #28]	; (8007bf0 <SystemInit+0x68>)
 8007bd4:	2200      	movs	r2, #0
 8007bd6:	619a      	str	r2, [r3, #24]

  /* Configure the Vector Table location add offset address ------------------*/
#ifdef VECT_TAB_SRAM
  SCB->VTOR = SRAM_BASE | VECT_TAB_OFFSET; /* Vector Table Relocation in Internal SRAM */
#else
  SCB->VTOR = FLASH_BASE | VECT_TAB_OFFSET; /* Vector Table Relocation in Internal FLASH */
 8007bd8:	4b04      	ldr	r3, [pc, #16]	; (8007bec <SystemInit+0x64>)
 8007bda:	f04f 6200 	mov.w	r2, #134217728	; 0x8000000
 8007bde:	609a      	str	r2, [r3, #8]
#endif
}
 8007be0:	bf00      	nop
 8007be2:	46bd      	mov	sp, r7
 8007be4:	f85d 7b04 	ldr.w	r7, [sp], #4
 8007be8:	4770      	bx	lr
 8007bea:	bf00      	nop
 8007bec:	e000ed00 	.word	0xe000ed00
 8007bf0:	40021000 	.word	0x40021000

08007bf4 <ts_itoa>:
**  Abstract: Convert integer to ascii
**  Returns:  void
**---------------------------------------------------------------------------
*/
void ts_itoa(char **buf, unsigned int d, int base)
{
 8007bf4:	b480      	push	{r7}
 8007bf6:	b087      	sub	sp, #28
 8007bf8:	af00      	add	r7, sp, #0
 8007bfa:	60f8      	str	r0, [r7, #12]
 8007bfc:	60b9      	str	r1, [r7, #8]
 8007bfe:	607a      	str	r2, [r7, #4]
	int div = 1;
 8007c00:	2301      	movs	r3, #1
 8007c02:	617b      	str	r3, [r7, #20]
	while (d/div >= base)
 8007c04:	e004      	b.n	8007c10 <ts_itoa+0x1c>
		div *= base;
 8007c06:	697b      	ldr	r3, [r7, #20]
 8007c08:	687a      	ldr	r2, [r7, #4]
 8007c0a:	fb02 f303 	mul.w	r3, r2, r3
 8007c0e:	617b      	str	r3, [r7, #20]
	while (d/div >= base)
 8007c10:	697b      	ldr	r3, [r7, #20]
 8007c12:	68ba      	ldr	r2, [r7, #8]
 8007c14:	fbb2 f2f3 	udiv	r2, r2, r3
 8007c18:	687b      	ldr	r3, [r7, #4]
 8007c1a:	429a      	cmp	r2, r3
 8007c1c:	d2f3      	bcs.n	8007c06 <ts_itoa+0x12>

	while (div != 0)
 8007c1e:	e029      	b.n	8007c74 <ts_itoa+0x80>
	{
		int num = d/div;
 8007c20:	697b      	ldr	r3, [r7, #20]
 8007c22:	68ba      	ldr	r2, [r7, #8]
 8007c24:	fbb2 f3f3 	udiv	r3, r2, r3
 8007c28:	613b      	str	r3, [r7, #16]
		d = d%div;
 8007c2a:	697a      	ldr	r2, [r7, #20]
 8007c2c:	68bb      	ldr	r3, [r7, #8]
 8007c2e:	fbb3 f1f2 	udiv	r1, r3, r2
 8007c32:	fb02 f201 	mul.w	r2, r2, r1
 8007c36:	1a9b      	subs	r3, r3, r2
 8007c38:	60bb      	str	r3, [r7, #8]
		div /= base;
 8007c3a:	697a      	ldr	r2, [r7, #20]
 8007c3c:	687b      	ldr	r3, [r7, #4]
 8007c3e:	fb92 f3f3 	sdiv	r3, r2, r3
 8007c42:	617b      	str	r3, [r7, #20]
		if (num > 9)
 8007c44:	693b      	ldr	r3, [r7, #16]
 8007c46:	2b09      	cmp	r3, #9
 8007c48:	dd0a      	ble.n	8007c60 <ts_itoa+0x6c>
			*((*buf)++) = (num-10) + 'A';
 8007c4a:	68fb      	ldr	r3, [r7, #12]
 8007c4c:	681b      	ldr	r3, [r3, #0]
 8007c4e:	1c59      	adds	r1, r3, #1
 8007c50:	68fa      	ldr	r2, [r7, #12]
 8007c52:	6011      	str	r1, [r2, #0]
 8007c54:	693a      	ldr	r2, [r7, #16]
 8007c56:	b2d2      	uxtb	r2, r2
 8007c58:	3237      	adds	r2, #55	; 0x37
 8007c5a:	b2d2      	uxtb	r2, r2
 8007c5c:	701a      	strb	r2, [r3, #0]
 8007c5e:	e009      	b.n	8007c74 <ts_itoa+0x80>
		else
			*((*buf)++) = num + '0';
 8007c60:	68fb      	ldr	r3, [r7, #12]
 8007c62:	681b      	ldr	r3, [r3, #0]
 8007c64:	1c59      	adds	r1, r3, #1
 8007c66:	68fa      	ldr	r2, [r7, #12]
 8007c68:	6011      	str	r1, [r2, #0]
 8007c6a:	693a      	ldr	r2, [r7, #16]
 8007c6c:	b2d2      	uxtb	r2, r2
 8007c6e:	3230      	adds	r2, #48	; 0x30
 8007c70:	b2d2      	uxtb	r2, r2
 8007c72:	701a      	strb	r2, [r3, #0]
	while (div != 0)
 8007c74:	697b      	ldr	r3, [r7, #20]
 8007c76:	2b00      	cmp	r3, #0
 8007c78:	d1d2      	bne.n	8007c20 <ts_itoa+0x2c>
	}
}
 8007c7a:	bf00      	nop
 8007c7c:	371c      	adds	r7, #28
 8007c7e:	46bd      	mov	sp, r7
 8007c80:	f85d 7b04 	ldr.w	r7, [sp], #4
 8007c84:	4770      	bx	lr

08007c86 <ts_formatstring>:
**  Abstract: Writes arguments va to buffer buf according to format fmt
**  Returns:  Length of string
**---------------------------------------------------------------------------
*/
int ts_formatstring(char *buf, const char *fmt, va_list va)
{
 8007c86:	b580      	push	{r7, lr}
 8007c88:	b088      	sub	sp, #32
 8007c8a:	af00      	add	r7, sp, #0
 8007c8c:	60f8      	str	r0, [r7, #12]
 8007c8e:	60b9      	str	r1, [r7, #8]
 8007c90:	607a      	str	r2, [r7, #4]
	char *start_buf = buf;
 8007c92:	68fb      	ldr	r3, [r7, #12]
 8007c94:	617b      	str	r3, [r7, #20]
	while(*fmt)
 8007c96:	e07d      	b.n	8007d94 <ts_formatstring+0x10e>
	{
		/* Character needs formating? */
		if (*fmt == '%')
 8007c98:	68bb      	ldr	r3, [r7, #8]
 8007c9a:	781b      	ldrb	r3, [r3, #0]
 8007c9c:	2b25      	cmp	r3, #37	; 0x25
 8007c9e:	d171      	bne.n	8007d84 <ts_formatstring+0xfe>
		{
			switch (*(++fmt))
 8007ca0:	68bb      	ldr	r3, [r7, #8]
 8007ca2:	3301      	adds	r3, #1
 8007ca4:	60bb      	str	r3, [r7, #8]
 8007ca6:	68bb      	ldr	r3, [r7, #8]
 8007ca8:	781b      	ldrb	r3, [r3, #0]
 8007caa:	2b64      	cmp	r3, #100	; 0x64
 8007cac:	d01e      	beq.n	8007cec <ts_formatstring+0x66>
 8007cae:	2b64      	cmp	r3, #100	; 0x64
 8007cb0:	dc06      	bgt.n	8007cc0 <ts_formatstring+0x3a>
 8007cb2:	2b58      	cmp	r3, #88	; 0x58
 8007cb4:	d050      	beq.n	8007d58 <ts_formatstring+0xd2>
 8007cb6:	2b63      	cmp	r3, #99	; 0x63
 8007cb8:	d00e      	beq.n	8007cd8 <ts_formatstring+0x52>
 8007cba:	2b25      	cmp	r3, #37	; 0x25
 8007cbc:	d058      	beq.n	8007d70 <ts_formatstring+0xea>
 8007cbe:	e05d      	b.n	8007d7c <ts_formatstring+0xf6>
 8007cc0:	2b73      	cmp	r3, #115	; 0x73
 8007cc2:	d02b      	beq.n	8007d1c <ts_formatstring+0x96>
 8007cc4:	2b73      	cmp	r3, #115	; 0x73
 8007cc6:	dc02      	bgt.n	8007cce <ts_formatstring+0x48>
 8007cc8:	2b69      	cmp	r3, #105	; 0x69
 8007cca:	d00f      	beq.n	8007cec <ts_formatstring+0x66>
 8007ccc:	e056      	b.n	8007d7c <ts_formatstring+0xf6>
 8007cce:	2b75      	cmp	r3, #117	; 0x75
 8007cd0:	d037      	beq.n	8007d42 <ts_formatstring+0xbc>
 8007cd2:	2b78      	cmp	r3, #120	; 0x78
 8007cd4:	d040      	beq.n	8007d58 <ts_formatstring+0xd2>
 8007cd6:	e051      	b.n	8007d7c <ts_formatstring+0xf6>
			{
			  case 'c':
				*buf++ = va_arg(va, int);
 8007cd8:	68fb      	ldr	r3, [r7, #12]
 8007cda:	1c5a      	adds	r2, r3, #1
 8007cdc:	60fa      	str	r2, [r7, #12]
 8007cde:	687a      	ldr	r2, [r7, #4]
 8007ce0:	1d11      	adds	r1, r2, #4
 8007ce2:	6079      	str	r1, [r7, #4]
 8007ce4:	6812      	ldr	r2, [r2, #0]
 8007ce6:	b2d2      	uxtb	r2, r2
 8007ce8:	701a      	strb	r2, [r3, #0]
				break;
 8007cea:	e047      	b.n	8007d7c <ts_formatstring+0xf6>
			  case 'd':
			  case 'i':
				{
					signed int val = va_arg(va, signed int);
 8007cec:	687b      	ldr	r3, [r7, #4]
 8007cee:	1d1a      	adds	r2, r3, #4
 8007cf0:	607a      	str	r2, [r7, #4]
 8007cf2:	681b      	ldr	r3, [r3, #0]
 8007cf4:	61fb      	str	r3, [r7, #28]
					if (val < 0)
 8007cf6:	69fb      	ldr	r3, [r7, #28]
 8007cf8:	2b00      	cmp	r3, #0
 8007cfa:	da07      	bge.n	8007d0c <ts_formatstring+0x86>
					{
						val *= -1;
 8007cfc:	69fb      	ldr	r3, [r7, #28]
 8007cfe:	425b      	negs	r3, r3
 8007d00:	61fb      	str	r3, [r7, #28]
						*buf++ = '-';
 8007d02:	68fb      	ldr	r3, [r7, #12]
 8007d04:	1c5a      	adds	r2, r3, #1
 8007d06:	60fa      	str	r2, [r7, #12]
 8007d08:	222d      	movs	r2, #45	; 0x2d
 8007d0a:	701a      	strb	r2, [r3, #0]
					}
					ts_itoa(&buf, val, 10);
 8007d0c:	69f9      	ldr	r1, [r7, #28]
 8007d0e:	f107 030c 	add.w	r3, r7, #12
 8007d12:	220a      	movs	r2, #10
 8007d14:	4618      	mov	r0, r3
 8007d16:	f7ff ff6d 	bl	8007bf4 <ts_itoa>
				}
				break;
 8007d1a:	e02f      	b.n	8007d7c <ts_formatstring+0xf6>
			  case 's':
				{
					char * arg = va_arg(va, char *);
 8007d1c:	687b      	ldr	r3, [r7, #4]
 8007d1e:	1d1a      	adds	r2, r3, #4
 8007d20:	607a      	str	r2, [r7, #4]
 8007d22:	681b      	ldr	r3, [r3, #0]
 8007d24:	61bb      	str	r3, [r7, #24]
					while (*arg)
 8007d26:	e007      	b.n	8007d38 <ts_formatstring+0xb2>
					{
						*buf++ = *arg++;
 8007d28:	68fb      	ldr	r3, [r7, #12]
 8007d2a:	1c5a      	adds	r2, r3, #1
 8007d2c:	60fa      	str	r2, [r7, #12]
 8007d2e:	69ba      	ldr	r2, [r7, #24]
 8007d30:	1c51      	adds	r1, r2, #1
 8007d32:	61b9      	str	r1, [r7, #24]
 8007d34:	7812      	ldrb	r2, [r2, #0]
 8007d36:	701a      	strb	r2, [r3, #0]
					while (*arg)
 8007d38:	69bb      	ldr	r3, [r7, #24]
 8007d3a:	781b      	ldrb	r3, [r3, #0]
 8007d3c:	2b00      	cmp	r3, #0
 8007d3e:	d1f3      	bne.n	8007d28 <ts_formatstring+0xa2>
					}
				}
				break;
 8007d40:	e01c      	b.n	8007d7c <ts_formatstring+0xf6>
			  case 'u':
					ts_itoa(&buf, va_arg(va, unsigned int), 10);
 8007d42:	687b      	ldr	r3, [r7, #4]
 8007d44:	1d1a      	adds	r2, r3, #4
 8007d46:	607a      	str	r2, [r7, #4]
 8007d48:	6819      	ldr	r1, [r3, #0]
 8007d4a:	f107 030c 	add.w	r3, r7, #12
 8007d4e:	220a      	movs	r2, #10
 8007d50:	4618      	mov	r0, r3
 8007d52:	f7ff ff4f 	bl	8007bf4 <ts_itoa>
				break;
 8007d56:	e011      	b.n	8007d7c <ts_formatstring+0xf6>
			  case 'x':
			  case 'X':
					ts_itoa(&buf, va_arg(va, int), 16);
 8007d58:	687b      	ldr	r3, [r7, #4]
 8007d5a:	1d1a      	adds	r2, r3, #4
 8007d5c:	607a      	str	r2, [r7, #4]
 8007d5e:	681b      	ldr	r3, [r3, #0]
 8007d60:	4619      	mov	r1, r3
 8007d62:	f107 030c 	add.w	r3, r7, #12
 8007d66:	2210      	movs	r2, #16
 8007d68:	4618      	mov	r0, r3
 8007d6a:	f7ff ff43 	bl	8007bf4 <ts_itoa>
				break;
 8007d6e:	e005      	b.n	8007d7c <ts_formatstring+0xf6>
			  case '%':
				  *buf++ = '%';
 8007d70:	68fb      	ldr	r3, [r7, #12]
 8007d72:	1c5a      	adds	r2, r3, #1
 8007d74:	60fa      	str	r2, [r7, #12]
 8007d76:	2225      	movs	r2, #37	; 0x25
 8007d78:	701a      	strb	r2, [r3, #0]
				  break;
 8007d7a:	bf00      	nop
			}
			fmt++;
 8007d7c:	68bb      	ldr	r3, [r7, #8]
 8007d7e:	3301      	adds	r3, #1
 8007d80:	60bb      	str	r3, [r7, #8]
 8007d82:	e007      	b.n	8007d94 <ts_formatstring+0x10e>
		}
		/* Else just copy */
		else
		{
			*buf++ = *fmt++;
 8007d84:	68fb      	ldr	r3, [r7, #12]
 8007d86:	1c5a      	adds	r2, r3, #1
 8007d88:	60fa      	str	r2, [r7, #12]
 8007d8a:	68ba      	ldr	r2, [r7, #8]
 8007d8c:	1c51      	adds	r1, r2, #1
 8007d8e:	60b9      	str	r1, [r7, #8]
 8007d90:	7812      	ldrb	r2, [r2, #0]
 8007d92:	701a      	strb	r2, [r3, #0]
	while(*fmt)
 8007d94:	68bb      	ldr	r3, [r7, #8]
 8007d96:	781b      	ldrb	r3, [r3, #0]
 8007d98:	2b00      	cmp	r3, #0
 8007d9a:	f47f af7d 	bne.w	8007c98 <ts_formatstring+0x12>
		}
	}
	*buf = 0;
 8007d9e:	68fb      	ldr	r3, [r7, #12]
 8007da0:	2200      	movs	r2, #0
 8007da2:	701a      	strb	r2, [r3, #0]

	return (int)(buf - start_buf);
 8007da4:	68fb      	ldr	r3, [r7, #12]
 8007da6:	461a      	mov	r2, r3
 8007da8:	697b      	ldr	r3, [r7, #20]
 8007daa:	1ad3      	subs	r3, r2, r3
}
 8007dac:	4618      	mov	r0, r3
 8007dae:	3720      	adds	r7, #32
 8007db0:	46bd      	mov	sp, r7
 8007db2:	bd80      	pop	{r7, pc}

08007db4 <siprintf>:
**            given character string according to the format parameter.
**  Returns:  Number of bytes written
**===========================================================================
*/
int siprintf(char *buf, const char *fmt, ...)
{
 8007db4:	b40e      	push	{r1, r2, r3}
 8007db6:	b580      	push	{r7, lr}
 8007db8:	b085      	sub	sp, #20
 8007dba:	af00      	add	r7, sp, #0
 8007dbc:	6078      	str	r0, [r7, #4]
	int length;
	va_list va;
	va_start(va, fmt);
 8007dbe:	f107 0320 	add.w	r3, r7, #32
 8007dc2:	60bb      	str	r3, [r7, #8]
	length = ts_formatstring(buf, fmt, va);
 8007dc4:	68ba      	ldr	r2, [r7, #8]
 8007dc6:	69f9      	ldr	r1, [r7, #28]
 8007dc8:	6878      	ldr	r0, [r7, #4]
 8007dca:	f7ff ff5c 	bl	8007c86 <ts_formatstring>
 8007dce:	60f8      	str	r0, [r7, #12]
	va_end(va);
	return length;
 8007dd0:	68fb      	ldr	r3, [r7, #12]
}
 8007dd2:	4618      	mov	r0, r3
 8007dd4:	3714      	adds	r7, #20
 8007dd6:	46bd      	mov	sp, r7
 8007dd8:	e8bd 4080 	ldmia.w	sp!, {r7, lr}
 8007ddc:	b003      	add	sp, #12
 8007dde:	4770      	bx	lr

08007de0 <puts>:
**  the result is EOF.
**
**===========================================================================
*/
int puts(const char *s)
{
 8007de0:	b580      	push	{r7, lr}
 8007de2:	b086      	sub	sp, #24
 8007de4:	af00      	add	r7, sp, #0
 8007de6:	6078      	str	r0, [r7, #4]
	int length = strlen(s);
 8007de8:	6878      	ldr	r0, [r7, #4]
 8007dea:	f7f8 f9f1 	bl	80001d0 <strlen>
 8007dee:	4603      	mov	r3, r0
 8007df0:	613b      	str	r3, [r7, #16]
	int numbytes = 0;
 8007df2:	2300      	movs	r3, #0
 8007df4:	60fb      	str	r3, [r7, #12]
	int res;

	numbytes = _write(1, (char*)s, length);
 8007df6:	693a      	ldr	r2, [r7, #16]
 8007df8:	6879      	ldr	r1, [r7, #4]
 8007dfa:	2001      	movs	r0, #1
 8007dfc:	f7ff fea5 	bl	8007b4a <_write>
 8007e00:	60f8      	str	r0, [r7, #12]
	numbytes += _write(1, "\n", 1);
 8007e02:	2201      	movs	r2, #1
 8007e04:	490b      	ldr	r1, [pc, #44]	; (8007e34 <puts+0x54>)
 8007e06:	2001      	movs	r0, #1
 8007e08:	f7ff fe9f 	bl	8007b4a <_write>
 8007e0c:	4602      	mov	r2, r0
 8007e0e:	68fb      	ldr	r3, [r7, #12]
 8007e10:	4413      	add	r3, r2
 8007e12:	60fb      	str	r3, [r7, #12]

	if (numbytes == (length+1))
 8007e14:	693b      	ldr	r3, [r7, #16]
 8007e16:	1c5a      	adds	r2, r3, #1
 8007e18:	68fb      	ldr	r3, [r7, #12]
 8007e1a:	429a      	cmp	r2, r3
 8007e1c:	d102      	bne.n	8007e24 <puts+0x44>
	{
		res = 0;
 8007e1e:	2300      	movs	r3, #0
 8007e20:	617b      	str	r3, [r7, #20]
 8007e22:	e002      	b.n	8007e2a <puts+0x4a>
	}
	else
	{
		res = EOF;
 8007e24:	f04f 33ff 	mov.w	r3, #4294967295
 8007e28:	617b      	str	r3, [r7, #20]
	}

	return res;
 8007e2a:	697b      	ldr	r3, [r7, #20]
}
 8007e2c:	4618      	mov	r0, r3
 8007e2e:	3718      	adds	r7, #24
 8007e30:	46bd      	mov	sp, r7
 8007e32:	bd80      	pop	{r7, pc}
 8007e34:	08008180 	.word	0x08008180

08007e38 <__libc_init_array>:
 8007e38:	b570      	push	{r4, r5, r6, lr}
 8007e3a:	4e0d      	ldr	r6, [pc, #52]	; (8007e70 <__libc_init_array+0x38>)
 8007e3c:	4c0d      	ldr	r4, [pc, #52]	; (8007e74 <__libc_init_array+0x3c>)
 8007e3e:	1ba4      	subs	r4, r4, r6
 8007e40:	10a4      	asrs	r4, r4, #2
 8007e42:	2500      	movs	r5, #0
 8007e44:	42a5      	cmp	r5, r4
 8007e46:	d109      	bne.n	8007e5c <__libc_init_array+0x24>
 8007e48:	4e0b      	ldr	r6, [pc, #44]	; (8007e78 <__libc_init_array+0x40>)
 8007e4a:	4c0c      	ldr	r4, [pc, #48]	; (8007e7c <__libc_init_array+0x44>)
 8007e4c:	f000 f820 	bl	8007e90 <_init>
 8007e50:	1ba4      	subs	r4, r4, r6
 8007e52:	10a4      	asrs	r4, r4, #2
 8007e54:	2500      	movs	r5, #0
 8007e56:	42a5      	cmp	r5, r4
 8007e58:	d105      	bne.n	8007e66 <__libc_init_array+0x2e>
 8007e5a:	bd70      	pop	{r4, r5, r6, pc}
 8007e5c:	f856 3025 	ldr.w	r3, [r6, r5, lsl #2]
 8007e60:	4798      	blx	r3
 8007e62:	3501      	adds	r5, #1
 8007e64:	e7ee      	b.n	8007e44 <__libc_init_array+0xc>
 8007e66:	f856 3025 	ldr.w	r3, [r6, r5, lsl #2]
 8007e6a:	4798      	blx	r3
 8007e6c:	3501      	adds	r5, #1
 8007e6e:	e7f2      	b.n	8007e56 <__libc_init_array+0x1e>
 8007e70:	080083a0 	.word	0x080083a0
 8007e74:	080083a0 	.word	0x080083a0
 8007e78:	080083a0 	.word	0x080083a0
 8007e7c:	080083a4 	.word	0x080083a4

08007e80 <memset>:
 8007e80:	4402      	add	r2, r0
 8007e82:	4603      	mov	r3, r0
 8007e84:	4293      	cmp	r3, r2
 8007e86:	d100      	bne.n	8007e8a <memset+0xa>
 8007e88:	4770      	bx	lr
 8007e8a:	f803 1b01 	strb.w	r1, [r3], #1
 8007e8e:	e7f9      	b.n	8007e84 <memset+0x4>

08007e90 <_init>:
 8007e90:	b5f8      	push	{r3, r4, r5, r6, r7, lr}
 8007e92:	bf00      	nop
 8007e94:	bcf8      	pop	{r3, r4, r5, r6, r7}
 8007e96:	bc08      	pop	{r3}
 8007e98:	469e      	mov	lr, r3
 8007e9a:	4770      	bx	lr

08007e9c <_fini>:
 8007e9c:	b5f8      	push	{r3, r4, r5, r6, r7, lr}
 8007e9e:	bf00      	nop
 8007ea0:	bcf8      	pop	{r3, r4, r5, r6, r7}
 8007ea2:	bc08      	pop	{r3}
 8007ea4:	469e      	mov	lr, r3
 8007ea6:	4770      	bx	lr
